ARM GAS  /tmp/cc8r9C7y.s 			page 1


   1              		.cpu cortex-m7
   2              		.arch armv7e-m
   3              		.fpu fpv5-d16
   4              		.eabi_attribute 28, 1
   5              		.eabi_attribute 20, 1
   6              		.eabi_attribute 21, 1
   7              		.eabi_attribute 23, 3
   8              		.eabi_attribute 24, 1
   9              		.eabi_attribute 25, 1
  10              		.eabi_attribute 26, 1
  11              		.eabi_attribute 30, 2
  12              		.eabi_attribute 34, 1
  13              		.eabi_attribute 18, 4
  14              		.file	"Dattorro.cpp"
  15              		.text
  16              	.Ltext0:
  17              		.cfi_sections	.debug_frame
  18              		.file 1 "Dattorro/Dattorro.cpp"
  19              		.section	.text._ZN11InterpDelay3tapERKi.isra.0,"ax",%progbits
  20              		.align	1
  21              		.p2align 2,,3
  22              		.syntax unified
  23              		.thumb
  24              		.thumb_func
  26              	_ZN11InterpDelay3tapERKi.isra.0:
  27              	.LVL0:
  28              	.LFB3194:
  29              		.file 2 "Dattorro/dsp/delays/InterpDelay.hpp"
   1:Dattorro/dsp/delays/InterpDelay.hpp **** #pragma once
   2:Dattorro/dsp/delays/InterpDelay.hpp **** #include <vector>
   3:Dattorro/dsp/delays/InterpDelay.hpp **** #include <cstdint>
   4:Dattorro/dsp/delays/InterpDelay.hpp **** 
   5:Dattorro/dsp/delays/InterpDelay.hpp **** 
   6:Dattorro/dsp/delays/InterpDelay.hpp **** 
   7:Dattorro/dsp/delays/InterpDelay.hpp **** extern float sdramData[13][37000];
   8:Dattorro/dsp/delays/InterpDelay.hpp **** //extern float sdramData[50][144000];
   9:Dattorro/dsp/delays/InterpDelay.hpp **** extern unsigned int count;
  10:Dattorro/dsp/delays/InterpDelay.hpp **** extern float hold;
  11:Dattorro/dsp/delays/InterpDelay.hpp **** extern bool triggerClear;
  12:Dattorro/dsp/delays/InterpDelay.hpp **** extern float clearPopCancelValue;
  13:Dattorro/dsp/delays/InterpDelay.hpp **** 
  14:Dattorro/dsp/delays/InterpDelay.hpp **** class InterpDelay {
  15:Dattorro/dsp/delays/InterpDelay.hpp **** public:
  16:Dattorro/dsp/delays/InterpDelay.hpp ****     float input = 0.;
  17:Dattorro/dsp/delays/InterpDelay.hpp ****     float output = 0.;
  18:Dattorro/dsp/delays/InterpDelay.hpp ****     int bufferNumber = 0;
  19:Dattorro/dsp/delays/InterpDelay.hpp ****     int r = 0;
  20:Dattorro/dsp/delays/InterpDelay.hpp ****     int upperR = 0;
  21:Dattorro/dsp/delays/InterpDelay.hpp ****     int j = 0;
  22:Dattorro/dsp/delays/InterpDelay.hpp ****     float dataR = 0.;
  23:Dattorro/dsp/delays/InterpDelay.hpp ****     float dataUpperR = 0.;
  24:Dattorro/dsp/delays/InterpDelay.hpp **** 
  25:Dattorro/dsp/delays/InterpDelay.hpp ****     //InterpDelay () {}
  26:Dattorro/dsp/delays/InterpDelay.hpp **** 
  27:Dattorro/dsp/delays/InterpDelay.hpp ****     InterpDelay(unsigned int maxLength = 512, float initDelayTime = 0.) {
  28:Dattorro/dsp/delays/InterpDelay.hpp ****         l = maxLength;
  29:Dattorro/dsp/delays/InterpDelay.hpp ****         lDouble = static_cast<float>(maxLength);
ARM GAS  /tmp/cc8r9C7y.s 			page 2


  30:Dattorro/dsp/delays/InterpDelay.hpp **** 
  31:Dattorro/dsp/delays/InterpDelay.hpp ****         bufferNumber = ++count;
  32:Dattorro/dsp/delays/InterpDelay.hpp **** 
  33:Dattorro/dsp/delays/InterpDelay.hpp ****         setDelayTime(initDelayTime);
  34:Dattorro/dsp/delays/InterpDelay.hpp ****     }
  35:Dattorro/dsp/delays/InterpDelay.hpp **** 
  36:Dattorro/dsp/delays/InterpDelay.hpp ****     // inline void initializeDelay(const unsigned int &length = 512, const float &delayTime = 0.) {
  37:Dattorro/dsp/delays/InterpDelay.hpp ****     //     l = length;
  38:Dattorro/dsp/delays/InterpDelay.hpp ****     //     lDouble = static_cast<float>(length);
  39:Dattorro/dsp/delays/InterpDelay.hpp **** 
  40:Dattorro/dsp/delays/InterpDelay.hpp ****     //     bufferNumber = ++count;
  41:Dattorro/dsp/delays/InterpDelay.hpp **** 
  42:Dattorro/dsp/delays/InterpDelay.hpp ****     //     setDelayTime(delayTime);
  43:Dattorro/dsp/delays/InterpDelay.hpp ****     // }
  44:Dattorro/dsp/delays/InterpDelay.hpp **** 
  45:Dattorro/dsp/delays/InterpDelay.hpp ****     #pragma GCC push_options
  46:Dattorro/dsp/delays/InterpDelay.hpp ****     #pragma GCC optimize ("Ofast")
  47:Dattorro/dsp/delays/InterpDelay.hpp **** 
  48:Dattorro/dsp/delays/InterpDelay.hpp ****     inline void process() {
  49:Dattorro/dsp/delays/InterpDelay.hpp ****         //if(!triggerClear) {
  50:Dattorro/dsp/delays/InterpDelay.hpp ****             sdramData[bufferNumber][w] = input;
  51:Dattorro/dsp/delays/InterpDelay.hpp ****             r = w - t;
  52:Dattorro/dsp/delays/InterpDelay.hpp ****             
  53:Dattorro/dsp/delays/InterpDelay.hpp ****             if (r < 0) {
  54:Dattorro/dsp/delays/InterpDelay.hpp ****                 r += l;
  55:Dattorro/dsp/delays/InterpDelay.hpp ****             }
  56:Dattorro/dsp/delays/InterpDelay.hpp **** 
  57:Dattorro/dsp/delays/InterpDelay.hpp ****             ++w;
  58:Dattorro/dsp/delays/InterpDelay.hpp ****             if (w >= l) {
  59:Dattorro/dsp/delays/InterpDelay.hpp ****                 w = 0;
  60:Dattorro/dsp/delays/InterpDelay.hpp ****             }
  61:Dattorro/dsp/delays/InterpDelay.hpp **** 
  62:Dattorro/dsp/delays/InterpDelay.hpp ****             upperR = r - 1;
  63:Dattorro/dsp/delays/InterpDelay.hpp ****             if (upperR < 0) {
  64:Dattorro/dsp/delays/InterpDelay.hpp ****                 upperR += l;
  65:Dattorro/dsp/delays/InterpDelay.hpp ****             }
  66:Dattorro/dsp/delays/InterpDelay.hpp **** 
  67:Dattorro/dsp/delays/InterpDelay.hpp ****             dataR = sdramData[bufferNumber][r];
  68:Dattorro/dsp/delays/InterpDelay.hpp ****             dataUpperR = sdramData[bufferNumber][upperR];
  69:Dattorro/dsp/delays/InterpDelay.hpp ****             
  70:Dattorro/dsp/delays/InterpDelay.hpp ****             dataR *= clearPopCancelValue;
  71:Dattorro/dsp/delays/InterpDelay.hpp ****             dataUpperR *= clearPopCancelValue;
  72:Dattorro/dsp/delays/InterpDelay.hpp **** 
  73:Dattorro/dsp/delays/InterpDelay.hpp ****             output = hold * (dataR + f * (dataUpperR - dataR));
  74:Dattorro/dsp/delays/InterpDelay.hpp ****         //}
  75:Dattorro/dsp/delays/InterpDelay.hpp ****     }
  76:Dattorro/dsp/delays/InterpDelay.hpp **** 
  77:Dattorro/dsp/delays/InterpDelay.hpp ****     #pragma GCC pop_options
  78:Dattorro/dsp/delays/InterpDelay.hpp ****     #pragma GCC push_options
  79:Dattorro/dsp/delays/InterpDelay.hpp ****     #pragma GCC optimize ("Ofast")
  80:Dattorro/dsp/delays/InterpDelay.hpp **** 
  81:Dattorro/dsp/delays/InterpDelay.hpp ****     inline float tap(const int &i) {
  30              		.loc 2 81 18 view -0
  31              		.cfi_startproc
  32              		@ args = 0, pretend = 0, frame = 0
  33              		@ frame_needed = 0, uses_anonymous_args = 0
  34              		@ link register save eliminated.
ARM GAS  /tmp/cc8r9C7y.s 			page 3


  82:Dattorro/dsp/delays/InterpDelay.hpp ****         j = w - i;
  35              		.loc 2 82 9 view .LVU1
  36              		.loc 2 82 15 is_stmt 0 view .LVU2
  37 0000 036A     		ldr	r3, [r0, #32]
  38 0002 591A     		subs	r1, r3, r1
  83:Dattorro/dsp/delays/InterpDelay.hpp ****         if (j < 0) {
  39              		.loc 2 83 9 view .LVU3
  40 0004 0029     		cmp	r1, #0
  82:Dattorro/dsp/delays/InterpDelay.hpp ****         j = w - i;
  41              		.loc 2 82 11 view .LVU4
  42 0006 4161     		str	r1, [r0, #20]
  43              		.loc 2 83 9 is_stmt 1 view .LVU5
  44 0008 02DA     		bge	.L2
  84:Dattorro/dsp/delays/InterpDelay.hpp ****             j += l;
  45              		.loc 2 84 13 view .LVU6
  46              		.loc 2 84 15 is_stmt 0 view .LVU7
  47 000a C36A     		ldr	r3, [r0, #44]
  48 000c 1944     		add	r1, r1, r3
  49 000e 4161     		str	r1, [r0, #20]
  50              	.L2:
  85:Dattorro/dsp/delays/InterpDelay.hpp ****         }
  86:Dattorro/dsp/delays/InterpDelay.hpp ****         return sdramData[bufferNumber][j];
  51              		.loc 2 86 9 is_stmt 1 view .LVU8
  52              		.loc 2 86 41 is_stmt 0 view .LVU9
  53 0010 8268     		ldr	r2, [r0, #8]
  54 0012 49F28800 		movw	r0, #37000
  55              	.LVL1:
  56              		.loc 2 86 41 view .LVU10
  57 0016 044B     		ldr	r3, .L4
  58 0018 00FB0211 		mla	r1, r0, r2, r1
  59 001c 03EB8103 		add	r3, r3, r1, lsl #2
  87:Dattorro/dsp/delays/InterpDelay.hpp ****     }
  60              		.loc 2 87 5 view .LVU11
  61 0020 93ED000A 		vldr.32	s0, [r3]
  62 0024 7047     		bx	lr
  63              	.L5:
  64 0026 00BF     		.align	2
  65              	.L4:
  66 0028 00000000 		.word	sdramData
  67              		.cfi_endproc
  68              	.LFE3194:
  70              		.section	.text._ZN11InterpDelay7processEv,"axG",%progbits,_ZN11InterpDelay7processEv,comdat
  71              		.align	1
  72              		.p2align 2,,3
  73              		.weak	_ZN11InterpDelay7processEv
  74              		.syntax unified
  75              		.thumb
  76              		.thumb_func
  78              	_ZN11InterpDelay7processEv:
  79              	.LVL2:
  80              	.LFB2485:
  48:Dattorro/dsp/delays/InterpDelay.hpp ****         //if(!triggerClear) {
  81              		.loc 2 48 17 is_stmt 1 view -0
  82              		.cfi_startproc
  83              		@ args = 0, pretend = 0, frame = 0
  84              		@ frame_needed = 0, uses_anonymous_args = 0
  50:Dattorro/dsp/delays/InterpDelay.hpp ****             r = w - t;
ARM GAS  /tmp/cc8r9C7y.s 			page 4


  85              		.loc 2 50 13 view .LVU13
  48:Dattorro/dsp/delays/InterpDelay.hpp ****         //if(!triggerClear) {
  86              		.loc 2 48 17 is_stmt 0 view .LVU14
  87 0000 10B5     		push	{r4, lr}
  88              		.cfi_def_cfa_offset 8
  89              		.cfi_offset 4, -8
  90              		.cfi_offset 14, -4
  50:Dattorro/dsp/delays/InterpDelay.hpp ****             r = w - t;
  91              		.loc 2 50 37 view .LVU15
  92 0002 026A     		ldr	r2, [r0, #32]
  50:Dattorro/dsp/delays/InterpDelay.hpp ****             r = w - t;
  93              		.loc 2 50 40 view .LVU16
  94 0004 49F2880E 		movw	lr, #37000
  50:Dattorro/dsp/delays/InterpDelay.hpp ****             r = w - t;
  95              		.loc 2 50 23 view .LVU17
  96 0008 8168     		ldr	r1, [r0, #8]
  51:Dattorro/dsp/delays/InterpDelay.hpp ****             
  97              		.loc 2 51 19 view .LVU18
  98 000a 436A     		ldr	r3, [r0, #36]
  50:Dattorro/dsp/delays/InterpDelay.hpp ****             r = w - t;
  99              		.loc 2 50 40 view .LVU19
 100 000c DFF88CC0 		ldr	ip, .L12+8
 101 0010 0EFB012E 		mla	lr, lr, r1, r2
  51:Dattorro/dsp/delays/InterpDelay.hpp ****             
 102              		.loc 2 51 19 view .LVU20
 103 0014 D31A     		subs	r3, r2, r3
  50:Dattorro/dsp/delays/InterpDelay.hpp ****             r = w - t;
 104              		.loc 2 50 42 view .LVU21
 105 0016 0468     		ldr	r4, [r0]	@ float
  50:Dattorro/dsp/delays/InterpDelay.hpp ****             r = w - t;
 106              		.loc 2 50 40 view .LVU22
 107 0018 0CEB8E0E 		add	lr, ip, lr, lsl #2
  53:Dattorro/dsp/delays/InterpDelay.hpp ****                 r += l;
 108              		.loc 2 53 13 view .LVU23
 109 001c 002B     		cmp	r3, #0
  50:Dattorro/dsp/delays/InterpDelay.hpp ****             r = w - t;
 110              		.loc 2 50 40 view .LVU24
 111 001e CEF80040 		str	r4, [lr]	@ float
  51:Dattorro/dsp/delays/InterpDelay.hpp ****             
 112              		.loc 2 51 13 is_stmt 1 view .LVU25
  54:Dattorro/dsp/delays/InterpDelay.hpp ****             }
 113              		.loc 2 54 22 is_stmt 0 view .LVU26
 114 0022 C46A     		ldr	r4, [r0, #44]
  51:Dattorro/dsp/delays/InterpDelay.hpp ****             
 115              		.loc 2 51 15 view .LVU27
 116 0024 C360     		str	r3, [r0, #12]
  53:Dattorro/dsp/delays/InterpDelay.hpp ****                 r += l;
 117              		.loc 2 53 13 is_stmt 1 view .LVU28
 118 0026 01DA     		bge	.L7
  54:Dattorro/dsp/delays/InterpDelay.hpp ****             }
 119              		.loc 2 54 17 view .LVU29
  54:Dattorro/dsp/delays/InterpDelay.hpp ****             }
 120              		.loc 2 54 19 is_stmt 0 view .LVU30
 121 0028 2344     		add	r3, r3, r4
 122 002a C360     		str	r3, [r0, #12]
 123              	.L7:
  57:Dattorro/dsp/delays/InterpDelay.hpp ****             if (w >= l) {
ARM GAS  /tmp/cc8r9C7y.s 			page 5


 124              		.loc 2 57 13 is_stmt 1 view .LVU31
 125 002c 0132     		adds	r2, r2, #1
  58:Dattorro/dsp/delays/InterpDelay.hpp ****                 w = 0;
 126              		.loc 2 58 13 view .LVU32
  73:Dattorro/dsp/delays/InterpDelay.hpp ****         //}
 127              		.loc 2 73 27 is_stmt 0 view .LVU33
 128 002e D0ED0A5A 		vldr.32	s11, [r0, #40]
  59:Dattorro/dsp/delays/InterpDelay.hpp ****             }
 129              		.loc 2 59 19 view .LVU34
 130 0032 A242     		cmp	r2, r4
 131 0034 A8BF     		it	ge
 132 0036 0022     		movge	r2, #0
  62:Dattorro/dsp/delays/InterpDelay.hpp ****             if (upperR < 0) {
 133              		.loc 2 62 13 is_stmt 1 view .LVU35
  63:Dattorro/dsp/delays/InterpDelay.hpp ****                 upperR += l;
 134              		.loc 2 63 13 view .LVU36
 135 0038 B3F1010E 		subs	lr, r3, #1
  64:Dattorro/dsp/delays/InterpDelay.hpp ****             }
 136              		.loc 2 64 17 view .LVU37
 137 003c 0262     		str	r2, [r0, #32]
  67:Dattorro/dsp/delays/InterpDelay.hpp ****             dataUpperR = sdramData[bufferNumber][upperR];
 138              		.loc 2 67 46 is_stmt 0 view .LVU38
 139 003e 49F28802 		movw	r2, #37000
  64:Dattorro/dsp/delays/InterpDelay.hpp ****             }
 140              		.loc 2 64 24 view .LVU39
 141 0042 48BF     		it	mi
 142 0044 A644     		addmi	lr, lr, r4
  67:Dattorro/dsp/delays/InterpDelay.hpp ****             dataUpperR = sdramData[bufferNumber][upperR];
 143              		.loc 2 67 46 view .LVU40
 144 0046 01FB0233 		mla	r3, r1, r2, r3
  68:Dattorro/dsp/delays/InterpDelay.hpp ****             
 145              		.loc 2 68 56 view .LVU41
 146 004a 01FB02E2 		mla	r2, r1, r2, lr
  70:Dattorro/dsp/delays/InterpDelay.hpp ****             dataUpperR *= clearPopCancelValue;
 147              		.loc 2 70 19 view .LVU42
 148 004e 1149     		ldr	r1, .L12
  67:Dattorro/dsp/delays/InterpDelay.hpp ****             dataUpperR = sdramData[bufferNumber][upperR];
 149              		.loc 2 67 46 view .LVU43
 150 0050 0CEB8303 		add	r3, ip, r3, lsl #2
  62:Dattorro/dsp/delays/InterpDelay.hpp ****             if (upperR < 0) {
 151              		.loc 2 62 20 view .LVU44
 152 0054 C0F810E0 		str	lr, [r0, #16]
  67:Dattorro/dsp/delays/InterpDelay.hpp ****             dataUpperR = sdramData[bufferNumber][upperR];
 153              		.loc 2 67 13 is_stmt 1 view .LVU45
  68:Dattorro/dsp/delays/InterpDelay.hpp ****             
 154              		.loc 2 68 56 is_stmt 0 view .LVU46
 155 0058 0CEB820C 		add	ip, ip, r2, lsl #2
  70:Dattorro/dsp/delays/InterpDelay.hpp ****             dataUpperR *= clearPopCancelValue;
 156              		.loc 2 70 19 view .LVU47
 157 005c D1ED006A 		vldr.32	s13, [r1]
  67:Dattorro/dsp/delays/InterpDelay.hpp ****             dataUpperR = sdramData[bufferNumber][upperR];
 158              		.loc 2 67 46 view .LVU48
 159 0060 D3ED007A 		vldr.32	s15, [r3]
  73:Dattorro/dsp/delays/InterpDelay.hpp ****         //}
 160              		.loc 2 73 27 view .LVU49
 161 0064 0C4A     		ldr	r2, .L12+4
  67:Dattorro/dsp/delays/InterpDelay.hpp ****             dataUpperR = sdramData[bufferNumber][upperR];
ARM GAS  /tmp/cc8r9C7y.s 			page 6


 162              		.loc 2 67 19 view .LVU50
 163 0066 C0ED067A 		vstr.32	s15, [r0, #24]
  68:Dattorro/dsp/delays/InterpDelay.hpp ****             
 164              		.loc 2 68 13 is_stmt 1 view .LVU51
  70:Dattorro/dsp/delays/InterpDelay.hpp ****             dataUpperR *= clearPopCancelValue;
 165              		.loc 2 70 19 is_stmt 0 view .LVU52
 166 006a 67EEA67A 		vmul.f32	s15, s15, s13
  68:Dattorro/dsp/delays/InterpDelay.hpp ****             
 167              		.loc 2 68 56 view .LVU53
 168 006e 9CED007A 		vldr.32	s14, [ip]
  70:Dattorro/dsp/delays/InterpDelay.hpp ****             dataUpperR *= clearPopCancelValue;
 169              		.loc 2 70 13 is_stmt 1 view .LVU54
  73:Dattorro/dsp/delays/InterpDelay.hpp ****         //}
 170              		.loc 2 73 27 is_stmt 0 view .LVU55
 171 0072 92ED006A 		vldr.32	s12, [r2]
  71:Dattorro/dsp/delays/InterpDelay.hpp **** 
 172              		.loc 2 71 24 view .LVU56
 173 0076 27EE267A 		vmul.f32	s14, s14, s13
  70:Dattorro/dsp/delays/InterpDelay.hpp ****             dataUpperR *= clearPopCancelValue;
 174              		.loc 2 70 19 view .LVU57
 175 007a C0ED067A 		vstr.32	s15, [r0, #24]
  71:Dattorro/dsp/delays/InterpDelay.hpp **** 
 176              		.loc 2 71 13 is_stmt 1 view .LVU58
  73:Dattorro/dsp/delays/InterpDelay.hpp ****         //}
 177              		.loc 2 73 54 is_stmt 0 view .LVU59
 178 007e 77EE676A 		vsub.f32	s13, s14, s15
  71:Dattorro/dsp/delays/InterpDelay.hpp **** 
 179              		.loc 2 71 24 view .LVU60
 180 0082 80ED077A 		vstr.32	s14, [r0, #28]
  73:Dattorro/dsp/delays/InterpDelay.hpp ****         //}
 181              		.loc 2 73 13 is_stmt 1 view .LVU61
  73:Dattorro/dsp/delays/InterpDelay.hpp ****         //}
 182              		.loc 2 73 27 is_stmt 0 view .LVU62
 183 0086 E5EEA67A 		vfma.f32	s15, s11, s13
 184 008a 67EE867A 		vmul.f32	s15, s15, s12
  73:Dattorro/dsp/delays/InterpDelay.hpp ****         //}
 185              		.loc 2 73 20 view .LVU63
 186 008e C0ED017A 		vstr.32	s15, [r0, #4]
  75:Dattorro/dsp/delays/InterpDelay.hpp **** 
 187              		.loc 2 75 5 view .LVU64
 188 0092 10BD     		pop	{r4, pc}
 189              	.L13:
 190              		.align	2
 191              	.L12:
 192 0094 00000000 		.word	clearPopCancelValue
 193 0098 00000000 		.word	hold
 194 009c 00000000 		.word	sdramData
 195              		.cfi_endproc
 196              	.LFE2485:
 198              		.section	.text._ZN11InterpDelay12setDelayTimeEf,"axG",%progbits,_ZN11InterpDelay12setDelayTimeEf,c
 199              		.align	1
 200              		.p2align 2,,3
 201              		.weak	_ZN11InterpDelay12setDelayTimeEf
 202              		.syntax unified
 203              		.thumb
 204              		.thumb_func
 206              	_ZN11InterpDelay12setDelayTimeEf:
ARM GAS  /tmp/cc8r9C7y.s 			page 7


 207              	.LVL3:
 208              	.LFB2487:
  88:Dattorro/dsp/delays/InterpDelay.hpp **** 
  89:Dattorro/dsp/delays/InterpDelay.hpp ****     #pragma GCC pop_options
  90:Dattorro/dsp/delays/InterpDelay.hpp ****     #pragma GCC push_options
  91:Dattorro/dsp/delays/InterpDelay.hpp ****     #pragma GCC optimize ("Ofast")
  92:Dattorro/dsp/delays/InterpDelay.hpp **** 
  93:Dattorro/dsp/delays/InterpDelay.hpp ****     inline void setDelayTime(float newDelayTime) {
 209              		.loc 2 93 17 is_stmt 1 view -0
 210              		.cfi_startproc
 211              		@ args = 0, pretend = 0, frame = 0
 212              		@ frame_needed = 0, uses_anonymous_args = 0
 213              		@ link register save eliminated.
  94:Dattorro/dsp/delays/InterpDelay.hpp ****         if (newDelayTime >= lDouble) {
 214              		.loc 2 94 9 view .LVU66
 215              		.loc 2 94 29 is_stmt 0 view .LVU67
 216 0000 D0ED0C7A 		vldr.32	s15, [r0, #48]
  95:Dattorro/dsp/delays/InterpDelay.hpp ****             newDelayTime = lDouble - 1.;
 217              		.loc 2 95 26 view .LVU68
 218 0004 F7EE006A 		vmov.f32	s13, #1.0e+0
  96:Dattorro/dsp/delays/InterpDelay.hpp ****         }
  97:Dattorro/dsp/delays/InterpDelay.hpp ****         if (newDelayTime < 0.) {
 219              		.loc 2 97 9 view .LVU69
 220 0008 9FED0C7A 		vldr.32	s14, .L18
  95:Dattorro/dsp/delays/InterpDelay.hpp ****             newDelayTime = lDouble - 1.;
 221              		.loc 2 95 26 view .LVU70
 222 000c F4EEC07A 		vcmpe.f32	s15, s0
 223 0010 77EEE67A 		vsub.f32	s15, s15, s13
 224 0014 F1EE10FA 		vmrs	APSR_nzcv, FPSCR
 225 0018 88BF     		it	hi
 226 001a F0EE407A 		vmovhi.f32	s15, s0
 227              	.LVL4:
 228              		.loc 2 97 9 is_stmt 1 view .LVU71
 229 001e 87FE870A 		vmaxnm.f32	s0, s15, s14
 230              	.LVL5:
  98:Dattorro/dsp/delays/InterpDelay.hpp ****             newDelayTime = 0.;
  99:Dattorro/dsp/delays/InterpDelay.hpp ****         }
 100:Dattorro/dsp/delays/InterpDelay.hpp ****         t = static_cast<int>(newDelayTime);
 231              		.loc 2 100 9 view .LVU72
 232              		.loc 2 100 13 is_stmt 0 view .LVU73
 233 0022 FDEEC07A 		vcvt.s32.f32	s15, s0
 234 0026 17EE903A 		vmov	r3, s15	@ int
 101:Dattorro/dsp/delays/InterpDelay.hpp ****         f = newDelayTime - static_cast<float>(t);
 235              		.loc 2 101 26 view .LVU74
 236 002a F6EEC07A 		vrintz.f32	s15, s0
 237 002e 30EE670A 		vsub.f32	s0, s0, s15
 238              	.LVL6:
 100:Dattorro/dsp/delays/InterpDelay.hpp ****         f = newDelayTime - static_cast<float>(t);
 239              		.loc 2 100 13 view .LVU75
 240 0032 4362     		str	r3, [r0, #36]
 241              		.loc 2 101 9 is_stmt 1 view .LVU76
 242              		.loc 2 101 11 is_stmt 0 view .LVU77
 243 0034 80ED0A0A 		vstr.32	s0, [r0, #40]
 102:Dattorro/dsp/delays/InterpDelay.hpp ****     }
 244              		.loc 2 102 5 view .LVU78
 245 0038 7047     		bx	lr
 246              	.L19:
ARM GAS  /tmp/cc8r9C7y.s 			page 8


 247 003a 00BF     		.align	2
 248              	.L18:
 249 003c 00000000 		.word	0
 250              		.cfi_endproc
 251              	.LFE2487:
 253              		.section	.text._ZN13AllpassFilter7processEv,"axG",%progbits,_ZN13AllpassFilter7processEv,comdat
 254              		.align	1
 255              		.p2align 2,,3
 256              		.weak	_ZN13AllpassFilter7processEv
 257              		.syntax unified
 258              		.thumb
 259              		.thumb_func
 261              	_ZN13AllpassFilter7processEv:
 262              	.LVL7:
 263              	.LFB2495:
 264              		.file 3 "Dattorro/dsp/delays/AllpassFilter.hpp"
   1:Dattorro/dsp/delays/AllpassFilter.hpp **** #pragma once
   2:Dattorro/dsp/delays/AllpassFilter.hpp **** #include "InterpDelay.hpp"
   3:Dattorro/dsp/delays/AllpassFilter.hpp **** 
   4:Dattorro/dsp/delays/AllpassFilter.hpp **** class AllpassFilter {
   5:Dattorro/dsp/delays/AllpassFilter.hpp **** public:
   6:Dattorro/dsp/delays/AllpassFilter.hpp ****     AllpassFilter() {
   7:Dattorro/dsp/delays/AllpassFilter.hpp ****         //clear();
   8:Dattorro/dsp/delays/AllpassFilter.hpp ****         gain = 0.;
   9:Dattorro/dsp/delays/AllpassFilter.hpp ****     }
  10:Dattorro/dsp/delays/AllpassFilter.hpp **** 
  11:Dattorro/dsp/delays/AllpassFilter.hpp ****     AllpassFilter(int maxDelay, int initDelay = 0, float gain = 0.) {
  12:Dattorro/dsp/delays/AllpassFilter.hpp ****         //clear();
  13:Dattorro/dsp/delays/AllpassFilter.hpp ****         delay = InterpDelay(maxDelay, initDelay);
  14:Dattorro/dsp/delays/AllpassFilter.hpp ****         this->gain = gain;
  15:Dattorro/dsp/delays/AllpassFilter.hpp ****     }
  16:Dattorro/dsp/delays/AllpassFilter.hpp **** 
  17:Dattorro/dsp/delays/AllpassFilter.hpp ****     // inline void initializeAllPassFilter(const int &maxDelay, const float &initDelay = 0, const f
  18:Dattorro/dsp/delays/AllpassFilter.hpp ****     //     clear();
  19:Dattorro/dsp/delays/AllpassFilter.hpp ****     //     // delay = InterpDelay(maxDelay, initDelay);
  20:Dattorro/dsp/delays/AllpassFilter.hpp ****     //     delay.initializeDelay(maxDelay, initDelay);
  21:Dattorro/dsp/delays/AllpassFilter.hpp ****     //     this->gain = gain;
  22:Dattorro/dsp/delays/AllpassFilter.hpp ****     // }
  23:Dattorro/dsp/delays/AllpassFilter.hpp **** 
  24:Dattorro/dsp/delays/AllpassFilter.hpp ****     #pragma GCC push_options
  25:Dattorro/dsp/delays/AllpassFilter.hpp ****     #pragma GCC optimize ("Ofast")
  26:Dattorro/dsp/delays/AllpassFilter.hpp **** 
  27:Dattorro/dsp/delays/AllpassFilter.hpp ****     inline float process() {
 265              		.loc 3 27 18 is_stmt 1 view -0
 266              		.cfi_startproc
 267              		@ args = 0, pretend = 0, frame = 0
 268              		@ frame_needed = 0, uses_anonymous_args = 0
  28:Dattorro/dsp/delays/AllpassFilter.hpp ****         _inSum = input + delay.output * gain;
 269              		.loc 3 28 9 view .LVU80
 270              		.loc 3 28 32 is_stmt 0 view .LVU81
 271 0000 90ED037A 		vldr.32	s14, [r0, #12]
 272              	.LBB228:
 273              	.LBB229:
  50:Dattorro/dsp/delays/InterpDelay.hpp ****             r = w - t;
 274              		.loc 2 50 40 view .LVU82
 275 0004 49F28803 		movw	r3, #37000
 276              	.LBE229:
ARM GAS  /tmp/cc8r9C7y.s 			page 9


 277              	.LBE228:
 278              		.loc 3 28 41 view .LVU83
 279 0008 D0ED0F6A 		vldr.32	s13, [r0, #60]
 280              		.loc 3 28 24 view .LVU84
 281 000c D0ED007A 		vldr.32	s15, [r0]
 282              	.LBB234:
 283              	.LBB230:
  50:Dattorro/dsp/delays/InterpDelay.hpp ****             r = w - t;
 284              		.loc 2 50 37 view .LVU85
 285 0010 826A     		ldr	r2, [r0, #40]
 286              	.LBE230:
 287              	.LBE234:
 288              		.loc 3 28 24 view .LVU86
 289 0012 E7EE267A 		vfma.f32	s15, s14, s13
 290              	.LBB235:
 291              	.LBB231:
  50:Dattorro/dsp/delays/InterpDelay.hpp ****             r = w - t;
 292              		.loc 2 50 23 view .LVU87
 293 0016 0169     		ldr	r1, [r0, #16]
  50:Dattorro/dsp/delays/InterpDelay.hpp ****             r = w - t;
 294              		.loc 2 50 40 view .LVU88
 295 0018 DFF8A4C0 		ldr	ip, .L26+8
 296 001c 03FB0123 		mla	r3, r3, r1, r2
 297 0020 0CEB8303 		add	r3, ip, r3, lsl #2
 298              	.LBE231:
 299              	.LBE235:
  29:Dattorro/dsp/delays/AllpassFilter.hpp ****         output = delay.output + _inSum * gain * -1.;
 300              		.loc 3 29 16 view .LVU89
 301 0024 A6EEE77A 		vfms.f32	s14, s13, s15
  27:Dattorro/dsp/delays/AllpassFilter.hpp ****         _inSum = input + delay.output * gain;
 302              		.loc 3 27 18 view .LVU90
 303 0028 10B5     		push	{r4, lr}
 304              		.cfi_def_cfa_offset 8
 305              		.cfi_offset 4, -8
 306              		.cfi_offset 14, -4
  28:Dattorro/dsp/delays/AllpassFilter.hpp ****         output = delay.output + _inSum * gain * -1.;
 307              		.loc 3 28 16 view .LVU91
 308 002a C0ED107A 		vstr.32	s15, [r0, #64]
 309              		.loc 3 29 9 is_stmt 1 view .LVU92
  30:Dattorro/dsp/delays/AllpassFilter.hpp ****         delay.input = _inSum;
 310              		.loc 3 30 21 is_stmt 0 view .LVU93
 311 002e C0ED027A 		vstr.32	s15, [r0, #8]
  29:Dattorro/dsp/delays/AllpassFilter.hpp ****         delay.input = _inSum;
 312              		.loc 3 29 16 view .LVU94
 313 0032 80ED017A 		vstr.32	s14, [r0, #4]
 314              		.loc 3 30 9 is_stmt 1 view .LVU95
  31:Dattorro/dsp/delays/AllpassFilter.hpp ****         delay.process();
 315              		.loc 3 31 9 view .LVU96
 316              	.LVL8:
 317              	.LBB236:
 318              	.LBI228:
  48:Dattorro/dsp/delays/InterpDelay.hpp ****         //if(!triggerClear) {
 319              		.loc 2 48 17 view .LVU97
 320              	.LBB232:
  50:Dattorro/dsp/delays/InterpDelay.hpp ****             r = w - t;
 321              		.loc 2 50 13 view .LVU98
  50:Dattorro/dsp/delays/InterpDelay.hpp ****             r = w - t;
ARM GAS  /tmp/cc8r9C7y.s 			page 10


 322              		.loc 2 50 40 is_stmt 0 view .LVU99
 323 0036 C3ED007A 		vstr.32	s15, [r3]
  51:Dattorro/dsp/delays/InterpDelay.hpp ****             
 324              		.loc 2 51 13 is_stmt 1 view .LVU100
  51:Dattorro/dsp/delays/InterpDelay.hpp ****             
 325              		.loc 2 51 19 is_stmt 0 view .LVU101
 326 003a C36A     		ldr	r3, [r0, #44]
  54:Dattorro/dsp/delays/InterpDelay.hpp ****             }
 327              		.loc 2 54 22 view .LVU102
 328 003c 446B     		ldr	r4, [r0, #52]
  51:Dattorro/dsp/delays/InterpDelay.hpp ****             
 329              		.loc 2 51 19 view .LVU103
 330 003e D31A     		subs	r3, r2, r3
  53:Dattorro/dsp/delays/InterpDelay.hpp ****                 r += l;
 331              		.loc 2 53 13 view .LVU104
 332 0040 002B     		cmp	r3, #0
  51:Dattorro/dsp/delays/InterpDelay.hpp ****             
 333              		.loc 2 51 15 view .LVU105
 334 0042 4361     		str	r3, [r0, #20]
  53:Dattorro/dsp/delays/InterpDelay.hpp ****                 r += l;
 335              		.loc 2 53 13 is_stmt 1 view .LVU106
 336 0044 01DA     		bge	.L21
  54:Dattorro/dsp/delays/InterpDelay.hpp ****             }
 337              		.loc 2 54 17 view .LVU107
  54:Dattorro/dsp/delays/InterpDelay.hpp ****             }
 338              		.loc 2 54 19 is_stmt 0 view .LVU108
 339 0046 2344     		add	r3, r3, r4
 340 0048 4361     		str	r3, [r0, #20]
 341              	.L21:
  57:Dattorro/dsp/delays/InterpDelay.hpp ****             if (w >= l) {
 342              		.loc 2 57 13 is_stmt 1 view .LVU109
 343 004a 0132     		adds	r2, r2, #1
  58:Dattorro/dsp/delays/InterpDelay.hpp ****                 w = 0;
 344              		.loc 2 58 13 view .LVU110
  73:Dattorro/dsp/delays/InterpDelay.hpp ****         //}
 345              		.loc 2 73 27 is_stmt 0 view .LVU111
 346 004c D0ED0C5A 		vldr.32	s11, [r0, #48]
 347              	.LBE232:
 348              	.LBE236:
  32:Dattorro/dsp/delays/AllpassFilter.hpp ****         return output;
  33:Dattorro/dsp/delays/AllpassFilter.hpp ****     }
 349              		.loc 3 33 5 view .LVU112
 350 0050 90ED010A 		vldr.32	s0, [r0, #4]
 351              	.LBB237:
 352              	.LBB233:
  59:Dattorro/dsp/delays/InterpDelay.hpp ****             }
 353              		.loc 2 59 19 view .LVU113
 354 0054 A242     		cmp	r2, r4
 355 0056 A8BF     		it	ge
 356 0058 0022     		movge	r2, #0
  62:Dattorro/dsp/delays/InterpDelay.hpp ****             if (upperR < 0) {
 357              		.loc 2 62 13 is_stmt 1 view .LVU114
  63:Dattorro/dsp/delays/InterpDelay.hpp ****                 upperR += l;
 358              		.loc 2 63 13 view .LVU115
 359 005a B3F1010E 		subs	lr, r3, #1
  64:Dattorro/dsp/delays/InterpDelay.hpp ****             }
 360              		.loc 2 64 17 view .LVU116
ARM GAS  /tmp/cc8r9C7y.s 			page 11


 361 005e 8262     		str	r2, [r0, #40]
  67:Dattorro/dsp/delays/InterpDelay.hpp ****             dataUpperR = sdramData[bufferNumber][upperR];
 362              		.loc 2 67 46 is_stmt 0 view .LVU117
 363 0060 49F28802 		movw	r2, #37000
  64:Dattorro/dsp/delays/InterpDelay.hpp ****             }
 364              		.loc 2 64 24 view .LVU118
 365 0064 48BF     		it	mi
 366 0066 A644     		addmi	lr, lr, r4
  67:Dattorro/dsp/delays/InterpDelay.hpp ****             dataUpperR = sdramData[bufferNumber][upperR];
 367              		.loc 2 67 46 view .LVU119
 368 0068 01FB0233 		mla	r3, r1, r2, r3
  68:Dattorro/dsp/delays/InterpDelay.hpp ****             
 369              		.loc 2 68 56 view .LVU120
 370 006c 01FB02E2 		mla	r2, r1, r2, lr
  70:Dattorro/dsp/delays/InterpDelay.hpp ****             dataUpperR *= clearPopCancelValue;
 371              		.loc 2 70 19 view .LVU121
 372 0070 1149     		ldr	r1, .L26
  67:Dattorro/dsp/delays/InterpDelay.hpp ****             dataUpperR = sdramData[bufferNumber][upperR];
 373              		.loc 2 67 46 view .LVU122
 374 0072 0CEB8303 		add	r3, ip, r3, lsl #2
  62:Dattorro/dsp/delays/InterpDelay.hpp ****             if (upperR < 0) {
 375              		.loc 2 62 20 view .LVU123
 376 0076 C0F818E0 		str	lr, [r0, #24]
  67:Dattorro/dsp/delays/InterpDelay.hpp ****             dataUpperR = sdramData[bufferNumber][upperR];
 377              		.loc 2 67 13 is_stmt 1 view .LVU124
  68:Dattorro/dsp/delays/InterpDelay.hpp ****             
 378              		.loc 2 68 56 is_stmt 0 view .LVU125
 379 007a 0CEB820C 		add	ip, ip, r2, lsl #2
  70:Dattorro/dsp/delays/InterpDelay.hpp ****             dataUpperR *= clearPopCancelValue;
 380              		.loc 2 70 19 view .LVU126
 381 007e D1ED006A 		vldr.32	s13, [r1]
  67:Dattorro/dsp/delays/InterpDelay.hpp ****             dataUpperR = sdramData[bufferNumber][upperR];
 382              		.loc 2 67 46 view .LVU127
 383 0082 D3ED007A 		vldr.32	s15, [r3]
  73:Dattorro/dsp/delays/InterpDelay.hpp ****         //}
 384              		.loc 2 73 27 view .LVU128
 385 0086 0D4A     		ldr	r2, .L26+4
  67:Dattorro/dsp/delays/InterpDelay.hpp ****             dataUpperR = sdramData[bufferNumber][upperR];
 386              		.loc 2 67 19 view .LVU129
 387 0088 C0ED087A 		vstr.32	s15, [r0, #32]
  68:Dattorro/dsp/delays/InterpDelay.hpp ****             
 388              		.loc 2 68 13 is_stmt 1 view .LVU130
  70:Dattorro/dsp/delays/InterpDelay.hpp ****             dataUpperR *= clearPopCancelValue;
 389              		.loc 2 70 19 is_stmt 0 view .LVU131
 390 008c 67EEA67A 		vmul.f32	s15, s15, s13
  68:Dattorro/dsp/delays/InterpDelay.hpp ****             
 391              		.loc 2 68 56 view .LVU132
 392 0090 9CED007A 		vldr.32	s14, [ip]
  70:Dattorro/dsp/delays/InterpDelay.hpp ****             dataUpperR *= clearPopCancelValue;
 393              		.loc 2 70 13 is_stmt 1 view .LVU133
  73:Dattorro/dsp/delays/InterpDelay.hpp ****         //}
 394              		.loc 2 73 27 is_stmt 0 view .LVU134
 395 0094 92ED006A 		vldr.32	s12, [r2]
  71:Dattorro/dsp/delays/InterpDelay.hpp **** 
 396              		.loc 2 71 24 view .LVU135
 397 0098 27EE267A 		vmul.f32	s14, s14, s13
  70:Dattorro/dsp/delays/InterpDelay.hpp ****             dataUpperR *= clearPopCancelValue;
ARM GAS  /tmp/cc8r9C7y.s 			page 12


 398              		.loc 2 70 19 view .LVU136
 399 009c C0ED087A 		vstr.32	s15, [r0, #32]
  71:Dattorro/dsp/delays/InterpDelay.hpp **** 
 400              		.loc 2 71 13 is_stmt 1 view .LVU137
  73:Dattorro/dsp/delays/InterpDelay.hpp ****         //}
 401              		.loc 2 73 54 is_stmt 0 view .LVU138
 402 00a0 77EE676A 		vsub.f32	s13, s14, s15
  71:Dattorro/dsp/delays/InterpDelay.hpp **** 
 403              		.loc 2 71 24 view .LVU139
 404 00a4 80ED097A 		vstr.32	s14, [r0, #36]
  73:Dattorro/dsp/delays/InterpDelay.hpp ****         //}
 405              		.loc 2 73 13 is_stmt 1 view .LVU140
  73:Dattorro/dsp/delays/InterpDelay.hpp ****         //}
 406              		.loc 2 73 27 is_stmt 0 view .LVU141
 407 00a8 E5EEA67A 		vfma.f32	s15, s11, s13
 408 00ac 67EE867A 		vmul.f32	s15, s15, s12
  73:Dattorro/dsp/delays/InterpDelay.hpp ****         //}
 409              		.loc 2 73 20 view .LVU142
 410 00b0 C0ED037A 		vstr.32	s15, [r0, #12]
 411              	.LVL9:
  73:Dattorro/dsp/delays/InterpDelay.hpp ****         //}
 412              		.loc 2 73 20 view .LVU143
 413              	.LBE233:
 414              	.LBE237:
  32:Dattorro/dsp/delays/AllpassFilter.hpp ****     }
 415              		.loc 3 32 9 is_stmt 1 view .LVU144
 416              		.loc 3 33 5 is_stmt 0 view .LVU145
 417 00b4 10BD     		pop	{r4, pc}
 418              	.L27:
 419 00b6 00BF     		.align	2
 420              	.L26:
 421 00b8 00000000 		.word	clearPopCancelValue
 422 00bc 00000000 		.word	hold
 423 00c0 00000000 		.word	sdramData
 424              		.cfi_endproc
 425              	.LFE2495:
 427              		.section	.text._ZN15OnePoleLPFilter7processEv,"axG",%progbits,_ZN15OnePoleLPFilter7processEv,comda
 428              		.align	1
 429              		.p2align 2,,3
 430              		.weak	_ZN15OnePoleLPFilter7processEv
 431              		.syntax unified
 432              		.thumb
 433              		.thumb_func
 435              	_ZN15OnePoleLPFilter7processEv:
 436              	.LVL10:
 437              	.LFB2501:
 438              		.file 4 "Dattorro/dsp/filters/OnePoleFilters.hpp"
   1:Dattorro/dsp/filters/OnePoleFilters.hpp **** #pragma once
   2:Dattorro/dsp/filters/OnePoleFilters.hpp **** #include <cmath>
   3:Dattorro/dsp/filters/OnePoleFilters.hpp **** #include <cstdint>
   4:Dattorro/dsp/filters/OnePoleFilters.hpp **** 
   5:Dattorro/dsp/filters/OnePoleFilters.hpp **** #ifndef  M_PI
   6:Dattorro/dsp/filters/OnePoleFilters.hpp **** #define M_PI		3.14159265358979323846
   7:Dattorro/dsp/filters/OnePoleFilters.hpp **** #endif
   8:Dattorro/dsp/filters/OnePoleFilters.hpp **** 
   9:Dattorro/dsp/filters/OnePoleFilters.hpp **** #define _1_FACT_2 0.5
  10:Dattorro/dsp/filters/OnePoleFilters.hpp **** #define _1_FACT_3 0.1666666667
ARM GAS  /tmp/cc8r9C7y.s 			page 13


  11:Dattorro/dsp/filters/OnePoleFilters.hpp **** #define _1_FACT_4 0.04166666667
  12:Dattorro/dsp/filters/OnePoleFilters.hpp **** #define _1_FACT_5 0.008333333333
  13:Dattorro/dsp/filters/OnePoleFilters.hpp **** #define _2M_PI 2.0 * M_PI
  14:Dattorro/dsp/filters/OnePoleFilters.hpp **** 
  15:Dattorro/dsp/filters/OnePoleFilters.hpp **** class OnePoleLPFilter {
  16:Dattorro/dsp/filters/OnePoleFilters.hpp **** public:
  17:Dattorro/dsp/filters/OnePoleFilters.hpp ****     // OnePoleLPFilter(float cutoffFreq = 22049.0, float initSampleRate = 32000.0);
  18:Dattorro/dsp/filters/OnePoleFilters.hpp ****     // OnePoleLPFilter(float cutoffFreq = 14080.0, float initSampleRate = 32000.0);
  19:Dattorro/dsp/filters/OnePoleFilters.hpp ****     OnePoleLPFilter(float cutoffFreq = 22049.0, float initSampleRate = 32000.0) {
  20:Dattorro/dsp/filters/OnePoleFilters.hpp ****         setSampleRate(initSampleRate);
  21:Dattorro/dsp/filters/OnePoleFilters.hpp ****         setCutoffFreq(cutoffFreq);
  22:Dattorro/dsp/filters/OnePoleFilters.hpp ****     }
  23:Dattorro/dsp/filters/OnePoleFilters.hpp **** 
  24:Dattorro/dsp/filters/OnePoleFilters.hpp ****     #pragma GCC push_options
  25:Dattorro/dsp/filters/OnePoleFilters.hpp ****     #pragma GCC optimize ("Ofast")
  26:Dattorro/dsp/filters/OnePoleFilters.hpp **** 
  27:Dattorro/dsp/filters/OnePoleFilters.hpp ****     inline float process() {
 439              		.loc 4 27 18 is_stmt 1 view -0
 440              		.cfi_startproc
 441              		@ args = 0, pretend = 0, frame = 0
 442              		@ frame_needed = 0, uses_anonymous_args = 0
 443              		@ link register save eliminated.
  28:Dattorro/dsp/filters/OnePoleFilters.hpp ****         _z =  _a * input + _z * _b;
 444              		.loc 4 28 9 view .LVU147
 445              		.loc 4 28 31 is_stmt 0 view .LVU148
 446 0000 90ED080A 		vldr.32	s0, [r0, #32]
 447 0004 D0ED076A 		vldr.32	s13, [r0, #28]
 448              		.loc 4 28 26 view .LVU149
 449 0008 90ED067A 		vldr.32	s14, [r0, #24]
 450              		.loc 4 28 31 view .LVU150
 451 000c 20EE260A 		vmul.f32	s0, s0, s13
 452              		.loc 4 28 26 view .LVU151
 453 0010 D0ED007A 		vldr.32	s15, [r0]
 454 0014 A7EE270A 		vfma.f32	s0, s14, s15
 455              		.loc 4 28 12 view .LVU152
 456 0018 80ED080A 		vstr.32	s0, [r0, #32]
  29:Dattorro/dsp/filters/OnePoleFilters.hpp ****         output = _z;
 457              		.loc 4 29 9 is_stmt 1 view .LVU153
 458              		.loc 4 29 16 is_stmt 0 view .LVU154
 459 001c 80ED010A 		vstr.32	s0, [r0, #4]
  30:Dattorro/dsp/filters/OnePoleFilters.hpp ****         return output;
 460              		.loc 4 30 9 is_stmt 1 view .LVU155
  31:Dattorro/dsp/filters/OnePoleFilters.hpp ****     }
 461              		.loc 4 31 5 is_stmt 0 view .LVU156
 462 0020 7047     		bx	lr
 463              		.cfi_endproc
 464              	.LFE2501:
 466 0022 00BF     		.section	.text._ZN15OnePoleLPFilter13setCutoffFreqEf,"axG",%progbits,_ZN15OnePoleLPFilter13setCuto
 467              		.align	1
 468              		.p2align 2,,3
 469              		.weak	_ZN15OnePoleLPFilter13setCutoffFreqEf
 470              		.syntax unified
 471              		.thumb
 472              		.thumb_func
 474              	_ZN15OnePoleLPFilter13setCutoffFreqEf:
 475              	.LVL11:
 476              	.LFB2504:
ARM GAS  /tmp/cc8r9C7y.s 			page 14


  32:Dattorro/dsp/filters/OnePoleFilters.hpp **** 
  33:Dattorro/dsp/filters/OnePoleFilters.hpp ****     #pragma GCC pop_options
  34:Dattorro/dsp/filters/OnePoleFilters.hpp **** 
  35:Dattorro/dsp/filters/OnePoleFilters.hpp ****     void clear() {
  36:Dattorro/dsp/filters/OnePoleFilters.hpp ****         input = 0.0;
  37:Dattorro/dsp/filters/OnePoleFilters.hpp ****         _z = 0.0;
  38:Dattorro/dsp/filters/OnePoleFilters.hpp ****         output = 0.0;
  39:Dattorro/dsp/filters/OnePoleFilters.hpp ****     }
  40:Dattorro/dsp/filters/OnePoleFilters.hpp **** 
  41:Dattorro/dsp/filters/OnePoleFilters.hpp ****     void setSampleRate(float sampleRate) {
  42:Dattorro/dsp/filters/OnePoleFilters.hpp ****         _sampleRate = sampleRate;
  43:Dattorro/dsp/filters/OnePoleFilters.hpp ****         _1_sampleRate_pi = (1.0 / sampleRate) * -_2M_PI;
  44:Dattorro/dsp/filters/OnePoleFilters.hpp ****         _maxCutoffFreq = sampleRate / 2.0 - 1.0;
  45:Dattorro/dsp/filters/OnePoleFilters.hpp ****         setCutoffFreq(_cutoffFreq);
  46:Dattorro/dsp/filters/OnePoleFilters.hpp ****     }
  47:Dattorro/dsp/filters/OnePoleFilters.hpp **** 
  48:Dattorro/dsp/filters/OnePoleFilters.hpp ****     #pragma GCC push_options
  49:Dattorro/dsp/filters/OnePoleFilters.hpp ****     #pragma GCC optimize ("Ofast")
  50:Dattorro/dsp/filters/OnePoleFilters.hpp **** 
  51:Dattorro/dsp/filters/OnePoleFilters.hpp ****     // inline void setCutoffFreq(const float &cutoffFreq) {
  52:Dattorro/dsp/filters/OnePoleFilters.hpp ****     //     // if (cutoffFreq == _cutoffFreq) {
  53:Dattorro/dsp/filters/OnePoleFilters.hpp ****     //     //     return;
  54:Dattorro/dsp/filters/OnePoleFilters.hpp ****     //     // }
  55:Dattorro/dsp/filters/OnePoleFilters.hpp **** 
  56:Dattorro/dsp/filters/OnePoleFilters.hpp ****     //     _cutoffFreq = cutoffFreq;
  57:Dattorro/dsp/filters/OnePoleFilters.hpp ****     //     // _b = expf(-_2M_PI * _cutoffFreq * _1_sampleRate);
  58:Dattorro/dsp/filters/OnePoleFilters.hpp ****     //     // Using a linear equation instead of exponential because
  59:Dattorro/dsp/filters/OnePoleFilters.hpp ****     //     // it uses less operations. Not sure if it will make any
  60:Dattorro/dsp/filters/OnePoleFilters.hpp ****     //     // difference. This holds for the expected {-1 < x < 0}
  61:Dattorro/dsp/filters/OnePoleFilters.hpp ****     //     // _b = (0.361 * _cutoffFreq) + 1.;
  62:Dattorro/dsp/filters/OnePoleFilters.hpp ****     //     _b = _cutoffFreq + 1.;
  63:Dattorro/dsp/filters/OnePoleFilters.hpp ****     //     // _b = (0.361 * -_cutoffFreq * _1_sampleRate_pi) + 1;
  64:Dattorro/dsp/filters/OnePoleFilters.hpp ****     //     _a = 1.0 - _b;
  65:Dattorro/dsp/filters/OnePoleFilters.hpp ****     // }
  66:Dattorro/dsp/filters/OnePoleFilters.hpp **** 
  67:Dattorro/dsp/filters/OnePoleFilters.hpp ****     inline void setCutoffFreq(float cutoffFreq) {
 477              		.loc 4 67 17 is_stmt 1 view -0
 478              		.cfi_startproc
 479              		@ args = 0, pretend = 0, frame = 8
 480              		@ frame_needed = 0, uses_anonymous_args = 0
  68:Dattorro/dsp/filters/OnePoleFilters.hpp ****         if (cutoffFreq == _cutoffFreq) {
 481              		.loc 4 68 9 view .LVU158
 482 0000 D0ED047A 		vldr.32	s15, [r0, #16]
 483 0004 F4EE407A 		vcmp.f32	s15, s0
 484 0008 F1EE10FA 		vmrs	APSR_nzcv, FPSCR
 485 000c 00D1     		bne	.L35
 486 000e 7047     		bx	lr
 487              	.L35:
 488              	.LVL12:
 489              	.LBB240:
 490              	.LBI240:
  67:Dattorro/dsp/filters/OnePoleFilters.hpp ****         if (cutoffFreq == _cutoffFreq) {
 491              		.loc 4 67 17 view .LVU159
 492              	.LBB241:
  69:Dattorro/dsp/filters/OnePoleFilters.hpp ****             return;
  70:Dattorro/dsp/filters/OnePoleFilters.hpp ****         }
  71:Dattorro/dsp/filters/OnePoleFilters.hpp **** 
ARM GAS  /tmp/cc8r9C7y.s 			page 15


  72:Dattorro/dsp/filters/OnePoleFilters.hpp ****         _cutoffFreq = cutoffFreq;
 493              		.loc 4 72 9 view .LVU160
  73:Dattorro/dsp/filters/OnePoleFilters.hpp ****         _b = expf(_cutoffFreq * _1_sampleRate_pi);
 494              		.loc 4 73 18 is_stmt 0 view .LVU161
 495 0010 D0ED037A 		vldr.32	s15, [r0, #12]
 496              	.LBE241:
 497              	.LBE240:
  67:Dattorro/dsp/filters/OnePoleFilters.hpp ****         if (cutoffFreq == _cutoffFreq) {
 498              		.loc 4 67 17 view .LVU162
 499 0014 00B5     		push	{lr}
 500              		.cfi_def_cfa_offset 4
 501              		.cfi_offset 14, -4
 502 0016 83B0     		sub	sp, sp, #12
 503              		.cfi_def_cfa_offset 16
 504              	.LBB243:
 505              	.LBB242:
  72:Dattorro/dsp/filters/OnePoleFilters.hpp ****         _b = expf(_cutoffFreq * _1_sampleRate_pi);
 506              		.loc 4 72 21 view .LVU163
 507 0018 80ED040A 		vstr.32	s0, [r0, #16]
 508              		.loc 4 73 18 view .LVU164
 509 001c 20EE270A 		vmul.f32	s0, s0, s15
 510              	.LVL13:
  72:Dattorro/dsp/filters/OnePoleFilters.hpp ****         _b = expf(_cutoffFreq * _1_sampleRate_pi);
 511              		.loc 4 72 21 view .LVU165
 512 0020 0190     		str	r0, [sp, #4]
 513              		.loc 4 73 9 is_stmt 1 view .LVU166
 514              		.loc 4 73 18 is_stmt 0 view .LVU167
 515 0022 FFF7FEFF 		bl	expf
 516              	.LVL14:
  74:Dattorro/dsp/filters/OnePoleFilters.hpp ****         _a = 1.0 - _b;
 517              		.loc 4 74 18 view .LVU168
 518 0026 F7EE007A 		vmov.f32	s15, #1.0e+0
  73:Dattorro/dsp/filters/OnePoleFilters.hpp ****         _b = expf(_cutoffFreq * _1_sampleRate_pi);
 519              		.loc 4 73 12 discriminator 1 view .LVU169
 520 002a 0198     		ldr	r0, [sp, #4]
 521 002c 80ED070A 		vstr.32	s0, [r0, #28]
 522              		.loc 4 74 9 is_stmt 1 view .LVU170
 523              		.loc 4 74 18 is_stmt 0 view .LVU171
 524 0030 77EEC07A 		vsub.f32	s15, s15, s0
 525              		.loc 4 74 12 view .LVU172
 526 0034 C0ED067A 		vstr.32	s15, [r0, #24]
 527              	.LVL15:
 528              		.loc 4 74 12 view .LVU173
 529              	.LBE242:
 530              	.LBE243:
  75:Dattorro/dsp/filters/OnePoleFilters.hpp ****     }
 531              		.loc 4 75 5 view .LVU174
 532 0038 03B0     		add	sp, sp, #12
 533              		.cfi_def_cfa_offset 4
 534              		@ sp needed
 535 003a 00BD     		pop	{pc}
 536              		.loc 4 75 5 view .LVU175
 537              		.cfi_endproc
 538              	.LFE2504:
 540              		.section	.text._ZN15OnePoleHPFilter7processEv,"axG",%progbits,_ZN15OnePoleHPFilter7processEv,comda
 541              		.align	1
 542              		.p2align 2,,3
ARM GAS  /tmp/cc8r9C7y.s 			page 16


 543              		.weak	_ZN15OnePoleHPFilter7processEv
 544              		.syntax unified
 545              		.thumb
 546              		.thumb_func
 548              	_ZN15OnePoleHPFilter7processEv:
 549              	.LVL16:
 550              	.LFB2508:
  76:Dattorro/dsp/filters/OnePoleFilters.hpp **** 
  77:Dattorro/dsp/filters/OnePoleFilters.hpp ****     #pragma GCC pop_options
  78:Dattorro/dsp/filters/OnePoleFilters.hpp **** 
  79:Dattorro/dsp/filters/OnePoleFilters.hpp ****     float input = 0.0;
  80:Dattorro/dsp/filters/OnePoleFilters.hpp ****     float output = 0.0;
  81:Dattorro/dsp/filters/OnePoleFilters.hpp **** private:
  82:Dattorro/dsp/filters/OnePoleFilters.hpp ****     float _sampleRate = 32000.0;
  83:Dattorro/dsp/filters/OnePoleFilters.hpp ****     float _1_sampleRate_pi = (1.0 / _sampleRate) * -_2M_PI;
  84:Dattorro/dsp/filters/OnePoleFilters.hpp ****     float _cutoffFreq = 0.0;
  85:Dattorro/dsp/filters/OnePoleFilters.hpp ****     float _maxCutoffFreq = _sampleRate / 2.0;
  86:Dattorro/dsp/filters/OnePoleFilters.hpp ****     float _a = 0.0;
  87:Dattorro/dsp/filters/OnePoleFilters.hpp ****     float _b = 0.0;
  88:Dattorro/dsp/filters/OnePoleFilters.hpp ****     float _z = 0.0;
  89:Dattorro/dsp/filters/OnePoleFilters.hpp **** };
  90:Dattorro/dsp/filters/OnePoleFilters.hpp **** 
  91:Dattorro/dsp/filters/OnePoleFilters.hpp **** //////////////////////////////////////////////////////////////////////////////////////////////////
  92:Dattorro/dsp/filters/OnePoleFilters.hpp **** 
  93:Dattorro/dsp/filters/OnePoleFilters.hpp **** class OnePoleHPFilter {
  94:Dattorro/dsp/filters/OnePoleFilters.hpp **** public:
  95:Dattorro/dsp/filters/OnePoleFilters.hpp ****     // OnePoleHPFilter(float initCutoffFreq = 10.0, float initSampleRate = 32000.0);
  96:Dattorro/dsp/filters/OnePoleFilters.hpp ****     OnePoleHPFilter(float initCutoffFreq = 10.0, float initSampleRate = 32000.0) {
  97:Dattorro/dsp/filters/OnePoleFilters.hpp ****         setSampleRate(initSampleRate);
  98:Dattorro/dsp/filters/OnePoleFilters.hpp ****         setCutoffFreq(initCutoffFreq);
  99:Dattorro/dsp/filters/OnePoleFilters.hpp ****         clear();
 100:Dattorro/dsp/filters/OnePoleFilters.hpp ****     }
 101:Dattorro/dsp/filters/OnePoleFilters.hpp **** 
 102:Dattorro/dsp/filters/OnePoleFilters.hpp ****     #pragma GCC push_options
 103:Dattorro/dsp/filters/OnePoleFilters.hpp ****     #pragma GCC optimize ("Ofast")
 104:Dattorro/dsp/filters/OnePoleFilters.hpp **** 
 105:Dattorro/dsp/filters/OnePoleFilters.hpp ****     inline float process() {
 551              		.loc 4 105 18 is_stmt 1 view -0
 552              		.cfi_startproc
 553              		@ args = 0, pretend = 0, frame = 0
 554              		@ frame_needed = 0, uses_anonymous_args = 0
 555              		@ link register save eliminated.
 106:Dattorro/dsp/filters/OnePoleFilters.hpp ****         _x0 = input;
 556              		.loc 4 106 9 view .LVU177
 107:Dattorro/dsp/filters/OnePoleFilters.hpp ****         _y0 = _a0 * _x0 + _a1 * _x1 + _b1 * _y1;
 557              		.loc 4 107 31 is_stmt 0 view .LVU178
 558 0000 90ED097A 		vldr.32	s14, [r0, #36]
 559 0004 90ED0B0A 		vldr.32	s0, [r0, #44]
 106:Dattorro/dsp/filters/OnePoleFilters.hpp ****         _x0 = input;
 560              		.loc 4 106 15 view .LVU179
 561 0008 D0ED007A 		vldr.32	s15, [r0]
 562              		.loc 4 107 31 view .LVU180
 563 000c 20EE070A 		vmul.f32	s0, s0, s14
 564              		.loc 4 107 37 view .LVU181
 565 0010 90ED0A6A 		vldr.32	s12, [r0, #40]
 566 0014 90ED077A 		vldr.32	s14, [r0, #28]
 567 0018 D0ED0C6A 		vldr.32	s13, [r0, #48]
ARM GAS  /tmp/cc8r9C7y.s 			page 17


 568 001c A7EE860A 		vfma.f32	s0, s15, s12
 106:Dattorro/dsp/filters/OnePoleFilters.hpp ****         _x0 = input;
 569              		.loc 4 106 13 view .LVU182
 570 0020 C0ED087A 		vstr.32	s15, [r0, #32]
 571              		.loc 4 107 9 is_stmt 1 view .LVU183
 108:Dattorro/dsp/filters/OnePoleFilters.hpp ****         _y1 = _y0;
 109:Dattorro/dsp/filters/OnePoleFilters.hpp ****         _x1 = _x0;
 572              		.loc 4 109 13 is_stmt 0 view .LVU184
 573 0024 C0ED097A 		vstr.32	s15, [r0, #36]
 107:Dattorro/dsp/filters/OnePoleFilters.hpp ****         _y0 = _a0 * _x0 + _a1 * _x1 + _b1 * _y1;
 574              		.loc 4 107 37 view .LVU185
 575 0028 A6EE870A 		vfma.f32	s0, s13, s14
 107:Dattorro/dsp/filters/OnePoleFilters.hpp ****         _y0 = _a0 * _x0 + _a1 * _x1 + _b1 * _y1;
 576              		.loc 4 107 13 view .LVU186
 577 002c 80ED060A 		vstr.32	s0, [r0, #24]
 108:Dattorro/dsp/filters/OnePoleFilters.hpp ****         _y1 = _y0;
 578              		.loc 4 108 9 is_stmt 1 view .LVU187
 108:Dattorro/dsp/filters/OnePoleFilters.hpp ****         _y1 = _y0;
 579              		.loc 4 108 13 is_stmt 0 view .LVU188
 580 0030 80ED070A 		vstr.32	s0, [r0, #28]
 581              		.loc 4 109 9 is_stmt 1 view .LVU189
 110:Dattorro/dsp/filters/OnePoleFilters.hpp ****         output = _y0;
 582              		.loc 4 110 9 view .LVU190
 583              		.loc 4 110 16 is_stmt 0 view .LVU191
 584 0034 80ED010A 		vstr.32	s0, [r0, #4]
 111:Dattorro/dsp/filters/OnePoleFilters.hpp ****         return _y0;
 585              		.loc 4 111 9 is_stmt 1 view .LVU192
 112:Dattorro/dsp/filters/OnePoleFilters.hpp ****     }
 586              		.loc 4 112 5 is_stmt 0 view .LVU193
 587 0038 7047     		bx	lr
 588              		.cfi_endproc
 589              	.LFE2508:
 591 003a 00BF     		.section	.text._ZN15OnePoleHPFilter13setCutoffFreqEf,"axG",%progbits,_ZN15OnePoleHPFilter13setCuto
 592              		.align	1
 593              		.p2align 2,,3
 594              		.weak	_ZN15OnePoleHPFilter13setCutoffFreqEf
 595              		.syntax unified
 596              		.thumb
 597              		.thumb_func
 599              	_ZN15OnePoleHPFilter13setCutoffFreqEf:
 600              	.LVL17:
 601              	.LFB2510:
 113:Dattorro/dsp/filters/OnePoleFilters.hpp **** 
 114:Dattorro/dsp/filters/OnePoleFilters.hpp ****     #pragma GCC pop_options
 115:Dattorro/dsp/filters/OnePoleFilters.hpp **** 
 116:Dattorro/dsp/filters/OnePoleFilters.hpp ****     void clear() {
 117:Dattorro/dsp/filters/OnePoleFilters.hpp ****         input = 0.0;
 118:Dattorro/dsp/filters/OnePoleFilters.hpp ****         output = 0.0;
 119:Dattorro/dsp/filters/OnePoleFilters.hpp ****         _x0 = 0.0;
 120:Dattorro/dsp/filters/OnePoleFilters.hpp ****         _x1 = 0.0;
 121:Dattorro/dsp/filters/OnePoleFilters.hpp ****         _y0 = 0.0;
 122:Dattorro/dsp/filters/OnePoleFilters.hpp ****         _y1 = 0.0;
 123:Dattorro/dsp/filters/OnePoleFilters.hpp ****     }
 124:Dattorro/dsp/filters/OnePoleFilters.hpp **** 
 125:Dattorro/dsp/filters/OnePoleFilters.hpp ****     #pragma GCC push_options
 126:Dattorro/dsp/filters/OnePoleFilters.hpp ****     #pragma GCC optimize ("Ofast")
 127:Dattorro/dsp/filters/OnePoleFilters.hpp **** 
ARM GAS  /tmp/cc8r9C7y.s 			page 18


 128:Dattorro/dsp/filters/OnePoleFilters.hpp ****     // inline void setCutoffFreq(const float &cutoffFreq) {
 129:Dattorro/dsp/filters/OnePoleFilters.hpp ****     //     // if (cutoffFreq == _cutoffFreq) {
 130:Dattorro/dsp/filters/OnePoleFilters.hpp ****     //     //     return;
 131:Dattorro/dsp/filters/OnePoleFilters.hpp ****     //     // }
 132:Dattorro/dsp/filters/OnePoleFilters.hpp ****         
 133:Dattorro/dsp/filters/OnePoleFilters.hpp ****     //     _cutoffFreq = cutoffFreq;
 134:Dattorro/dsp/filters/OnePoleFilters.hpp ****     //     // See above.
 135:Dattorro/dsp/filters/OnePoleFilters.hpp ****     //     _b1 = _cutoffFreq + 1.;
 136:Dattorro/dsp/filters/OnePoleFilters.hpp ****     //     // _b1 = (0.361 * _cutoffFreq) + 1.;
 137:Dattorro/dsp/filters/OnePoleFilters.hpp ****     //     // _b1 = (0.361 * _cutoffFreq * _1_sampleRate_pi) + 1;
 138:Dattorro/dsp/filters/OnePoleFilters.hpp ****     //     // _b1 = expf(-_2M_PI * _cutoffFreq * _1_sampleRate);
 139:Dattorro/dsp/filters/OnePoleFilters.hpp ****     //     // _a0 = (1.0 + _b1) / 2.0;
 140:Dattorro/dsp/filters/OnePoleFilters.hpp ****     //     _a0 = (1.0 + _b1) * 0.5;
 141:Dattorro/dsp/filters/OnePoleFilters.hpp ****     //     _a1 = -_a0;
 142:Dattorro/dsp/filters/OnePoleFilters.hpp ****     // }
 143:Dattorro/dsp/filters/OnePoleFilters.hpp **** 
 144:Dattorro/dsp/filters/OnePoleFilters.hpp ****     void setCutoffFreq(float cutoffFreq) {
 602              		.loc 4 144 10 is_stmt 1 view -0
 603              		.cfi_startproc
 604              		@ args = 0, pretend = 0, frame = 8
 605              		@ frame_needed = 0, uses_anonymous_args = 0
 145:Dattorro/dsp/filters/OnePoleFilters.hpp ****         if (cutoffFreq == _cutoffFreq) {
 606              		.loc 4 145 9 view .LVU195
 607 0000 D0ED047A 		vldr.32	s15, [r0, #16]
 608 0004 F4EE407A 		vcmp.f32	s15, s0
 609 0008 F1EE10FA 		vmrs	APSR_nzcv, FPSCR
 610 000c 00D1     		bne	.L43
 611 000e 7047     		bx	lr
 612              	.L43:
 613              	.LVL18:
 614              	.LBB246:
 615              	.LBI246:
 144:Dattorro/dsp/filters/OnePoleFilters.hpp ****         if (cutoffFreq == _cutoffFreq) {
 616              		.loc 4 144 10 view .LVU196
 617              	.LBB247:
 146:Dattorro/dsp/filters/OnePoleFilters.hpp ****             return;
 147:Dattorro/dsp/filters/OnePoleFilters.hpp ****         }
 148:Dattorro/dsp/filters/OnePoleFilters.hpp **** 
 149:Dattorro/dsp/filters/OnePoleFilters.hpp ****         _cutoffFreq = cutoffFreq;
 618              		.loc 4 149 9 view .LVU197
 150:Dattorro/dsp/filters/OnePoleFilters.hpp ****         _b1 = expf(_cutoffFreq * _1_sampleRate_pi);
 619              		.loc 4 150 19 is_stmt 0 view .LVU198
 620 0010 D0ED037A 		vldr.32	s15, [r0, #12]
 621              	.LBE247:
 622              	.LBE246:
 144:Dattorro/dsp/filters/OnePoleFilters.hpp ****         if (cutoffFreq == _cutoffFreq) {
 623              		.loc 4 144 10 view .LVU199
 624 0014 00B5     		push	{lr}
 625              		.cfi_def_cfa_offset 4
 626              		.cfi_offset 14, -4
 627 0016 83B0     		sub	sp, sp, #12
 628              		.cfi_def_cfa_offset 16
 629              	.LBB249:
 630              	.LBB248:
 149:Dattorro/dsp/filters/OnePoleFilters.hpp ****         _b1 = expf(_cutoffFreq * _1_sampleRate_pi);
 631              		.loc 4 149 21 view .LVU200
 632 0018 80ED040A 		vstr.32	s0, [r0, #16]
ARM GAS  /tmp/cc8r9C7y.s 			page 19


 633              		.loc 4 150 19 view .LVU201
 634 001c 20EE270A 		vmul.f32	s0, s0, s15
 635              	.LVL19:
 149:Dattorro/dsp/filters/OnePoleFilters.hpp ****         _b1 = expf(_cutoffFreq * _1_sampleRate_pi);
 636              		.loc 4 149 21 view .LVU202
 637 0020 0190     		str	r0, [sp, #4]
 638              		.loc 4 150 9 is_stmt 1 view .LVU203
 639              		.loc 4 150 19 is_stmt 0 view .LVU204
 640 0022 FFF7FEFF 		bl	expf
 641              	.LVL20:
 151:Dattorro/dsp/filters/OnePoleFilters.hpp ****         _a0 = (1.0 + _b1) / 2.0;
 642              		.loc 4 151 27 view .LVU205
 643 0026 B6EE007B 		vmov.f64	d7, #5.0e-1
 150:Dattorro/dsp/filters/OnePoleFilters.hpp ****         _b1 = expf(_cutoffFreq * _1_sampleRate_pi);
 644              		.loc 4 150 13 discriminator 1 view .LVU206
 645 002a 0198     		ldr	r0, [sp, #4]
 646              		.loc 4 151 22 view .LVU207
 647 002c B7EEC06A 		vcvt.f64.f32	d6, s0
 150:Dattorro/dsp/filters/OnePoleFilters.hpp ****         _b1 = expf(_cutoffFreq * _1_sampleRate_pi);
 648              		.loc 4 150 13 discriminator 1 view .LVU208
 649 0030 80ED0C0A 		vstr.32	s0, [r0, #48]
 650              		.loc 4 151 9 is_stmt 1 view .LVU209
 651              		.loc 4 151 27 is_stmt 0 view .LVU210
 652 0034 06EE077B 		vmla.f64	d7, d6, d7
 653 0038 B7EEC77B 		vcvt.f32.f64	s14, d7
 152:Dattorro/dsp/filters/OnePoleFilters.hpp ****         _a1 = -_a0;
 654              		.loc 4 152 15 view .LVU211
 655 003c F1EE477A 		vneg.f32	s15, s14
 151:Dattorro/dsp/filters/OnePoleFilters.hpp ****         _a0 = (1.0 + _b1) / 2.0;
 656              		.loc 4 151 13 view .LVU212
 657 0040 80ED0A7A 		vstr.32	s14, [r0, #40]
 658              		.loc 4 152 9 is_stmt 1 view .LVU213
 659              		.loc 4 152 13 is_stmt 0 view .LVU214
 660 0044 C0ED0B7A 		vstr.32	s15, [r0, #44]
 661              	.LVL21:
 662              		.loc 4 152 13 view .LVU215
 663              	.LBE248:
 664              	.LBE249:
 153:Dattorro/dsp/filters/OnePoleFilters.hpp ****     }
 665              		.loc 4 153 5 view .LVU216
 666 0048 03B0     		add	sp, sp, #12
 667              		.cfi_def_cfa_offset 4
 668              		@ sp needed
 669 004a 00BD     		pop	{pc}
 670              		.loc 4 153 5 view .LVU217
 671              		.cfi_endproc
 672              	.LFE2510:
 674              		.section	.text._ZN16Dattorro1997Tank6freezeEb,"ax",%progbits
 675              		.align	1
 676              		.p2align 2,,3
 677              		.global	_ZN16Dattorro1997Tank6freezeEb
 678              		.syntax unified
 679              		.thumb
 680              		.thumb_func
 682              	_ZN16Dattorro1997Tank6freezeEb:
 683              	.LVL22:
 684              	.LFB2987:
ARM GAS  /tmp/cc8r9C7y.s 			page 20


   1:Dattorro/Dattorro.cpp **** #include "Dattorro.hpp"
   2:Dattorro/Dattorro.cpp **** #include <algorithm>
   3:Dattorro/Dattorro.cpp **** 
   4:Dattorro/Dattorro.cpp **** // float scale(float a, float inMin, float inMax, float outMin, float outMax) {
   5:Dattorro/Dattorro.cpp **** //     return (a - inMin)/(inMax - inMin) * (outMax - outMin) + outMin;
   6:Dattorro/Dattorro.cpp **** // }
   7:Dattorro/Dattorro.cpp **** 
   8:Dattorro/Dattorro.cpp **** Dattorro1997Tank::Dattorro1997Tank(const float initSampleRate,
   9:Dattorro/Dattorro.cpp ****                                    const float initMaxLfoDepth,
  10:Dattorro/Dattorro.cpp ****                                    const float initMaxTimeScale) :
  11:Dattorro/Dattorro.cpp ****     maxTimeScale(initMaxTimeScale) 
  12:Dattorro/Dattorro.cpp **** {
  13:Dattorro/Dattorro.cpp ****     timePadding = initMaxLfoDepth;
  14:Dattorro/Dattorro.cpp ****     setSampleRate(initSampleRate);
  15:Dattorro/Dattorro.cpp **** 
  16:Dattorro/Dattorro.cpp ****     leftOutDCBlock.setCutoffFreq(20.0);
  17:Dattorro/Dattorro.cpp ****     rightOutDCBlock.setCutoffFreq(20.0);
  18:Dattorro/Dattorro.cpp **** 
  19:Dattorro/Dattorro.cpp ****     // // leftOutDCBlock.setCutoffFreq(20.0);
  20:Dattorro/Dattorro.cpp ****     // // rightOutDCBlock.setCutoffFreq(20.0);
  21:Dattorro/Dattorro.cpp **** 
  22:Dattorro/Dattorro.cpp ****     // // // Equivalent to the same cutoff in the exponential function
  23:Dattorro/Dattorro.cpp ****     // // leftOutDCBlock.setCutoffFreq(55.0);
  24:Dattorro/Dattorro.cpp ****     // // rightOutDCBlock.setCutoffFreq(55.0);
  25:Dattorro/Dattorro.cpp **** 
  26:Dattorro/Dattorro.cpp ****     // // Equivalent to the same cutoff in the exponential function
  27:Dattorro/Dattorro.cpp ****     // leftOutDCBlock.setCutoffFreq(-0.004);
  28:Dattorro/Dattorro.cpp ****     // rightOutDCBlock.setCutoffFreq(-0.004);
  29:Dattorro/Dattorro.cpp **** 
  30:Dattorro/Dattorro.cpp ****     lfo1.setFrequency(lfo1Freq);
  31:Dattorro/Dattorro.cpp ****     lfo2.setFrequency(lfo2Freq);
  32:Dattorro/Dattorro.cpp ****     lfo3.setFrequency(lfo3Freq);
  33:Dattorro/Dattorro.cpp ****     lfo4.setFrequency(lfo4Freq);
  34:Dattorro/Dattorro.cpp **** 
  35:Dattorro/Dattorro.cpp ****     lfo2.phase = 0.25;
  36:Dattorro/Dattorro.cpp ****     lfo3.phase = 0.5;
  37:Dattorro/Dattorro.cpp ****     lfo4.phase = 0.75;
  38:Dattorro/Dattorro.cpp **** 
  39:Dattorro/Dattorro.cpp ****     lfo1.setRevPoint(0.5);
  40:Dattorro/Dattorro.cpp ****     lfo2.setRevPoint(0.5);
  41:Dattorro/Dattorro.cpp ****     lfo3.setRevPoint(0.5);
  42:Dattorro/Dattorro.cpp ****     lfo4.setRevPoint(0.5);
  43:Dattorro/Dattorro.cpp **** }
  44:Dattorro/Dattorro.cpp **** 
  45:Dattorro/Dattorro.cpp **** void Dattorro1997Tank::process(const float leftIn, const float rightIn,
  46:Dattorro/Dattorro.cpp ****                                float* leftOut, float* rightOut) {
  47:Dattorro/Dattorro.cpp ****     tickApfModulation();
  48:Dattorro/Dattorro.cpp **** 
  49:Dattorro/Dattorro.cpp ****     //decay = frozen ? 1. : decayParam;
  50:Dattorro/Dattorro.cpp ****     decay = decayParam;
  51:Dattorro/Dattorro.cpp **** 
  52:Dattorro/Dattorro.cpp ****     leftSum += leftIn;
  53:Dattorro/Dattorro.cpp ****     rightSum += rightIn;
  54:Dattorro/Dattorro.cpp **** 
  55:Dattorro/Dattorro.cpp ****     leftApf1.input = leftSum;
  56:Dattorro/Dattorro.cpp ****     leftDelay1.input = leftApf1.process();
  57:Dattorro/Dattorro.cpp ****     leftDelay1.process();
ARM GAS  /tmp/cc8r9C7y.s 			page 21


  58:Dattorro/Dattorro.cpp ****     leftHighCutFilter.input = leftDelay1.output;
  59:Dattorro/Dattorro.cpp ****     leftLowCutFilter.input = leftHighCutFilter.process();
  60:Dattorro/Dattorro.cpp ****     leftApf2.input = (leftDelay1.output * (1. - fade) + leftLowCutFilter.process() * fade) * decay;
  61:Dattorro/Dattorro.cpp ****     leftDelay2.input = leftApf2.process();
  62:Dattorro/Dattorro.cpp ****     leftDelay2.process();
  63:Dattorro/Dattorro.cpp **** 
  64:Dattorro/Dattorro.cpp ****     rightApf1.input = rightSum;
  65:Dattorro/Dattorro.cpp ****     rightDelay1.input = rightApf1.process();
  66:Dattorro/Dattorro.cpp ****     rightDelay1.process();
  67:Dattorro/Dattorro.cpp ****     rightHighCutFilter.input = rightDelay1.output;
  68:Dattorro/Dattorro.cpp ****     rightLowCutFilter.input =  rightHighCutFilter.process();
  69:Dattorro/Dattorro.cpp ****     rightApf2.input = (rightDelay1.output * (1. - fade) + rightLowCutFilter.process() * fade) * dec
  70:Dattorro/Dattorro.cpp ****     rightDelay2.input = rightApf2.process();
  71:Dattorro/Dattorro.cpp ****     rightDelay2.process();
  72:Dattorro/Dattorro.cpp **** 
  73:Dattorro/Dattorro.cpp ****     rightSum = leftDelay2.output * decay;
  74:Dattorro/Dattorro.cpp ****     leftSum = rightDelay2.output * decay;
  75:Dattorro/Dattorro.cpp **** 
  76:Dattorro/Dattorro.cpp ****     leftOutDCBlock.input = leftApf1.output;
  77:Dattorro/Dattorro.cpp ****     leftOutDCBlock.input += leftDelay1.tap(scaledOutputTaps[L_DELAY_1_L_TAP_1]);
  78:Dattorro/Dattorro.cpp ****     leftOutDCBlock.input += leftDelay1.tap(scaledOutputTaps[L_DELAY_1_L_TAP_2]);
  79:Dattorro/Dattorro.cpp ****     leftOutDCBlock.input -= leftApf2.delay.tap(scaledOutputTaps[L_APF_2_L_TAP]);
  80:Dattorro/Dattorro.cpp ****     leftOutDCBlock.input += leftDelay2.tap(scaledOutputTaps[L_DELAY_2_L_TAP]);
  81:Dattorro/Dattorro.cpp ****     leftOutDCBlock.input -= rightDelay1.tap(scaledOutputTaps[R_DELAY_1_L_TAP]);
  82:Dattorro/Dattorro.cpp ****     leftOutDCBlock.input -= rightApf2.delay.tap(scaledOutputTaps[R_APF_2_L_TAP]);
  83:Dattorro/Dattorro.cpp ****     leftOutDCBlock.input -= rightDelay2.tap(scaledOutputTaps[R_DELAY_2_L_TAP]);
  84:Dattorro/Dattorro.cpp **** 
  85:Dattorro/Dattorro.cpp ****     rightOutDCBlock.input = rightApf1.output;
  86:Dattorro/Dattorro.cpp ****     rightOutDCBlock.input += rightDelay1.tap(scaledOutputTaps[R_DELAY_1_R_TAP_1]);
  87:Dattorro/Dattorro.cpp ****     rightOutDCBlock.input += rightDelay1.tap(scaledOutputTaps[R_DELAY_1_R_TAP_2]);
  88:Dattorro/Dattorro.cpp ****     rightOutDCBlock.input -= rightApf2.delay.tap(scaledOutputTaps[R_APF_2_R_TAP]);
  89:Dattorro/Dattorro.cpp ****     rightOutDCBlock.input += rightDelay2.tap(scaledOutputTaps[R_DELAY_2_R_TAP]);
  90:Dattorro/Dattorro.cpp ****     rightOutDCBlock.input -= leftDelay1.tap(scaledOutputTaps[L_DELAY_1_R_TAP]);
  91:Dattorro/Dattorro.cpp ****     rightOutDCBlock.input -= leftApf2.delay.tap(scaledOutputTaps[L_APF_2_R_TAP]);
  92:Dattorro/Dattorro.cpp ****     rightOutDCBlock.input -= leftDelay2.tap(scaledOutputTaps[L_DELAY_2_R_TAP]);
  93:Dattorro/Dattorro.cpp **** 
  94:Dattorro/Dattorro.cpp ****     *leftOut = leftOutDCBlock.process() * 0.5;
  95:Dattorro/Dattorro.cpp ****     *rightOut = rightOutDCBlock.process() * 0.5;
  96:Dattorro/Dattorro.cpp **** 
  97:Dattorro/Dattorro.cpp ****     fade += fadeStep * fadeDir;
  98:Dattorro/Dattorro.cpp ****     fade = (fade < 0.) ? 0. : ((fade > 1.) ? 1. : fade);
  99:Dattorro/Dattorro.cpp **** }
 100:Dattorro/Dattorro.cpp **** 
 101:Dattorro/Dattorro.cpp **** void Dattorro1997Tank::freeze(bool freezeFlag) {
 685              		.loc 1 101 48 is_stmt 1 view -0
 686              		.cfi_startproc
 687              		@ args = 0, pretend = 0, frame = 0
 688              		@ frame_needed = 0, uses_anonymous_args = 0
 689              		@ link register save eliminated.
 102:Dattorro/Dattorro.cpp ****     frozen = freezeFlag;
 690              		.loc 1 102 5 view .LVU219
 103:Dattorro/Dattorro.cpp ****     if (frozen) {
 104:Dattorro/Dattorro.cpp ****         fadeDir = -1.;
 691              		.loc 1 104 17 is_stmt 0 view .LVU220
 692 0000 F7EE007A 		vmov.f32	s15, #1.0e+0
 693 0004 0029     		cmp	r1, #0
 694 0006 BFEE007A 		vmov.f32	s14, #-1.0e+0
ARM GAS  /tmp/cc8r9C7y.s 			page 22


 102:Dattorro/Dattorro.cpp ****     frozen = freezeFlag;
 695              		.loc 1 102 12 view .LVU221
 696 000a 80F88010 		strb	r1, [r0, #128]
 103:Dattorro/Dattorro.cpp ****     if (frozen) {
 697              		.loc 1 103 5 is_stmt 1 view .LVU222
 698              		.loc 1 104 17 is_stmt 0 view .LVU223
 699 000e 47FE877A 		vseleq.f32	s15, s15, s14
 700 0012 C0ED247A 		vstr.32	s15, [r0, #144]
 105:Dattorro/Dattorro.cpp ****         //decay = 1.;
 106:Dattorro/Dattorro.cpp ****     }
 107:Dattorro/Dattorro.cpp ****     else {
 108:Dattorro/Dattorro.cpp ****         fadeDir = 1.;
 109:Dattorro/Dattorro.cpp ****         //decay = decayParam;
 110:Dattorro/Dattorro.cpp ****     }
 111:Dattorro/Dattorro.cpp **** }
 701              		.loc 1 111 1 view .LVU224
 702 0016 7047     		bx	lr
 703              		.cfi_endproc
 704              	.LFE2987:
 706              		.section	.text._ZN16Dattorro1997Tank12setTimeScaleEf,"ax",%progbits
 707              		.align	1
 708              		.p2align 2,,3
 709              		.global	_ZN16Dattorro1997Tank12setTimeScaleEf
 710              		.syntax unified
 711              		.thumb
 712              		.thumb_func
 714              	_ZN16Dattorro1997Tank12setTimeScaleEf:
 715              	.LVL23:
 716              	.LFB2989:
 112:Dattorro/Dattorro.cpp **** 
 113:Dattorro/Dattorro.cpp **** void Dattorro1997Tank::setSampleRate(const float newSampleRate) {
 114:Dattorro/Dattorro.cpp ****     sampleRate = newSampleRate;
 115:Dattorro/Dattorro.cpp ****     sampleRate = sampleRate > maxSampleRate ? maxSampleRate : sampleRate;
 116:Dattorro/Dattorro.cpp ****     sampleRate = sampleRate < 1. ? 1. : sampleRate;
 117:Dattorro/Dattorro.cpp ****     sampleRateScale = sampleRate / dattorroSampleRate;
 118:Dattorro/Dattorro.cpp **** 
 119:Dattorro/Dattorro.cpp ****     fadeStep = 1. / sampleRate;
 120:Dattorro/Dattorro.cpp **** 
 121:Dattorro/Dattorro.cpp ****     leftOutDCBlock.setSampleRate(sampleRate);
 122:Dattorro/Dattorro.cpp ****     rightOutDCBlock.setSampleRate(sampleRate);
 123:Dattorro/Dattorro.cpp **** 
 124:Dattorro/Dattorro.cpp ****     rescaleTapTimes();
 125:Dattorro/Dattorro.cpp ****     setTimeScale(timeScale);
 126:Dattorro/Dattorro.cpp ****     initialiseDelaysAndApfs();
 127:Dattorro/Dattorro.cpp ****     //clear();
 128:Dattorro/Dattorro.cpp **** }
 129:Dattorro/Dattorro.cpp **** 
 130:Dattorro/Dattorro.cpp **** #pragma GCC push_options
 131:Dattorro/Dattorro.cpp **** #pragma GCC optimize ("Ofast")
 132:Dattorro/Dattorro.cpp **** 
 133:Dattorro/Dattorro.cpp **** void Dattorro1997Tank::setTimeScale(const float newTimeScale) {
 717              		.loc 1 133 63 is_stmt 1 view -0
 718              		.cfi_startproc
 719              		@ args = 0, pretend = 0, frame = 0
 720              		@ frame_needed = 0, uses_anonymous_args = 0
 721              		@ link register save eliminated.
 134:Dattorro/Dattorro.cpp ****     timeScale = newTimeScale < 0.0001 ? 0.0001 : newTimeScale;
ARM GAS  /tmp/cc8r9C7y.s 			page 23


 722              		.loc 1 134 5 view .LVU226
 723              		.loc 1 134 39 is_stmt 0 view .LVU227
 724 0000 9FED514B 		vldr.64	d4, .L60
 725              		.loc 1 134 17 view .LVU228
 726 0004 B7EEC00A 		vcvt.f64.f32	d0, s0
 727              	.LVL24:
 728              	.LBB260:
 729              	.LBB261:
 135:Dattorro/Dattorro.cpp **** 
 136:Dattorro/Dattorro.cpp ****     rescaleApfAndDelayTimes();
 137:Dattorro/Dattorro.cpp **** }
 138:Dattorro/Dattorro.cpp **** 
 139:Dattorro/Dattorro.cpp **** #pragma GCC pop_options
 140:Dattorro/Dattorro.cpp **** 
 141:Dattorro/Dattorro.cpp **** void Dattorro1997Tank::setDecay(const float newDecay) {
 142:Dattorro/Dattorro.cpp ****     decayParam = (float)(newDecay > 1. ? 1. :
 143:Dattorro/Dattorro.cpp ****                          (newDecay < 0. ? 0. : newDecay));
 144:Dattorro/Dattorro.cpp **** }
 145:Dattorro/Dattorro.cpp **** 
 146:Dattorro/Dattorro.cpp **** void Dattorro1997Tank::setModSpeed(const float newModSpeed) {
 147:Dattorro/Dattorro.cpp ****     lfo1.setFrequency(lfo1Freq * newModSpeed);
 148:Dattorro/Dattorro.cpp ****     lfo2.setFrequency(lfo2Freq * newModSpeed);
 149:Dattorro/Dattorro.cpp ****     lfo3.setFrequency(lfo3Freq * newModSpeed);
 150:Dattorro/Dattorro.cpp ****     lfo4.setFrequency(lfo4Freq * newModSpeed);
 151:Dattorro/Dattorro.cpp **** }
 152:Dattorro/Dattorro.cpp **** 
 153:Dattorro/Dattorro.cpp **** void Dattorro1997Tank::setModDepth(const float newModDepth) {
 154:Dattorro/Dattorro.cpp ****     modDepth = newModDepth;
 155:Dattorro/Dattorro.cpp ****     lfoExcursion = newModDepth * lfoMaxExcursion * sampleRateScale;
 156:Dattorro/Dattorro.cpp **** }
 157:Dattorro/Dattorro.cpp **** 
 158:Dattorro/Dattorro.cpp **** void Dattorro1997Tank::setModShape(const float shape) {
 159:Dattorro/Dattorro.cpp ****     lfo1.setRevPoint(shape);
 160:Dattorro/Dattorro.cpp ****     lfo2.setRevPoint(shape);
 161:Dattorro/Dattorro.cpp ****     lfo3.setRevPoint(shape);
 162:Dattorro/Dattorro.cpp ****     lfo4.setRevPoint(shape);
 163:Dattorro/Dattorro.cpp **** }
 164:Dattorro/Dattorro.cpp **** 
 165:Dattorro/Dattorro.cpp **** void Dattorro1997Tank::setHighCutFrequency(const float frequency) {
 166:Dattorro/Dattorro.cpp ****     leftHighCutFilter.setCutoffFreq(frequency);
 167:Dattorro/Dattorro.cpp ****     rightHighCutFilter.setCutoffFreq(frequency);
 168:Dattorro/Dattorro.cpp **** }
 169:Dattorro/Dattorro.cpp **** 
 170:Dattorro/Dattorro.cpp **** void Dattorro1997Tank::setLowCutFrequency(const float frequency) {
 171:Dattorro/Dattorro.cpp ****     leftLowCutFilter.setCutoffFreq(frequency);
 172:Dattorro/Dattorro.cpp ****     rightLowCutFilter.setCutoffFreq(frequency);
 173:Dattorro/Dattorro.cpp **** }
 174:Dattorro/Dattorro.cpp **** 
 175:Dattorro/Dattorro.cpp **** // float diffusion1 = 0.;
 176:Dattorro/Dattorro.cpp **** // float diffusion2 = 0.;
 177:Dattorro/Dattorro.cpp **** 
 178:Dattorro/Dattorro.cpp **** void Dattorro1997Tank::setDiffusion(const float diffusion) {
 179:Dattorro/Dattorro.cpp ****     //diffusion1 = scale(diffusion, 0.0, 10.0, 0.0, maxDiffusion1);
 180:Dattorro/Dattorro.cpp ****     //diffusion2 = scale(diffusion, 0.0, 10.0, 0.0, maxDiffusion2);
 181:Dattorro/Dattorro.cpp **** 
 182:Dattorro/Dattorro.cpp ****     // leftApf1.setGain(-diffusion1);
 183:Dattorro/Dattorro.cpp ****     // leftApf2.setGain(diffusion2);
ARM GAS  /tmp/cc8r9C7y.s 			page 24


 184:Dattorro/Dattorro.cpp ****     // rightApf1.setGain(-diffusion1);
 185:Dattorro/Dattorro.cpp ****     // rightApf2.setGain(diffusion2);
 186:Dattorro/Dattorro.cpp **** 
 187:Dattorro/Dattorro.cpp ****     // It is important that apf1 has inverted diffusion.
 188:Dattorro/Dattorro.cpp ****     // In the main code the diffusion is always set to the maximum of 0.7
 189:Dattorro/Dattorro.cpp ****     leftApf1.setGain(-diffusion);
 190:Dattorro/Dattorro.cpp ****     leftApf2.setGain(diffusion);
 191:Dattorro/Dattorro.cpp ****     rightApf1.setGain(-diffusion);
 192:Dattorro/Dattorro.cpp ****     rightApf2.setGain(diffusion);
 193:Dattorro/Dattorro.cpp **** }
 194:Dattorro/Dattorro.cpp **** 
 195:Dattorro/Dattorro.cpp **** void Dattorro1997Tank::clear() {
 196:Dattorro/Dattorro.cpp ****     leftApf1.clear();
 197:Dattorro/Dattorro.cpp ****     leftDelay1.clear();
 198:Dattorro/Dattorro.cpp ****     leftHighCutFilter.clear();
 199:Dattorro/Dattorro.cpp ****     leftLowCutFilter.clear();
 200:Dattorro/Dattorro.cpp ****     leftApf2.clear();
 201:Dattorro/Dattorro.cpp ****     leftDelay2.clear();
 202:Dattorro/Dattorro.cpp **** 
 203:Dattorro/Dattorro.cpp ****     rightApf1.clear();
 204:Dattorro/Dattorro.cpp ****     rightDelay1.clear();
 205:Dattorro/Dattorro.cpp ****     rightHighCutFilter.clear();;
 206:Dattorro/Dattorro.cpp ****     rightLowCutFilter.clear();
 207:Dattorro/Dattorro.cpp ****     rightApf2.clear();
 208:Dattorro/Dattorro.cpp ****     rightDelay2.clear();
 209:Dattorro/Dattorro.cpp **** 
 210:Dattorro/Dattorro.cpp ****     leftOutDCBlock.clear();
 211:Dattorro/Dattorro.cpp ****     rightOutDCBlock.clear();
 212:Dattorro/Dattorro.cpp **** 
 213:Dattorro/Dattorro.cpp ****     leftSum = 0.;
 214:Dattorro/Dattorro.cpp ****     rightSum = 0.;
 215:Dattorro/Dattorro.cpp **** }
 216:Dattorro/Dattorro.cpp **** 
 217:Dattorro/Dattorro.cpp **** int maxScaledOutputTap = 0;
 218:Dattorro/Dattorro.cpp **** 
 219:Dattorro/Dattorro.cpp **** inline int Dattorro1997Tank::calcMaxTime(float delayTime) {
 220:Dattorro/Dattorro.cpp ****     maxScaledOutputTap = *std::max_element(scaledOutputTaps.begin(),
 221:Dattorro/Dattorro.cpp ****                                                 scaledOutputTaps.end());
 222:Dattorro/Dattorro.cpp **** 
 223:Dattorro/Dattorro.cpp ****     return (int)(sampleRateScale * (delayTime * maxTimeScale + 
 224:Dattorro/Dattorro.cpp ****                                          maxScaledOutputTap + timePadding));
 225:Dattorro/Dattorro.cpp **** }
 226:Dattorro/Dattorro.cpp **** 
 227:Dattorro/Dattorro.cpp **** void Dattorro1997Tank::initialiseDelaysAndApfs() {
 228:Dattorro/Dattorro.cpp ****     // int maxScaledOutputTap = *std::max_element(scaledOutputTaps.begin(),
 229:Dattorro/Dattorro.cpp ****     //                                             scaledOutputTaps.end());
 230:Dattorro/Dattorro.cpp ****     // int calcMaxTime = [&](float delayTime) -> int {
 231:Dattorro/Dattorro.cpp ****     //     return (int)(sampleRateScale * (delayTime * maxTimeScale + 
 232:Dattorro/Dattorro.cpp ****     //                                      maxScaledOutputTap + timePadding));
 233:Dattorro/Dattorro.cpp ****     // };
 234:Dattorro/Dattorro.cpp **** 
 235:Dattorro/Dattorro.cpp ****     const int kLeftApf1MaxTime = calcMaxTime(leftApf1Time);
 236:Dattorro/Dattorro.cpp ****     const int kLeftDelay1MaxTime = calcMaxTime(leftDelay1Time);
 237:Dattorro/Dattorro.cpp ****     const int kLeftApf2MaxTime = calcMaxTime(leftApf2Time);
 238:Dattorro/Dattorro.cpp ****     const int kLeftDelay2MaxTime = calcMaxTime(leftDelay2Time);
 239:Dattorro/Dattorro.cpp ****     const int kRightApf1MaxTime = calcMaxTime(rightApf1Time);
 240:Dattorro/Dattorro.cpp ****     const int kRightDelay1MaxTime = calcMaxTime(rightDelay1Time);
ARM GAS  /tmp/cc8r9C7y.s 			page 25


 241:Dattorro/Dattorro.cpp ****     const int kRightApf2MaxTime = calcMaxTime(rightApf2Time);
 242:Dattorro/Dattorro.cpp ****     const int kRightDelay2MaxTime = calcMaxTime(rightDelay2Time);
 243:Dattorro/Dattorro.cpp **** 
 244:Dattorro/Dattorro.cpp ****     leftApf1 = AllpassFilter(kLeftApf1MaxTime);
 245:Dattorro/Dattorro.cpp ****     leftDelay1 = InterpDelay(kLeftDelay1MaxTime);
 246:Dattorro/Dattorro.cpp ****     leftApf2 = AllpassFilter(kLeftApf2MaxTime);
 247:Dattorro/Dattorro.cpp ****     leftDelay2 = InterpDelay(kLeftDelay2MaxTime);
 248:Dattorro/Dattorro.cpp ****     rightApf1 = AllpassFilter(kRightApf1MaxTime);
 249:Dattorro/Dattorro.cpp ****     rightDelay1 = InterpDelay(kRightDelay1MaxTime);
 250:Dattorro/Dattorro.cpp ****     rightApf2 = AllpassFilter(kRightApf2MaxTime);
 251:Dattorro/Dattorro.cpp ****     rightDelay2 = InterpDelay(kRightDelay2MaxTime);
 252:Dattorro/Dattorro.cpp **** }
 253:Dattorro/Dattorro.cpp **** 
 254:Dattorro/Dattorro.cpp **** void Dattorro1997Tank::tickApfModulation() {
 255:Dattorro/Dattorro.cpp ****     leftApf1.delay.setDelayTime(lfo1.process() * lfoExcursion + scaledLeftApf1Time);
 256:Dattorro/Dattorro.cpp ****     leftApf2.delay.setDelayTime(lfo2.process() * lfoExcursion + scaledLeftApf2Time);
 257:Dattorro/Dattorro.cpp ****     rightApf1.delay.setDelayTime(lfo3.process() * lfoExcursion + scaledRightApf1Time);
 258:Dattorro/Dattorro.cpp ****     rightApf2.delay.setDelayTime(lfo4.process() * lfoExcursion + scaledRightApf2Time);
 259:Dattorro/Dattorro.cpp **** }
 260:Dattorro/Dattorro.cpp **** 
 261:Dattorro/Dattorro.cpp **** float scaleFactor = 0.;
 262:Dattorro/Dattorro.cpp **** 
 263:Dattorro/Dattorro.cpp **** 
 264:Dattorro/Dattorro.cpp **** #pragma GCC push_options
 265:Dattorro/Dattorro.cpp **** #pragma GCC optimize ("Ofast")
 266:Dattorro/Dattorro.cpp **** 
 267:Dattorro/Dattorro.cpp **** void Dattorro1997Tank::rescaleApfAndDelayTimes() {
 268:Dattorro/Dattorro.cpp ****     scaleFactor = timeScale * sampleRateScale;
 730              		.loc 1 268 29 view .LVU229
 731 0008 D0ED195A 		vldr.32	s11, [r0, #100]
 269:Dattorro/Dattorro.cpp **** 
 270:Dattorro/Dattorro.cpp ****     scaledLeftApf1Time = leftApf1Time * scaleFactor;
 271:Dattorro/Dattorro.cpp ****     scaledLeftDelay1Time = leftDelay1Time * scaleFactor;
 732              		.loc 1 271 43 view .LVU230
 733 000c 9FED506A 		vldr.32	s12, .L60+8
 734              	.LBB262:
 735              	.LBB263:
  95:Dattorro/dsp/delays/InterpDelay.hpp ****         }
 736              		.loc 2 95 26 view .LVU231
 737 0010 B7EE005A 		vmov.f32	s10, #1.0e+0
  94:Dattorro/dsp/delays/InterpDelay.hpp ****             newDelayTime = lDouble - 1.;
 738              		.loc 2 94 29 view .LVU232
 739 0014 90ED9E3A 		vldr.32	s6, [r0, #632]
 740              	.LBE263:
 741              	.LBE262:
 742              	.LBB275:
 743              	.LBB276:
 744 0018 00F26C43 		addw	r3, r0, #1132
 745              	.LBE276:
 746              	.LBE275:
 747              	.LBE261:
 748              	.LBE260:
 134:Dattorro/Dattorro.cpp **** 
 749              		.loc 1 134 39 view .LVU233
 750 001c 80FE040B 		vmaxnm.f64	d0, d0, d4
 751 0020 B7EEC00B 		vcvt.f32.f64	s0, d0
 752              	.LBB357:
ARM GAS  /tmp/cc8r9C7y.s 			page 26


 753              	.LBB354:
 272:Dattorro/Dattorro.cpp ****     scaledLeftApf2Time = leftApf2Time * scaleFactor;
 273:Dattorro/Dattorro.cpp ****     scaledLeftDelay2Time = leftDelay2Time * scaleFactor;
 754              		.loc 1 273 43 view .LVU234
 755 0024 9FED4B7A 		vldr.32	s14, .L60+12
 756              	.LBB288:
 757              	.LBB264:
  95:Dattorro/dsp/delays/InterpDelay.hpp ****         }
 758              		.loc 2 95 26 view .LVU235
 759 0028 73EE450A 		vsub.f32	s1, s6, s10
 760              	.LBE264:
 761              	.LBE288:
 762              	.LBB289:
 763              	.LBB290:
  94:Dattorro/dsp/delays/InterpDelay.hpp ****             newDelayTime = lDouble - 1.;
 764              		.loc 2 94 29 view .LVU236
 765 002c D0EDD33A 		vldr.32	s7, [r0, #844]
 766              	.LBE290:
 767              	.LBE289:
 268:Dattorro/Dattorro.cpp **** 
 768              		.loc 1 268 29 view .LVU237
 769 0030 60EE255A 		vmul.f32	s11, s0, s11
 274:Dattorro/Dattorro.cpp **** 
 275:Dattorro/Dattorro.cpp ****     scaledRightApf1Time = rightApf1Time * scaleFactor;
 276:Dattorro/Dattorro.cpp ****     scaledRightDelay1Time = rightDelay1Time * scaleFactor;
 770              		.loc 1 276 45 view .LVU238
 771 0034 DFED486A 		vldr.32	s13, .L60+16
 772              	.LBB301:
 773              	.LBB302:
  94:Dattorro/dsp/delays/InterpDelay.hpp ****             newDelayTime = lDouble - 1.;
 774              		.loc 2 94 29 view .LVU239
 775 0038 90EDF22A 		vldr.32	s4, [r0, #968]
 776              	.LBE302:
 777              	.LBE301:
 778              	.LBB313:
 779              	.LBB291:
  95:Dattorro/dsp/delays/InterpDelay.hpp ****         }
 780              		.loc 2 95 26 view .LVU240
 781 003c 33EEC51A 		vsub.f32	s2, s7, s10
 782              	.LBE291:
 783              	.LBE313:
 277:Dattorro/Dattorro.cpp ****     scaledRightApf2Time = rightApf2Time * scaleFactor;
 278:Dattorro/Dattorro.cpp ****     scaledRightDelay2Time = rightDelay2Time * scaleFactor;
 784              		.loc 1 278 45 view .LVU241
 785 0040 DFED467A 		vldr.32	s15, .L60+20
 271:Dattorro/Dattorro.cpp ****     scaledLeftApf2Time = leftApf2Time * scaleFactor;
 786              		.loc 1 271 43 view .LVU242
 787 0044 25EE866A 		vmul.f32	s12, s11, s12
 788              	.LBB314:
 789              	.LBB277:
  94:Dattorro/dsp/delays/InterpDelay.hpp ****             newDelayTime = lDouble - 1.;
 790              		.loc 2 94 29 view .LVU243
 791 0048 93ED0C4A 		vldr.32	s8, [r3, #48]
 792              	.LBE277:
 793              	.LBE314:
 273:Dattorro/Dattorro.cpp **** 
 794              		.loc 1 273 43 view .LVU244
ARM GAS  /tmp/cc8r9C7y.s 			page 27


 795 004c 25EE877A 		vmul.f32	s14, s11, s14
 796              	.LBB315:
 797              	.LBB265:
  97:Dattorro/dsp/delays/InterpDelay.hpp ****             newDelayTime = 0.;
 798              		.loc 2 97 9 view .LVU245
 799 0050 DFED434A 		vldr.32	s9, .L60+24
 800              	.LBE265:
 801              	.LBE315:
 276:Dattorro/Dattorro.cpp ****     scaledRightApf2Time = rightApf2Time * scaleFactor;
 802              		.loc 1 276 45 view .LVU246
 803 0054 65EEA66A 		vmul.f32	s13, s11, s13
 270:Dattorro/Dattorro.cpp ****     scaledLeftDelay1Time = leftDelay1Time * scaleFactor;
 804              		.loc 1 270 39 view .LVU247
 805 0058 DFED422A 		vldr.32	s5, .L60+28
 806              	.LBB316:
 807              	.LBB266:
  95:Dattorro/dsp/delays/InterpDelay.hpp ****         }
 808              		.loc 2 95 26 view .LVU248
 809 005c B4EEC36A 		vcmpe.f32	s12, s6
 810              	.LBE266:
 811              	.LBE316:
 271:Dattorro/Dattorro.cpp ****     scaledLeftApf2Time = leftApf2Time * scaleFactor;
 812              		.loc 1 271 26 view .LVU249
 813 0060 80ED096A 		vstr.32	s12, [r0, #36]
 814              		.loc 1 278 45 view .LVU250
 815 0064 65EEA77A 		vmul.f32	s15, s11, s15
 273:Dattorro/Dattorro.cpp **** 
 816              		.loc 1 273 26 view .LVU251
 817 0068 80ED0B7A 		vstr.32	s14, [r0, #44]
 818              	.LBB317:
 819              	.LBB303:
  95:Dattorro/dsp/delays/InterpDelay.hpp ****         }
 820              		.loc 2 95 26 view .LVU252
 821 006c 72EE451A 		vsub.f32	s3, s4, s10
 822              	.LBE303:
 823              	.LBE317:
 276:Dattorro/Dattorro.cpp ****     scaledRightApf2Time = rightApf2Time * scaleFactor;
 824              		.loc 1 276 27 view .LVU253
 825 0070 C0ED0D6A 		vstr.32	s13, [r0, #52]
 826              	.LBB318:
 827              	.LBB267:
  95:Dattorro/dsp/delays/InterpDelay.hpp ****         }
 828              		.loc 2 95 26 view .LVU254
 829 0074 F1EE10FA 		vmrs	APSR_nzcv, FPSCR
 830              	.LBE267:
 831              	.LBE318:
 272:Dattorro/Dattorro.cpp ****     scaledLeftDelay2Time = leftDelay2Time * scaleFactor;
 832              		.loc 1 272 39 view .LVU255
 833 0078 9FED3B3A 		vldr.32	s6, .L60+32
 834              	.LBB319:
 835              	.LBB292:
  95:Dattorro/dsp/delays/InterpDelay.hpp ****         }
 836              		.loc 2 95 26 view .LVU256
 837 007c B4EEE37A 		vcmpe.f32	s14, s7
 838              	.LBE292:
 839              	.LBE319:
 840              		.loc 1 278 27 view .LVU257
ARM GAS  /tmp/cc8r9C7y.s 			page 28


 841 0080 C0ED0F7A 		vstr.32	s15, [r0, #60]
 842              	.LBB320:
 843              	.LBB278:
  95:Dattorro/dsp/delays/InterpDelay.hpp ****         }
 844              		.loc 2 95 26 view .LVU258
 845 0084 34EE455A 		vsub.f32	s10, s8, s10
 846              	.LBE278:
 847              	.LBE320:
 275:Dattorro/Dattorro.cpp ****     scaledRightDelay1Time = rightDelay1Time * scaleFactor;
 848              		.loc 1 275 41 view .LVU259
 849 0088 DFED383A 		vldr.32	s7, .L60+36
 850              	.LBB321:
 851              	.LBB268:
  95:Dattorro/dsp/delays/InterpDelay.hpp ****         }
 852              		.loc 2 95 26 view .LVU260
 853 008c 20FE866A 		vselge.f32	s12, s1, s12
  97:Dattorro/dsp/delays/InterpDelay.hpp ****             newDelayTime = 0.;
 854              		.loc 2 97 9 view .LVU261
 855 0090 86FE246A 		vmaxnm.f32	s12, s12, s9
 856              	.LBE268:
 857              	.LBE321:
 858              	.LBB322:
 859              	.LBB293:
  95:Dattorro/dsp/delays/InterpDelay.hpp ****         }
 860              		.loc 2 95 26 view .LVU262
 861 0094 F1EE10FA 		vmrs	APSR_nzcv, FPSCR
 862              	.LBE293:
 863              	.LBE322:
 268:Dattorro/Dattorro.cpp **** 
 864              		.loc 1 268 17 view .LVU263
 865 0098 354A     		ldr	r2, .L60+40
 866              	.LBB323:
 867              	.LBB304:
  95:Dattorro/dsp/delays/InterpDelay.hpp ****         }
 868              		.loc 2 95 26 view .LVU264
 869 009a F4EEC26A 		vcmpe.f32	s13, s4
 870              	.LBE304:
 871              	.LBE323:
 872              	.LBE354:
 873              	.LBE357:
 134:Dattorro/Dattorro.cpp **** 
 874              		.loc 1 134 15 view .LVU265
 875 009e 80ED1B0A 		vstr.32	s0, [r0, #108]
 876              	.LBB358:
 877              	.LBB355:
 878              	.LBB324:
 879              	.LBB269:
 100:Dattorro/dsp/delays/InterpDelay.hpp ****         f = newDelayTime - static_cast<float>(t);
 880              		.loc 2 100 13 view .LVU266
 881 00a2 BDEEC62A 		vcvt.s32.f32	s4, s12
 882              	.LBE269:
 883              	.LBE324:
 268:Dattorro/Dattorro.cpp **** 
 884              		.loc 1 268 17 view .LVU267
 885 00a6 C2ED005A 		vstr.32	s11, [r2]
 886              	.LBB325:
 887              	.LBB294:
ARM GAS  /tmp/cc8r9C7y.s 			page 29


  95:Dattorro/dsp/delays/InterpDelay.hpp ****         }
 888              		.loc 2 95 26 view .LVU268
 889 00aa 21FE077A 		vselge.f32	s14, s2, s14
  97:Dattorro/dsp/delays/InterpDelay.hpp ****             newDelayTime = 0.;
 890              		.loc 2 97 9 view .LVU269
 891 00ae 87FE247A 		vmaxnm.f32	s14, s14, s9
 892              	.LBE294:
 893              	.LBE325:
 894              	.LBB326:
 895              	.LBB305:
  95:Dattorro/dsp/delays/InterpDelay.hpp ****         }
 896              		.loc 2 95 26 view .LVU270
 897 00b2 F1EE10FA 		vmrs	APSR_nzcv, FPSCR
 898              	.LBE305:
 899              	.LBE326:
 900              	.LBB327:
 901              	.LBB279:
 902 00b6 F4EEC47A 		vcmpe.f32	s15, s8
 903              	.LBE279:
 904              	.LBE327:
 905              	.LBB328:
 906              	.LBB270:
 101:Dattorro/dsp/delays/InterpDelay.hpp ****     }
 907              		.loc 2 101 26 view .LVU271
 908 00ba B6EEC64A 		vrintz.f32	s8, s12
 909              	.LBE270:
 910              	.LBE328:
 911              	.LBB329:
 912              	.LBB295:
 100:Dattorro/dsp/delays/InterpDelay.hpp ****         f = newDelayTime - static_cast<float>(t);
 913              		.loc 2 100 13 view .LVU272
 914 00be BDEEC71A 		vcvt.s32.f32	s2, s14
 915              	.LBE295:
 916              	.LBE329:
 917              	.LBB330:
 918              	.LBB271:
 919 00c2 80ED9B2A 		vstr.32	s4, [r0, #620]	@ int
 920              	.LBE271:
 921              	.LBE330:
 922              	.LBB331:
 923              	.LBB306:
  95:Dattorro/dsp/delays/InterpDelay.hpp ****         }
 924              		.loc 2 95 26 view .LVU273
 925 00c6 61FEA66A 		vselge.f32	s13, s3, s13
  97:Dattorro/dsp/delays/InterpDelay.hpp ****             newDelayTime = 0.;
 926              		.loc 2 97 9 view .LVU274
 927 00ca C6FEA46A 		vmaxnm.f32	s13, s13, s9
 928              	.LBE306:
 929              	.LBE331:
 930              	.LBB332:
 931              	.LBB280:
  95:Dattorro/dsp/delays/InterpDelay.hpp ****         }
 932              		.loc 2 95 26 view .LVU275
 933 00ce F1EE10FA 		vmrs	APSR_nzcv, FPSCR
 934              	.LBE280:
 935              	.LBE332:
 936              	.LBB333:
ARM GAS  /tmp/cc8r9C7y.s 			page 30


 937              	.LBB296:
 101:Dattorro/dsp/delays/InterpDelay.hpp ****     }
 938              		.loc 2 101 26 view .LVU276
 939 00d2 F6EEC71A 		vrintz.f32	s3, s14
 940              	.LBE296:
 941              	.LBE333:
 942              	.LBB334:
 943              	.LBB272:
 944 00d6 36EE446A 		vsub.f32	s12, s12, s8
 945              	.LBE272:
 946              	.LBE334:
 947              	.LBB335:
 948              	.LBB307:
 949 00da B6EEE64A 		vrintz.f32	s8, s13
 950              	.LBE307:
 951              	.LBE335:
 270:Dattorro/Dattorro.cpp ****     scaledLeftDelay1Time = leftDelay1Time * scaleFactor;
 952              		.loc 1 270 39 view .LVU277
 953 00de 65EEA22A 		vmul.f32	s5, s11, s5
 954              	.LBB336:
 955              	.LBB297:
 100:Dattorro/dsp/delays/InterpDelay.hpp ****         f = newDelayTime - static_cast<float>(t);
 956              		.loc 2 100 13 view .LVU278
 957 00e2 80EDD01A 		vstr.32	s2, [r0, #832]	@ int
 958              	.LBE297:
 959              	.LBE336:
 960              	.LBB337:
 961              	.LBB281:
  95:Dattorro/dsp/delays/InterpDelay.hpp ****         }
 962              		.loc 2 95 26 view .LVU279
 963 00e6 65FE277A 		vselge.f32	s15, s10, s15
 964              	.LBE281:
 965              	.LBE337:
 966              	.LBE355:
 967              	.LBE358:
 136:Dattorro/Dattorro.cpp **** }
 968              		.loc 1 136 5 is_stmt 1 view .LVU280
 969              	.LVL25:
 970              	.LBB359:
 971              	.LBI260:
 267:Dattorro/Dattorro.cpp ****     scaleFactor = timeScale * sampleRateScale;
 972              		.loc 1 267 6 view .LVU281
 973              	.LBB356:
 268:Dattorro/Dattorro.cpp **** 
 974              		.loc 1 268 5 view .LVU282
 975              	.LBB338:
 976              	.LBB282:
  97:Dattorro/dsp/delays/InterpDelay.hpp ****             newDelayTime = 0.;
 977              		.loc 2 97 9 is_stmt 0 view .LVU283
 978 00ea C7FEA47A 		vmaxnm.f32	s15, s15, s9
 979              	.LBE282:
 980              	.LBE338:
 277:Dattorro/Dattorro.cpp ****     scaledRightDelay2Time = rightDelay2Time * scaleFactor;
 981              		.loc 1 277 41 view .LVU284
 982 00ee DFED214A 		vldr.32	s9, .L60+44
 983              	.LBB339:
 984              	.LBB283:
ARM GAS  /tmp/cc8r9C7y.s 			page 31


 101:Dattorro/dsp/delays/InterpDelay.hpp ****     }
 985              		.loc 2 101 26 view .LVU285
 986 00f2 B6EEE75A 		vrintz.f32	s10, s15
 987 00f6 37EEC55A 		vsub.f32	s10, s15, s10
 988              	.LBE283:
 989              	.LBE339:
 270:Dattorro/Dattorro.cpp ****     scaledLeftDelay1Time = leftDelay1Time * scaleFactor;
 990              		.loc 1 270 24 view .LVU286
 991 00fa C0ED082A 		vstr.32	s5, [r0, #32]
 992              	.LBB340:
 993              	.LBB284:
 100:Dattorro/dsp/delays/InterpDelay.hpp ****         f = newDelayTime - static_cast<float>(t);
 994              		.loc 2 100 13 view .LVU287
 995 00fe FDEEE77A 		vcvt.s32.f32	s15, s15
 996              	.LBE284:
 997              	.LBE340:
 998              	.LBB341:
 999              	.LBB273:
 101:Dattorro/dsp/delays/InterpDelay.hpp ****     }
 1000              		.loc 2 101 11 view .LVU288
 1001 0102 80ED9C6A 		vstr.32	s12, [r0, #624]
 1002              	.LBE273:
 1003              	.LBE341:
 1004              	.LBB342:
 1005              	.LBB308:
 101:Dattorro/dsp/delays/InterpDelay.hpp ****     }
 1006              		.loc 2 101 26 view .LVU289
 1007 0106 36EEC44A 		vsub.f32	s8, s13, s8
 1008              	.LBE308:
 1009              	.LBE342:
 272:Dattorro/Dattorro.cpp ****     scaledLeftDelay2Time = leftDelay2Time * scaleFactor;
 1010              		.loc 1 272 39 view .LVU290
 1011 010a 25EE833A 		vmul.f32	s6, s11, s6
 275:Dattorro/Dattorro.cpp ****     scaledRightDelay1Time = rightDelay1Time * scaleFactor;
 1012              		.loc 1 275 41 view .LVU291
 1013 010e 65EEA33A 		vmul.f32	s7, s11, s7
 1014              	.LBB343:
 1015              	.LBB285:
 100:Dattorro/dsp/delays/InterpDelay.hpp ****         f = newDelayTime - static_cast<float>(t);
 1016              		.loc 2 100 13 view .LVU292
 1017 0112 17EE901A 		vmov	r1, s15	@ int
 1018              	.LBE285:
 1019              	.LBE343:
 1020              	.LBB344:
 1021              	.LBB298:
 101:Dattorro/dsp/delays/InterpDelay.hpp ****     }
 1022              		.loc 2 101 26 view .LVU293
 1023 0116 37EE617A 		vsub.f32	s14, s14, s3
 1024              	.LBE298:
 1025              	.LBE344:
 1026              	.LBB345:
 1027              	.LBB309:
 101:Dattorro/dsp/delays/InterpDelay.hpp ****     }
 1028              		.loc 2 101 11 view .LVU294
 1029 011a 80EDF04A 		vstr.32	s8, [r0, #960]
 1030              	.LBE309:
 1031              	.LBE345:
ARM GAS  /tmp/cc8r9C7y.s 			page 32


 270:Dattorro/Dattorro.cpp ****     scaledLeftDelay1Time = leftDelay1Time * scaleFactor;
 1032              		.loc 1 270 5 is_stmt 1 view .LVU295
 271:Dattorro/Dattorro.cpp ****     scaledLeftApf2Time = leftApf2Time * scaleFactor;
 1033              		.loc 1 271 5 view .LVU296
 272:Dattorro/Dattorro.cpp ****     scaledLeftDelay2Time = leftDelay2Time * scaleFactor;
 1034              		.loc 1 272 5 view .LVU297
 273:Dattorro/Dattorro.cpp **** 
 1035              		.loc 1 273 5 view .LVU298
 275:Dattorro/Dattorro.cpp ****     scaledRightDelay1Time = rightDelay1Time * scaleFactor;
 1036              		.loc 1 275 5 view .LVU299
 276:Dattorro/Dattorro.cpp ****     scaledRightApf2Time = rightApf2Time * scaleFactor;
 1037              		.loc 1 276 5 view .LVU300
 277:Dattorro/Dattorro.cpp ****     scaledRightDelay2Time = rightDelay2Time * scaleFactor;
 1038              		.loc 1 277 5 view .LVU301
 1039              		.loc 1 278 5 view .LVU302
 279:Dattorro/Dattorro.cpp **** 
 280:Dattorro/Dattorro.cpp ****     leftDelay1.setDelayTime(scaledLeftDelay1Time);
 1040              		.loc 1 280 5 view .LVU303
 1041              	.LVL26:
 1042              	.LBB346:
 1043              	.LBI262:
  93:Dattorro/dsp/delays/InterpDelay.hpp ****         if (newDelayTime >= lDouble) {
 1044              		.loc 2 93 17 view .LVU304
 1045              	.LBB274:
  94:Dattorro/dsp/delays/InterpDelay.hpp ****             newDelayTime = lDouble - 1.;
 1046              		.loc 2 94 9 view .LVU305
  97:Dattorro/dsp/delays/InterpDelay.hpp ****             newDelayTime = 0.;
 1047              		.loc 2 97 9 view .LVU306
 100:Dattorro/dsp/delays/InterpDelay.hpp ****         f = newDelayTime - static_cast<float>(t);
 1048              		.loc 2 100 9 view .LVU307
 101:Dattorro/dsp/delays/InterpDelay.hpp ****     }
 1049              		.loc 2 101 9 view .LVU308
 101:Dattorro/dsp/delays/InterpDelay.hpp ****     }
 1050              		.loc 2 101 9 is_stmt 0 view .LVU309
 1051              	.LBE274:
 1052              	.LBE346:
 281:Dattorro/Dattorro.cpp ****     leftDelay2.setDelayTime(scaledLeftDelay2Time);
 1053              		.loc 1 281 5 is_stmt 1 view .LVU310
 1054              	.LBB347:
 1055              	.LBI289:
  93:Dattorro/dsp/delays/InterpDelay.hpp ****         if (newDelayTime >= lDouble) {
 1056              		.loc 2 93 17 view .LVU311
 1057              	.LBB299:
  94:Dattorro/dsp/delays/InterpDelay.hpp ****             newDelayTime = lDouble - 1.;
 1058              		.loc 2 94 9 view .LVU312
  97:Dattorro/dsp/delays/InterpDelay.hpp ****             newDelayTime = 0.;
 1059              		.loc 2 97 9 view .LVU313
 100:Dattorro/dsp/delays/InterpDelay.hpp ****         f = newDelayTime - static_cast<float>(t);
 1060              		.loc 2 100 9 view .LVU314
 101:Dattorro/dsp/delays/InterpDelay.hpp ****     }
 1061              		.loc 2 101 9 view .LVU315
 101:Dattorro/dsp/delays/InterpDelay.hpp ****     }
 1062              		.loc 2 101 9 is_stmt 0 view .LVU316
 1063              	.LBE299:
 1064              	.LBE347:
 282:Dattorro/Dattorro.cpp ****     rightDelay1.setDelayTime(scaledRightDelay1Time);
 1065              		.loc 1 282 5 is_stmt 1 view .LVU317
ARM GAS  /tmp/cc8r9C7y.s 			page 33


 1066              	.LBB348:
 1067              	.LBI301:
  93:Dattorro/dsp/delays/InterpDelay.hpp ****         if (newDelayTime >= lDouble) {
 1068              		.loc 2 93 17 view .LVU318
 1069              	.LBB310:
  94:Dattorro/dsp/delays/InterpDelay.hpp ****             newDelayTime = lDouble - 1.;
 1070              		.loc 2 94 9 view .LVU319
  97:Dattorro/dsp/delays/InterpDelay.hpp ****             newDelayTime = 0.;
 1071              		.loc 2 97 9 view .LVU320
 100:Dattorro/dsp/delays/InterpDelay.hpp ****         f = newDelayTime - static_cast<float>(t);
 1072              		.loc 2 100 9 view .LVU321
 101:Dattorro/dsp/delays/InterpDelay.hpp ****     }
 1073              		.loc 2 101 9 view .LVU322
 101:Dattorro/dsp/delays/InterpDelay.hpp ****     }
 1074              		.loc 2 101 9 is_stmt 0 view .LVU323
 1075              	.LBE310:
 1076              	.LBE348:
 283:Dattorro/Dattorro.cpp ****     rightDelay2.setDelayTime(scaledRightDelay2Time);
 1077              		.loc 1 283 5 is_stmt 1 view .LVU324
 1078              	.LBB349:
 1079              	.LBI275:
  93:Dattorro/dsp/delays/InterpDelay.hpp ****         if (newDelayTime >= lDouble) {
 1080              		.loc 2 93 17 view .LVU325
 1081              	.LBB286:
  94:Dattorro/dsp/delays/InterpDelay.hpp ****             newDelayTime = lDouble - 1.;
 1082              		.loc 2 94 9 view .LVU326
  97:Dattorro/dsp/delays/InterpDelay.hpp ****             newDelayTime = 0.;
 1083              		.loc 2 97 9 view .LVU327
 100:Dattorro/dsp/delays/InterpDelay.hpp ****         f = newDelayTime - static_cast<float>(t);
 1084              		.loc 2 100 9 view .LVU328
 101:Dattorro/dsp/delays/InterpDelay.hpp ****     }
 1085              		.loc 2 101 9 view .LVU329
 1086              	.LBE286:
 1087              	.LBE349:
 277:Dattorro/Dattorro.cpp ****     scaledRightDelay2Time = rightDelay2Time * scaleFactor;
 1088              		.loc 1 277 41 is_stmt 0 view .LVU330
 1089 011e 65EEA44A 		vmul.f32	s9, s11, s9
 272:Dattorro/Dattorro.cpp ****     scaledLeftDelay2Time = leftDelay2Time * scaleFactor;
 1090              		.loc 1 272 24 view .LVU331
 1091 0122 80ED0A3A 		vstr.32	s6, [r0, #40]
 1092              	.LBB350:
 1093              	.LBB311:
 100:Dattorro/dsp/delays/InterpDelay.hpp ****         f = newDelayTime - static_cast<float>(t);
 1094              		.loc 2 100 13 view .LVU332
 1095 0126 FDEEE66A 		vcvt.s32.f32	s13, s13
 1096              	.LBE311:
 1097              	.LBE350:
 275:Dattorro/Dattorro.cpp ****     scaledRightDelay1Time = rightDelay1Time * scaleFactor;
 1098              		.loc 1 275 25 view .LVU333
 1099 012a C0ED0C3A 		vstr.32	s7, [r0, #48]
 1100              	.LBB351:
 1101              	.LBB300:
 101:Dattorro/dsp/delays/InterpDelay.hpp ****     }
 1102              		.loc 2 101 11 view .LVU334
 1103 012e 80EDD17A 		vstr.32	s14, [r0, #836]
 1104              	.LBE300:
 1105              	.LBE351:
ARM GAS  /tmp/cc8r9C7y.s 			page 34


 277:Dattorro/Dattorro.cpp ****     scaledRightDelay2Time = rightDelay2Time * scaleFactor;
 1106              		.loc 1 277 25 view .LVU335
 1107 0132 C0ED0E4A 		vstr.32	s9, [r0, #56]
 1108              	.LBB352:
 1109              	.LBB312:
 100:Dattorro/dsp/delays/InterpDelay.hpp ****         f = newDelayTime - static_cast<float>(t);
 1110              		.loc 2 100 13 view .LVU336
 1111 0136 C0EDEF6A 		vstr.32	s13, [r0, #956]	@ int
 1112              	.LBE312:
 1113              	.LBE352:
 1114              	.LBB353:
 1115              	.LBB287:
 1116 013a C0F89014 		str	r1, [r0, #1168]
 101:Dattorro/dsp/delays/InterpDelay.hpp ****     }
 1117              		.loc 2 101 11 view .LVU337
 1118 013e 83ED0A5A 		vstr.32	s10, [r3, #40]
 1119              	.LVL27:
 101:Dattorro/dsp/delays/InterpDelay.hpp ****     }
 1120              		.loc 2 101 11 view .LVU338
 1121              	.LBE287:
 1122              	.LBE353:
 1123              	.LBE356:
 1124              	.LBE359:
 137:Dattorro/Dattorro.cpp **** 
 1125              		.loc 1 137 1 view .LVU339
 1126 0142 7047     		bx	lr
 1127              	.L61:
 1128 0144 AFF30080 		.align	3
 1129              	.L60:
 1130 0148 2D431CEB 		.word	-350469331
 1131 014c E2361A3F 		.word	1058682594
 1132 0150 00288B45 		.word	1166747648
 1133 0154 00806845 		.word	1164476416
 1134 0158 00C88345 		.word	1166264320
 1135 015c 00B04545 		.word	1162194944
 1136 0160 00000000 		.word	0
 1137 0164 00002844 		.word	1143472128
 1138 0168 0000E144 		.word	1155596288
 1139 016c 00006344 		.word	1147338752
 1140 0170 00000000 		.word	scaleFactor
 1141 0174 00002645 		.word	1160118272
 1142              		.cfi_endproc
 1143              	.LFE2989:
 1145              		.section	.text._ZN16Dattorro1997Tank8setDecayEf,"ax",%progbits
 1146              		.align	1
 1147              		.p2align 2,,3
 1148              		.global	_ZN16Dattorro1997Tank8setDecayEf
 1149              		.syntax unified
 1150              		.thumb
 1151              		.thumb_func
 1153              	_ZN16Dattorro1997Tank8setDecayEf:
 1154              	.LVL28:
 1155              	.LFB2990:
 141:Dattorro/Dattorro.cpp ****     decayParam = (float)(newDecay > 1. ? 1. :
 1156              		.loc 1 141 55 is_stmt 1 view -0
 1157              		.cfi_startproc
 1158              		@ args = 0, pretend = 0, frame = 0
ARM GAS  /tmp/cc8r9C7y.s 			page 35


 1159              		@ frame_needed = 0, uses_anonymous_args = 0
 1160              		@ link register save eliminated.
 142:Dattorro/Dattorro.cpp ****                          (newDecay < 0. ? 0. : newDecay));
 1161              		.loc 1 142 5 view .LVU341
 142:Dattorro/Dattorro.cpp ****                          (newDecay < 0. ? 0. : newDecay));
 1162              		.loc 1 142 18 is_stmt 0 view .LVU342
 1163 0000 F7EE007A 		vmov.f32	s15, #1.0e+0
 1164 0004 B4EEE70A 		vcmpe.f32	s0, s15
 1165 0008 F1EE10FA 		vmrs	APSR_nzcv, FPSCR
 1166 000c 08DC     		bgt	.L63
 1167 000e B5EEC00A 		vcmpe.f32	s0, #0
 1168 0012 DFED057A 		vldr.32	s15, .L65
 1169 0016 F1EE10FA 		vmrs	APSR_nzcv, FPSCR
 1170 001a 58BF     		it	pl
 1171 001c F0EE407A 		vmovpl.f32	s15, s0
 1172              	.L63:
 142:Dattorro/Dattorro.cpp ****                          (newDecay < 0. ? 0. : newDecay));
 1173              		.loc 1 142 16 discriminator 7 view .LVU343
 1174 0020 C0ED1D7A 		vstr.32	s15, [r0, #116]
 144:Dattorro/Dattorro.cpp **** 
 1175              		.loc 1 144 1 view .LVU344
 1176 0024 7047     		bx	lr
 1177              	.L66:
 1178 0026 00BF     		.align	2
 1179              	.L65:
 1180 0028 00000000 		.word	0
 1181              		.cfi_endproc
 1182              	.LFE2990:
 1184              		.section	.text._ZN16Dattorro1997Tank11setModSpeedEf,"ax",%progbits
 1185              		.align	1
 1186              		.p2align 2,,3
 1187              		.global	_ZN16Dattorro1997Tank11setModSpeedEf
 1188              		.syntax unified
 1189              		.thumb
 1190              		.thumb_func
 1192              	_ZN16Dattorro1997Tank11setModSpeedEf:
 1193              	.LVL29:
 1194              	.LFB2991:
 146:Dattorro/Dattorro.cpp ****     lfo1.setFrequency(lfo1Freq * newModSpeed);
 1195              		.loc 1 146 61 is_stmt 1 view -0
 1196              		.cfi_startproc
 1197              		@ args = 0, pretend = 0, frame = 0
 1198              		@ frame_needed = 0, uses_anonymous_args = 0
 1199              		@ link register save eliminated.
 147:Dattorro/Dattorro.cpp ****     lfo2.setFrequency(lfo2Freq * newModSpeed);
 1200              		.loc 1 147 5 view .LVU346
 147:Dattorro/Dattorro.cpp ****     lfo2.setFrequency(lfo2Freq * newModSpeed);
 1201              		.loc 1 147 32 is_stmt 0 view .LVU347
 1202 0000 9FED2A7A 		vldr.32	s14, .L72
 1203 0004 20EE077A 		vmul.f32	s14, s0, s14
 1204              	.LBB376:
 1205              	.LBB377:
 1206              		.file 5 "Dattorro/dsp/modulation/LFO.hpp"
   1:Dattorro/dsp/modulation/LFO.hpp **** #ifndef DSJ_LFO_HPP
   2:Dattorro/dsp/modulation/LFO.hpp **** #define DSJ_LFO_HPP
   3:Dattorro/dsp/modulation/LFO.hpp **** #include <vector>
   4:Dattorro/dsp/modulation/LFO.hpp **** #include <cmath>
ARM GAS  /tmp/cc8r9C7y.s 			page 36


   5:Dattorro/dsp/modulation/LFO.hpp **** #include <cstdint>
   6:Dattorro/dsp/modulation/LFO.hpp **** 
   7:Dattorro/dsp/modulation/LFO.hpp **** #ifndef  M_PI
   8:Dattorro/dsp/modulation/LFO.hpp **** #define M_PI		3.14159265358979323846
   9:Dattorro/dsp/modulation/LFO.hpp **** #endif
  10:Dattorro/dsp/modulation/LFO.hpp **** 
  11:Dattorro/dsp/modulation/LFO.hpp **** class TriSawLFO {
  12:Dattorro/dsp/modulation/LFO.hpp **** public:
  13:Dattorro/dsp/modulation/LFO.hpp ****     TriSawLFO(double sampleRate = 32000.0, double frequency = 1.0) {
  14:Dattorro/dsp/modulation/LFO.hpp ****         phase = 0.0;
  15:Dattorro/dsp/modulation/LFO.hpp ****         _output = 0.0;
  16:Dattorro/dsp/modulation/LFO.hpp ****         _sampleRate = sampleRate;
  17:Dattorro/dsp/modulation/LFO.hpp ****         _1_sampleRate = 1 / sampleRate;
  18:Dattorro/dsp/modulation/LFO.hpp ****         _step = 0.0;
  19:Dattorro/dsp/modulation/LFO.hpp ****         _rising = true;
  20:Dattorro/dsp/modulation/LFO.hpp ****         setFrequency(frequency);
  21:Dattorro/dsp/modulation/LFO.hpp ****         setRevPoint(0.5);
  22:Dattorro/dsp/modulation/LFO.hpp ****     }
  23:Dattorro/dsp/modulation/LFO.hpp **** 
  24:Dattorro/dsp/modulation/LFO.hpp ****     inline double process() {
  25:Dattorro/dsp/modulation/LFO.hpp ****         if(_step > 1.0) {
  26:Dattorro/dsp/modulation/LFO.hpp ****             _step -= 1.0;
  27:Dattorro/dsp/modulation/LFO.hpp ****             _rising = true;
  28:Dattorro/dsp/modulation/LFO.hpp ****         }
  29:Dattorro/dsp/modulation/LFO.hpp **** 
  30:Dattorro/dsp/modulation/LFO.hpp ****         if(_step >= _revPoint) {
  31:Dattorro/dsp/modulation/LFO.hpp ****             _rising = false;
  32:Dattorro/dsp/modulation/LFO.hpp ****         }
  33:Dattorro/dsp/modulation/LFO.hpp **** 
  34:Dattorro/dsp/modulation/LFO.hpp ****         if(_rising) {
  35:Dattorro/dsp/modulation/LFO.hpp ****             _output = _step * _riseRate;
  36:Dattorro/dsp/modulation/LFO.hpp ****         }
  37:Dattorro/dsp/modulation/LFO.hpp ****         else {
  38:Dattorro/dsp/modulation/LFO.hpp ****             _output = _step * _fallRate - _fallRate;
  39:Dattorro/dsp/modulation/LFO.hpp ****         }
  40:Dattorro/dsp/modulation/LFO.hpp **** 
  41:Dattorro/dsp/modulation/LFO.hpp ****         _step += _stepSize;
  42:Dattorro/dsp/modulation/LFO.hpp ****         _output *= 2.0;
  43:Dattorro/dsp/modulation/LFO.hpp ****         _output -= 1.0;
  44:Dattorro/dsp/modulation/LFO.hpp ****         return _output;
  45:Dattorro/dsp/modulation/LFO.hpp ****     }
  46:Dattorro/dsp/modulation/LFO.hpp **** 
  47:Dattorro/dsp/modulation/LFO.hpp ****     inline void setFrequency(const double &frequency) {
  48:Dattorro/dsp/modulation/LFO.hpp ****         if (frequency == _frequency) {
 1207              		.loc 5 48 9 view .LVU348
 1208 0008 90ED2E6B 		vldr.64	d6, [r0, #184]
 1209              	.LBE377:
 1210              	.LBE376:
 147:Dattorro/Dattorro.cpp ****     lfo2.setFrequency(lfo2Freq * newModSpeed);
 1211              		.loc 1 147 32 view .LVU349
 1212 000c B7EEC77A 		vcvt.f64.f32	d7, s14
 1213              	.LVL30:
 1214              	.LBB383:
 1215              	.LBI376:
  47:Dattorro/dsp/modulation/LFO.hpp ****         if (frequency == _frequency) {
 1216              		.loc 5 47 17 is_stmt 1 view .LVU350
 1217              	.LBB382:
ARM GAS  /tmp/cc8r9C7y.s 			page 37


 1218              		.loc 5 48 9 view .LVU351
 1219 0010 B4EE467B 		vcmp.f64	d7, d6
 1220 0014 F1EE10FA 		vmrs	APSR_nzcv, FPSCR
 1221 0018 07D0     		beq	.L68
  49:Dattorro/dsp/modulation/LFO.hpp ****             return;
  50:Dattorro/dsp/modulation/LFO.hpp ****         }
  51:Dattorro/dsp/modulation/LFO.hpp ****         _frequency = frequency;
 1222              		.loc 5 51 9 view .LVU352
 1223              	.LBB378:
 1224              	.LBB379:
  52:Dattorro/dsp/modulation/LFO.hpp ****         calcStepSize();
  53:Dattorro/dsp/modulation/LFO.hpp ****     }
  54:Dattorro/dsp/modulation/LFO.hpp **** 
  55:Dattorro/dsp/modulation/LFO.hpp ****     inline void setRevPoint(const double &revPoint) {
  56:Dattorro/dsp/modulation/LFO.hpp ****         _revPoint = revPoint;
  57:Dattorro/dsp/modulation/LFO.hpp ****         if(_revPoint < 0.0001) {
  58:Dattorro/dsp/modulation/LFO.hpp ****             _revPoint = 0.0001;
  59:Dattorro/dsp/modulation/LFO.hpp ****         }
  60:Dattorro/dsp/modulation/LFO.hpp ****         if(_revPoint > 0.999) {
  61:Dattorro/dsp/modulation/LFO.hpp ****             _revPoint = 0.999;
  62:Dattorro/dsp/modulation/LFO.hpp ****         }
  63:Dattorro/dsp/modulation/LFO.hpp **** 
  64:Dattorro/dsp/modulation/LFO.hpp ****         _riseRate = 1.0 / _revPoint;
  65:Dattorro/dsp/modulation/LFO.hpp ****         _fallRate = -1.0 / (1.0 - _revPoint);
  66:Dattorro/dsp/modulation/LFO.hpp ****     }
  67:Dattorro/dsp/modulation/LFO.hpp **** 
  68:Dattorro/dsp/modulation/LFO.hpp ****     void setSamplerate(double sampleRate) {
  69:Dattorro/dsp/modulation/LFO.hpp ****         _sampleRate = sampleRate;
  70:Dattorro/dsp/modulation/LFO.hpp ****         _1_sampleRate = 1 / sampleRate;
  71:Dattorro/dsp/modulation/LFO.hpp ****         calcStepSize();
  72:Dattorro/dsp/modulation/LFO.hpp ****     }
  73:Dattorro/dsp/modulation/LFO.hpp **** 
  74:Dattorro/dsp/modulation/LFO.hpp ****     inline double getOutput() const {
  75:Dattorro/dsp/modulation/LFO.hpp ****         return _output;
  76:Dattorro/dsp/modulation/LFO.hpp ****     }
  77:Dattorro/dsp/modulation/LFO.hpp **** 
  78:Dattorro/dsp/modulation/LFO.hpp ****     double phase;
  79:Dattorro/dsp/modulation/LFO.hpp **** 
  80:Dattorro/dsp/modulation/LFO.hpp **** private:
  81:Dattorro/dsp/modulation/LFO.hpp ****     double _output;
  82:Dattorro/dsp/modulation/LFO.hpp ****     double _sampleRate;
  83:Dattorro/dsp/modulation/LFO.hpp ****     double _1_sampleRate;
  84:Dattorro/dsp/modulation/LFO.hpp ****     double _frequency = 0.0;
  85:Dattorro/dsp/modulation/LFO.hpp ****     double _revPoint;
  86:Dattorro/dsp/modulation/LFO.hpp ****     double _riseRate;
  87:Dattorro/dsp/modulation/LFO.hpp ****     double _fallRate;
  88:Dattorro/dsp/modulation/LFO.hpp ****     double _step;
  89:Dattorro/dsp/modulation/LFO.hpp ****     double _stepSize;
  90:Dattorro/dsp/modulation/LFO.hpp ****     bool _rising;
  91:Dattorro/dsp/modulation/LFO.hpp **** 
  92:Dattorro/dsp/modulation/LFO.hpp ****     inline void calcStepSize() {
  93:Dattorro/dsp/modulation/LFO.hpp ****         // _stepSize = _frequency / _sampleRate;
  94:Dattorro/dsp/modulation/LFO.hpp ****         _stepSize = _frequency * _1_sampleRate;
 1225              		.loc 5 94 32 is_stmt 0 view .LVU353
 1226 001a 90ED2C6B 		vldr.64	d6, [r0, #176]
 1227              	.LBE379:
 1228              	.LBE378:
ARM GAS  /tmp/cc8r9C7y.s 			page 38


  51:Dattorro/dsp/modulation/LFO.hpp ****         calcStepSize();
 1229              		.loc 5 51 20 view .LVU354
 1230 001e 80ED2E7B 		vstr.64	d7, [r0, #184]
  52:Dattorro/dsp/modulation/LFO.hpp ****         calcStepSize();
 1231              		.loc 5 52 9 is_stmt 1 view .LVU355
 1232              	.LVL31:
 1233              	.LBB381:
 1234              	.LBI378:
  92:Dattorro/dsp/modulation/LFO.hpp ****         // _stepSize = _frequency / _sampleRate;
 1235              		.loc 5 92 17 view .LVU356
 1236              	.LBB380:
 1237              		.loc 5 94 9 view .LVU357
 1238              		.loc 5 94 32 is_stmt 0 view .LVU358
 1239 0022 26EE076B 		vmul.f64	d6, d6, d7
 1240              		.loc 5 94 19 view .LVU359
 1241 0026 80ED386B 		vstr.64	d6, [r0, #224]
 1242              	.LVL32:
 1243              	.L68:
 1244              		.loc 5 94 19 view .LVU360
 1245              	.LBE380:
 1246              	.LBE381:
 1247              	.LBE382:
 1248              	.LBE383:
 148:Dattorro/Dattorro.cpp ****     lfo3.setFrequency(lfo3Freq * newModSpeed);
 1249              		.loc 1 148 5 is_stmt 1 view .LVU361
 148:Dattorro/Dattorro.cpp ****     lfo3.setFrequency(lfo3Freq * newModSpeed);
 1250              		.loc 1 148 32 is_stmt 0 view .LVU362
 1251 002a 9FED217A 		vldr.32	s14, .L72+4
 1252 002e 20EE077A 		vmul.f32	s14, s0, s14
 1253              	.LBB384:
 1254              	.LBB385:
  48:Dattorro/dsp/modulation/LFO.hpp ****             return;
 1255              		.loc 5 48 9 view .LVU363
 1256 0032 90ED446B 		vldr.64	d6, [r0, #272]
 1257              	.LBE385:
 1258              	.LBE384:
 148:Dattorro/Dattorro.cpp ****     lfo3.setFrequency(lfo3Freq * newModSpeed);
 1259              		.loc 1 148 32 view .LVU364
 1260 0036 B7EEC77A 		vcvt.f64.f32	d7, s14
 1261              	.LVL33:
 1262              	.LBB391:
 1263              	.LBI384:
  47:Dattorro/dsp/modulation/LFO.hpp ****         if (frequency == _frequency) {
 1264              		.loc 5 47 17 is_stmt 1 view .LVU365
 1265              	.LBB390:
  48:Dattorro/dsp/modulation/LFO.hpp ****             return;
 1266              		.loc 5 48 9 view .LVU366
 1267 003a B4EE467B 		vcmp.f64	d7, d6
 1268 003e F1EE10FA 		vmrs	APSR_nzcv, FPSCR
 1269 0042 07D0     		beq	.L69
  51:Dattorro/dsp/modulation/LFO.hpp ****         calcStepSize();
 1270              		.loc 5 51 9 view .LVU367
 1271              	.LBB386:
 1272              	.LBB387:
 1273              		.loc 5 94 32 is_stmt 0 view .LVU368
 1274 0044 90ED426B 		vldr.64	d6, [r0, #264]
 1275              	.LBE387:
ARM GAS  /tmp/cc8r9C7y.s 			page 39


 1276              	.LBE386:
  51:Dattorro/dsp/modulation/LFO.hpp ****         calcStepSize();
 1277              		.loc 5 51 20 view .LVU369
 1278 0048 80ED447B 		vstr.64	d7, [r0, #272]
  52:Dattorro/dsp/modulation/LFO.hpp ****     }
 1279              		.loc 5 52 9 is_stmt 1 view .LVU370
 1280              	.LVL34:
 1281              	.LBB389:
 1282              	.LBI386:
  92:Dattorro/dsp/modulation/LFO.hpp ****         // _stepSize = _frequency / _sampleRate;
 1283              		.loc 5 92 17 view .LVU371
 1284              	.LBB388:
 1285              		.loc 5 94 9 view .LVU372
 1286              		.loc 5 94 32 is_stmt 0 view .LVU373
 1287 004c 26EE076B 		vmul.f64	d6, d6, d7
 1288              		.loc 5 94 19 view .LVU374
 1289 0050 80ED4E6B 		vstr.64	d6, [r0, #312]
 1290              	.LVL35:
 1291              	.L69:
 1292              		.loc 5 94 19 view .LVU375
 1293              	.LBE388:
 1294              	.LBE389:
 1295              	.LBE390:
 1296              	.LBE391:
 149:Dattorro/Dattorro.cpp ****     lfo4.setFrequency(lfo4Freq * newModSpeed);
 1297              		.loc 1 149 5 is_stmt 1 view .LVU376
 149:Dattorro/Dattorro.cpp ****     lfo4.setFrequency(lfo4Freq * newModSpeed);
 1298              		.loc 1 149 32 is_stmt 0 view .LVU377
 1299 0054 9FED177A 		vldr.32	s14, .L72+8
 1300 0058 20EE077A 		vmul.f32	s14, s0, s14
 1301              	.LBB392:
 1302              	.LBB393:
  48:Dattorro/dsp/modulation/LFO.hpp ****             return;
 1303              		.loc 5 48 9 view .LVU378
 1304 005c 90ED5A6B 		vldr.64	d6, [r0, #360]
 1305              	.LBE393:
 1306              	.LBE392:
 149:Dattorro/Dattorro.cpp ****     lfo4.setFrequency(lfo4Freq * newModSpeed);
 1307              		.loc 1 149 32 view .LVU379
 1308 0060 B7EEC77A 		vcvt.f64.f32	d7, s14
 1309              	.LVL36:
 1310              	.LBB399:
 1311              	.LBI392:
  47:Dattorro/dsp/modulation/LFO.hpp ****         if (frequency == _frequency) {
 1312              		.loc 5 47 17 is_stmt 1 view .LVU380
 1313              	.LBB398:
  48:Dattorro/dsp/modulation/LFO.hpp ****             return;
 1314              		.loc 5 48 9 view .LVU381
 1315 0064 B4EE467B 		vcmp.f64	d7, d6
 1316 0068 F1EE10FA 		vmrs	APSR_nzcv, FPSCR
 1317 006c 07D0     		beq	.L70
  51:Dattorro/dsp/modulation/LFO.hpp ****         calcStepSize();
 1318              		.loc 5 51 9 view .LVU382
 1319              	.LBB394:
 1320              	.LBB395:
 1321              		.loc 5 94 32 is_stmt 0 view .LVU383
 1322 006e 90ED586B 		vldr.64	d6, [r0, #352]
ARM GAS  /tmp/cc8r9C7y.s 			page 40


 1323              	.LBE395:
 1324              	.LBE394:
  51:Dattorro/dsp/modulation/LFO.hpp ****         calcStepSize();
 1325              		.loc 5 51 20 view .LVU384
 1326 0072 80ED5A7B 		vstr.64	d7, [r0, #360]
  52:Dattorro/dsp/modulation/LFO.hpp ****     }
 1327              		.loc 5 52 9 is_stmt 1 view .LVU385
 1328              	.LVL37:
 1329              	.LBB397:
 1330              	.LBI394:
  92:Dattorro/dsp/modulation/LFO.hpp ****         // _stepSize = _frequency / _sampleRate;
 1331              		.loc 5 92 17 view .LVU386
 1332              	.LBB396:
 1333              		.loc 5 94 9 view .LVU387
 1334              		.loc 5 94 32 is_stmt 0 view .LVU388
 1335 0076 26EE076B 		vmul.f64	d6, d6, d7
 1336              		.loc 5 94 19 view .LVU389
 1337 007a 80ED646B 		vstr.64	d6, [r0, #400]
 1338              	.LVL38:
 1339              	.L70:
 1340              		.loc 5 94 19 view .LVU390
 1341              	.LBE396:
 1342              	.LBE397:
 1343              	.LBE398:
 1344              	.LBE399:
 150:Dattorro/Dattorro.cpp **** }
 1345              		.loc 1 150 5 is_stmt 1 view .LVU391
 150:Dattorro/Dattorro.cpp **** }
 1346              		.loc 1 150 32 is_stmt 0 view .LVU392
 1347 007e DFED0E6A 		vldr.32	s13, .L72+12
 1348 0082 20EE260A 		vmul.f32	s0, s0, s13
 1349              	.LVL39:
 1350              	.LBB400:
 1351              	.LBB401:
  48:Dattorro/dsp/modulation/LFO.hpp ****             return;
 1352              		.loc 5 48 9 view .LVU393
 1353 0086 90ED707B 		vldr.64	d7, [r0, #448]
 1354              	.LBE401:
 1355              	.LBE400:
 150:Dattorro/Dattorro.cpp **** }
 1356              		.loc 1 150 32 view .LVU394
 1357 008a B7EEC00A 		vcvt.f64.f32	d0, s0
 1358              	.LVL40:
 1359              	.LBB407:
 1360              	.LBI400:
  47:Dattorro/dsp/modulation/LFO.hpp ****         if (frequency == _frequency) {
 1361              		.loc 5 47 17 is_stmt 1 view .LVU395
 1362              	.LBB406:
  48:Dattorro/dsp/modulation/LFO.hpp ****             return;
 1363              		.loc 5 48 9 view .LVU396
 1364 008e B4EE470B 		vcmp.f64	d0, d7
 1365 0092 F1EE10FA 		vmrs	APSR_nzcv, FPSCR
 1366 0096 07D0     		beq	.L67
  51:Dattorro/dsp/modulation/LFO.hpp ****         calcStepSize();
 1367              		.loc 5 51 9 view .LVU397
 1368              	.LBB402:
 1369              	.LBB403:
ARM GAS  /tmp/cc8r9C7y.s 			page 41


 1370              		.loc 5 94 32 is_stmt 0 view .LVU398
 1371 0098 90ED6E7B 		vldr.64	d7, [r0, #440]
 1372              	.LBE403:
 1373              	.LBE402:
  51:Dattorro/dsp/modulation/LFO.hpp ****         calcStepSize();
 1374              		.loc 5 51 20 view .LVU399
 1375 009c 80ED700B 		vstr.64	d0, [r0, #448]
  52:Dattorro/dsp/modulation/LFO.hpp ****     }
 1376              		.loc 5 52 9 is_stmt 1 view .LVU400
 1377              	.LVL41:
 1378              	.LBB405:
 1379              	.LBI402:
  92:Dattorro/dsp/modulation/LFO.hpp ****         // _stepSize = _frequency / _sampleRate;
 1380              		.loc 5 92 17 view .LVU401
 1381              	.LBB404:
 1382              		.loc 5 94 9 view .LVU402
 1383              		.loc 5 94 32 is_stmt 0 view .LVU403
 1384 00a0 27EE007B 		vmul.f64	d7, d7, d0
 1385              		.loc 5 94 19 view .LVU404
 1386 00a4 80ED7A7B 		vstr.64	d7, [r0, #488]
 1387              	.LVL42:
 1388              	.L67:
 1389              		.loc 5 94 19 view .LVU405
 1390              	.LBE404:
 1391              	.LBE405:
 1392              	.LBE406:
 1393              	.LBE407:
 151:Dattorro/Dattorro.cpp **** 
 1394              		.loc 1 151 1 view .LVU406
 1395 00a8 7047     		bx	lr
 1396              	.L73:
 1397 00aa 00BF     		.align	2
 1398              	.L72:
 1399 00ac CDCCCC3D 		.word	1036831949
 1400 00b0 9A99193E 		.word	1041865114
 1401 00b4 8FC2F53D 		.word	1039516303
 1402 00b8 EC51383E 		.word	1043878380
 1403              		.cfi_endproc
 1404              	.LFE2991:
 1406              		.section	.text._ZN16Dattorro1997Tank11setModDepthEf,"ax",%progbits
 1407              		.align	1
 1408              		.p2align 2,,3
 1409              		.global	_ZN16Dattorro1997Tank11setModDepthEf
 1410              		.syntax unified
 1411              		.thumb
 1412              		.thumb_func
 1414              	_ZN16Dattorro1997Tank11setModDepthEf:
 1415              	.LVL43:
 1416              	.LFB2992:
 153:Dattorro/Dattorro.cpp ****     modDepth = newModDepth;
 1417              		.loc 1 153 61 is_stmt 1 view -0
 1418              		.cfi_startproc
 1419              		@ args = 0, pretend = 0, frame = 0
 1420              		@ frame_needed = 0, uses_anonymous_args = 0
 1421              		@ link register save eliminated.
 154:Dattorro/Dattorro.cpp ****     lfoExcursion = newModDepth * lfoMaxExcursion * sampleRateScale;
 1422              		.loc 1 154 5 view .LVU408
ARM GAS  /tmp/cc8r9C7y.s 			page 42


 155:Dattorro/Dattorro.cpp **** }
 1423              		.loc 1 155 32 is_stmt 0 view .LVU409
 1424 0000 F3EE007A 		vmov.f32	s15, #1.6e+1
 155:Dattorro/Dattorro.cpp **** }
 1425              		.loc 1 155 50 view .LVU410
 1426 0004 90ED197A 		vldr.32	s14, [r0, #100]
 154:Dattorro/Dattorro.cpp ****     lfoExcursion = newModDepth * lfoMaxExcursion * sampleRateScale;
 1427              		.loc 1 154 14 view .LVU411
 1428 0008 80ED1C0A 		vstr.32	s0, [r0, #112]
 155:Dattorro/Dattorro.cpp **** }
 1429              		.loc 1 155 5 is_stmt 1 view .LVU412
 155:Dattorro/Dattorro.cpp **** }
 1430              		.loc 1 155 32 is_stmt 0 view .LVU413
 1431 000c 60EE277A 		vmul.f32	s15, s0, s15
 155:Dattorro/Dattorro.cpp **** }
 1432              		.loc 1 155 50 view .LVU414
 1433 0010 67EE877A 		vmul.f32	s15, s15, s14
 155:Dattorro/Dattorro.cpp **** }
 1434              		.loc 1 155 18 view .LVU415
 1435 0014 C0ED1F7A 		vstr.32	s15, [r0, #124]
 156:Dattorro/Dattorro.cpp **** 
 1436              		.loc 1 156 1 view .LVU416
 1437 0018 7047     		bx	lr
 1438              		.cfi_endproc
 1439              	.LFE2992:
 1441 001a 00BF     		.section	.text._ZN16Dattorro1997Tank11setModShapeEf,"ax",%progbits
 1442              		.align	1
 1443              		.p2align 2,,3
 1444              		.global	_ZN16Dattorro1997Tank11setModShapeEf
 1445              		.syntax unified
 1446              		.thumb
 1447              		.thumb_func
 1449              	_ZN16Dattorro1997Tank11setModShapeEf:
 1450              	.LVL44:
 1451              	.LFB2993:
 158:Dattorro/Dattorro.cpp ****     lfo1.setRevPoint(shape);
 1452              		.loc 1 158 55 is_stmt 1 view -0
 1453              		.cfi_startproc
 1454              		@ args = 0, pretend = 0, frame = 0
 1455              		@ frame_needed = 0, uses_anonymous_args = 0
 1456              		@ link register save eliminated.
 159:Dattorro/Dattorro.cpp ****     lfo2.setRevPoint(shape);
 1457              		.loc 1 159 5 view .LVU418
 1458              	.LBB416:
 1459              	.LBB417:
  57:Dattorro/dsp/modulation/LFO.hpp ****             _revPoint = 0.0001;
 1460              		.loc 5 57 9 is_stmt 0 view .LVU419
 1461 0000 9FED4F7B 		vldr.64	d7, .L91
 1462              	.LBE417:
 1463              	.LBE416:
 159:Dattorro/Dattorro.cpp ****     lfo2.setRevPoint(shape);
 1464              		.loc 1 159 22 view .LVU420
 1465 0004 B7EEC00A 		vcvt.f64.f32	d0, s0
 1466              	.LVL45:
 1467              	.LBB423:
 1468              	.LBI416:
  55:Dattorro/dsp/modulation/LFO.hpp ****         _revPoint = revPoint;
ARM GAS  /tmp/cc8r9C7y.s 			page 43


 1469              		.loc 5 55 17 is_stmt 1 view .LVU421
 1470              	.LBB418:
  56:Dattorro/dsp/modulation/LFO.hpp ****         if(_revPoint < 0.0001) {
 1471              		.loc 5 56 9 view .LVU422
  57:Dattorro/dsp/modulation/LFO.hpp ****             _revPoint = 0.0001;
 1472              		.loc 5 57 9 view .LVU423
 1473              	.LBE418:
 1474              	.LBE423:
 158:Dattorro/Dattorro.cpp ****     lfo1.setRevPoint(shape);
 1475              		.loc 1 158 55 is_stmt 0 view .LVU424
 1476 0008 2DED0A8B 		vpush.64	{d8, d9, d10, d11, d12}
 1477              		.cfi_def_cfa_offset 40
 1478              		.cfi_offset 80, -40
 1479              		.cfi_offset 81, -36
 1480              		.cfi_offset 82, -32
 1481              		.cfi_offset 83, -28
 1482              		.cfi_offset 84, -24
 1483              		.cfi_offset 85, -20
 1484              		.cfi_offset 86, -16
 1485              		.cfi_offset 87, -12
 1486              		.cfi_offset 88, -8
 1487              		.cfi_offset 89, -4
 1488              	.LBB424:
 1489              	.LBB419:
  57:Dattorro/dsp/modulation/LFO.hpp ****             _revPoint = 0.0001;
 1490              		.loc 5 57 9 view .LVU425
 1491 000c B4EEC70B 		vcmpe.f64	d0, d7
 1492 0010 F1EE10FA 		vmrs	APSR_nzcv, FPSCR
 1493 0014 37D4     		bmi	.L81
  60:Dattorro/dsp/modulation/LFO.hpp ****             _revPoint = 0.999;
 1494              		.loc 5 60 9 is_stmt 1 view .LVU426
 1495 0016 9FED4C7B 		vldr.64	d7, .L91+8
 1496 001a B4EEC70B 		vcmpe.f64	d0, d7
 1497 001e F1EE10FA 		vmrs	APSR_nzcv, FPSCR
 1498 0022 58DD     		ble	.L87
 1499 0024 B0EE475B 		vmov.f64	d5, d7
 1500 0028 B0EE476B 		vmov.f64	d6, d7
 1501              	.LBE419:
 1502              	.LBE424:
 1503              	.LBB425:
 1504              	.LBB426:
  61:Dattorro/dsp/modulation/LFO.hpp ****         }
 1505              		.loc 5 61 23 is_stmt 0 view .LVU427
 1506 002c B0EE470B 		vmov.f64	d0, d7
 1507              	.LBE426:
 1508              	.LBE425:
 1509              	.LBB430:
 1510              	.LBB420:
 1511 0030 9FED473B 		vldr.64	d3, .L91+16
 1512 0034 9FED484B 		vldr.64	d4, .L91+24
 1513 0038 B0EE438B 		vmov.f64	d8, d3
 1514 003c B0EE441B 		vmov.f64	d1, d4
 1515 0040 B0EE432B 		vmov.f64	d2, d3
 1516 0044 B0EE449B 		vmov.f64	d9, d4
 1517 0048 B0EE44BB 		vmov.f64	d11, d4
 1518 004c B0EE43AB 		vmov.f64	d10, d3
 1519              	.LVL46:
ARM GAS  /tmp/cc8r9C7y.s 			page 44


 1520              	.L77:
  61:Dattorro/dsp/modulation/LFO.hpp ****         }
 1521              		.loc 5 61 23 view .LVU428
 1522              	.LBE420:
 1523              	.LBE430:
 1524              	.LBB431:
 1525              	.LBB432:
  64:Dattorro/dsp/modulation/LFO.hpp ****         _fallRate = -1.0 / (1.0 - _revPoint);
 1526              		.loc 5 64 19 view .LVU429
 1527 0050 80ED488B 		vstr.64	d8, [r0, #288]
 1528              	.LBE432:
 1529              	.LBE431:
 1530              	.LBB435:
 1531              	.LBB436:
  65:Dattorro/dsp/modulation/LFO.hpp ****     }
 1532              		.loc 5 65 19 view .LVU430
 1533 0054 80ED609B 		vstr.64	d9, [r0, #384]
 1534              	.LBE436:
 1535              	.LBE435:
 1536              	.LBB439:
 1537              	.LBB427:
  64:Dattorro/dsp/modulation/LFO.hpp ****         _fallRate = -1.0 / (1.0 - _revPoint);
 1538              		.loc 5 64 19 view .LVU431
 1539 0058 80ED74AB 		vstr.64	d10, [r0, #464]
  65:Dattorro/dsp/modulation/LFO.hpp ****     }
 1540              		.loc 5 65 19 view .LVU432
 1541 005c 80ED76BB 		vstr.64	d11, [r0, #472]
 1542 0060 80ED307B 		vstr.64	d7, [r0, #192]
 1543              	.LBE427:
 1544              	.LBE439:
 163:Dattorro/Dattorro.cpp **** 
 1545              		.loc 1 163 1 view .LVU433
 1546 0064 BDEC0A8B 		vldm	sp!, {d8-d12}
 1547              		.cfi_remember_state
 1548              		.cfi_restore 88
 1549              		.cfi_restore 89
 1550              		.cfi_restore 86
 1551              		.cfi_restore 87
 1552              		.cfi_restore 84
 1553              		.cfi_restore 85
 1554              		.cfi_restore 82
 1555              		.cfi_restore 83
 1556              		.cfi_restore 80
 1557              		.cfi_restore 81
 1558              		.cfi_def_cfa_offset 0
 1559              	.LBB440:
 1560              	.LBB421:
  64:Dattorro/dsp/modulation/LFO.hpp ****         _fallRate = -1.0 / (1.0 - _revPoint);
 1561              		.loc 5 64 19 view .LVU434
 1562 0068 80ED323B 		vstr.64	d3, [r0, #200]
  65:Dattorro/dsp/modulation/LFO.hpp ****     }
 1563              		.loc 5 65 19 view .LVU435
 1564 006c 80ED344B 		vstr.64	d4, [r0, #208]
 1565 0070 80ED465B 		vstr.64	d5, [r0, #280]
 1566              	.LBE421:
 1567              	.LBE440:
 1568              	.LBB441:
ARM GAS  /tmp/cc8r9C7y.s 			page 45


 1569              	.LBB433:
 1570 0074 80ED4A1B 		vstr.64	d1, [r0, #296]
 1571 0078 80ED5C6B 		vstr.64	d6, [r0, #368]
 1572              	.LBE433:
 1573              	.LBE441:
 1574              	.LBB442:
 1575              	.LBB437:
  64:Dattorro/dsp/modulation/LFO.hpp ****         _fallRate = -1.0 / (1.0 - _revPoint);
 1576              		.loc 5 64 19 view .LVU436
 1577 007c 80ED5E2B 		vstr.64	d2, [r0, #376]
 1578 0080 80ED720B 		vstr.64	d0, [r0, #456]
 1579              	.LBE437:
 1580              	.LBE442:
 1581              	.LBB443:
 1582              	.LBB428:
  64:Dattorro/dsp/modulation/LFO.hpp ****         _fallRate = -1.0 / (1.0 - _revPoint);
 1583              		.loc 5 64 9 is_stmt 1 view .LVU437
  65:Dattorro/dsp/modulation/LFO.hpp ****     }
 1584              		.loc 5 65 9 view .LVU438
 1585              	.LBE428:
 1586              	.LBE443:
 163:Dattorro/Dattorro.cpp **** 
 1587              		.loc 1 163 1 is_stmt 0 view .LVU439
 1588 0084 7047     		bx	lr
 1589              	.LVL47:
 1590              	.L81:
 1591              		.cfi_restore_state
 1592              	.LBB444:
 1593              	.LBB422:
 163:Dattorro/Dattorro.cpp **** 
 1594              		.loc 1 163 1 view .LVU440
 1595 0086 9FED364B 		vldr.64	d4, .L91+32
 1596 008a 9FED373B 		vldr.64	d3, .L91+40
 1597              	.L76:
  64:Dattorro/dsp/modulation/LFO.hpp ****         _fallRate = -1.0 / (1.0 - _revPoint);
 1598              		.loc 5 64 9 is_stmt 1 view .LVU441
  65:Dattorro/dsp/modulation/LFO.hpp ****     }
 1599              		.loc 5 65 9 view .LVU442
 1600              	.LVL48:
  65:Dattorro/dsp/modulation/LFO.hpp ****     }
 1601              		.loc 5 65 9 is_stmt 0 view .LVU443
 1602              	.LBE422:
 1603              	.LBE444:
 160:Dattorro/Dattorro.cpp ****     lfo3.setRevPoint(shape);
 1604              		.loc 1 160 5 is_stmt 1 view .LVU444
 1605              	.LBB445:
 1606              	.LBI431:
  55:Dattorro/dsp/modulation/LFO.hpp ****         _revPoint = revPoint;
 1607              		.loc 5 55 17 view .LVU445
 1608              	.LBB434:
  56:Dattorro/dsp/modulation/LFO.hpp ****         if(_revPoint < 0.0001) {
 1609              		.loc 5 56 9 view .LVU446
  57:Dattorro/dsp/modulation/LFO.hpp ****             _revPoint = 0.0001;
 1610              		.loc 5 57 9 view .LVU447
 1611 008e 9FED2C5B 		vldr.64	d5, .L91
 1612 0092 B4EEC50B 		vcmpe.f64	d0, d5
 1613 0096 F1EE10FA 		vmrs	APSR_nzcv, FPSCR
ARM GAS  /tmp/cc8r9C7y.s 			page 46


 1614 009a 41D5     		bpl	.L88
 1615 009c 9FED301B 		vldr.64	d1, .L91+32
 1616 00a0 9FED318B 		vldr.64	d8, .L91+40
 1617              	.LVL49:
 1618              	.L78:
  64:Dattorro/dsp/modulation/LFO.hpp ****         _fallRate = -1.0 / (1.0 - _revPoint);
 1619              		.loc 5 64 9 view .LVU448
  65:Dattorro/dsp/modulation/LFO.hpp ****     }
 1620              		.loc 5 65 9 view .LVU449
  65:Dattorro/dsp/modulation/LFO.hpp ****     }
 1621              		.loc 5 65 9 is_stmt 0 view .LVU450
 1622              	.LBE434:
 1623              	.LBE445:
 161:Dattorro/Dattorro.cpp ****     lfo4.setRevPoint(shape);
 1624              		.loc 1 161 5 is_stmt 1 view .LVU451
 1625              	.LBB446:
 1626              	.LBI435:
  55:Dattorro/dsp/modulation/LFO.hpp ****         _revPoint = revPoint;
 1627              		.loc 5 55 17 view .LVU452
 1628              	.LBB438:
  56:Dattorro/dsp/modulation/LFO.hpp ****         if(_revPoint < 0.0001) {
 1629              		.loc 5 56 9 view .LVU453
  57:Dattorro/dsp/modulation/LFO.hpp ****             _revPoint = 0.0001;
 1630              		.loc 5 57 9 view .LVU454
 1631 00a4 9FED266B 		vldr.64	d6, .L91
 1632 00a8 B4EEC60B 		vcmpe.f64	d0, d6
 1633 00ac F1EE10FA 		vmrs	APSR_nzcv, FPSCR
 1634 00b0 29D5     		bpl	.L89
 1635 00b2 9FED2B9B 		vldr.64	d9, .L91+32
 1636 00b6 9FED2C2B 		vldr.64	d2, .L91+40
 1637              	.LVL50:
 1638              	.L79:
  64:Dattorro/dsp/modulation/LFO.hpp ****         _fallRate = -1.0 / (1.0 - _revPoint);
 1639              		.loc 5 64 9 view .LVU455
  65:Dattorro/dsp/modulation/LFO.hpp ****     }
 1640              		.loc 5 65 9 view .LVU456
  65:Dattorro/dsp/modulation/LFO.hpp ****     }
 1641              		.loc 5 65 9 is_stmt 0 view .LVU457
 1642              	.LBE438:
 1643              	.LBE446:
 162:Dattorro/Dattorro.cpp **** }
 1644              		.loc 1 162 5 is_stmt 1 view .LVU458
 1645              	.LBB447:
 1646              	.LBI425:
  55:Dattorro/dsp/modulation/LFO.hpp ****         _revPoint = revPoint;
 1647              		.loc 5 55 17 view .LVU459
 1648              	.LBB429:
  56:Dattorro/dsp/modulation/LFO.hpp ****         if(_revPoint < 0.0001) {
 1649              		.loc 5 56 9 view .LVU460
  57:Dattorro/dsp/modulation/LFO.hpp ****             _revPoint = 0.0001;
 1650              		.loc 5 57 9 view .LVU461
 1651 00ba 9FED21AB 		vldr.64	d10, .L91
 1652 00be B4EECA0B 		vcmpe.f64	d0, d10
 1653 00c2 F1EE10FA 		vmrs	APSR_nzcv, FPSCR
 1654 00c6 13D5     		bpl	.L90
  58:Dattorro/dsp/modulation/LFO.hpp ****         }
 1655              		.loc 5 58 23 is_stmt 0 view .LVU462
ARM GAS  /tmp/cc8r9C7y.s 			page 47


 1656 00c8 B0EE4A0B 		vmov.f64	d0, d10
  57:Dattorro/dsp/modulation/LFO.hpp ****             _revPoint = 0.0001;
 1657              		.loc 5 57 9 view .LVU463
 1658 00cc 9FED24BB 		vldr.64	d11, .L91+32
 1659 00d0 9FED25AB 		vldr.64	d10, .L91+40
 1660 00d4 BCE7     		b	.L77
 1661              	.LVL51:
 1662              	.L87:
  64:Dattorro/dsp/modulation/LFO.hpp ****         _fallRate = -1.0 / (1.0 - _revPoint);
 1663              		.loc 5 64 25 view .LVU464
 1664 00d6 B7EE006B 		vmov.f64	d6, #1.0e+0
  65:Dattorro/dsp/modulation/LFO.hpp ****     }
 1665              		.loc 5 65 26 view .LVU465
 1666 00da BFEE002B 		vmov.f64	d2, #-1.0e+0
 1667 00de B0EE407B 		vmov.f64	d7, d0
  65:Dattorro/dsp/modulation/LFO.hpp ****     }
 1668              		.loc 5 65 33 view .LVU466
 1669 00e2 36EE405B 		vsub.f64	d5, d6, d0
  64:Dattorro/dsp/modulation/LFO.hpp ****         _fallRate = -1.0 / (1.0 - _revPoint);
 1670              		.loc 5 64 25 view .LVU467
 1671 00e6 86EE003B 		vdiv.f64	d3, d6, d0
  65:Dattorro/dsp/modulation/LFO.hpp ****     }
 1672              		.loc 5 65 26 view .LVU468
 1673 00ea 82EE054B 		vdiv.f64	d4, d2, d5
 1674 00ee CEE7     		b	.L76
 1675              	.LVL52:
 1676              	.L90:
  65:Dattorro/dsp/modulation/LFO.hpp ****     }
 1677              		.loc 5 65 33 view .LVU469
 1678 00f0 B7EE00CB 		vmov.f64	d12, #1.0e+0
  65:Dattorro/dsp/modulation/LFO.hpp ****     }
 1679              		.loc 5 65 26 view .LVU470
 1680 00f4 BFEE00BB 		vmov.f64	d11, #-1.0e+0
  65:Dattorro/dsp/modulation/LFO.hpp ****     }
 1681              		.loc 5 65 33 view .LVU471
 1682 00f8 3CEE40AB 		vsub.f64	d10, d12, d0
  65:Dattorro/dsp/modulation/LFO.hpp ****     }
 1683              		.loc 5 65 26 view .LVU472
 1684 00fc 8BEE0ABB 		vdiv.f64	d11, d11, d10
  64:Dattorro/dsp/modulation/LFO.hpp ****         _fallRate = -1.0 / (1.0 - _revPoint);
 1685              		.loc 5 64 25 view .LVU473
 1686 0100 8CEE00AB 		vdiv.f64	d10, d12, d0
 1687 0104 A4E7     		b	.L77
 1688              	.LVL53:
 1689              	.L89:
  64:Dattorro/dsp/modulation/LFO.hpp ****         _fallRate = -1.0 / (1.0 - _revPoint);
 1690              		.loc 5 64 25 view .LVU474
 1691 0106 B7EE00BB 		vmov.f64	d11, #1.0e+0
  65:Dattorro/dsp/modulation/LFO.hpp ****     }
 1692              		.loc 5 65 26 view .LVU475
 1693 010a BFEE00AB 		vmov.f64	d10, #-1.0e+0
 1694 010e B0EE406B 		vmov.f64	d6, d0
  65:Dattorro/dsp/modulation/LFO.hpp ****     }
 1695              		.loc 5 65 33 view .LVU476
 1696 0112 3BEE402B 		vsub.f64	d2, d11, d0
  65:Dattorro/dsp/modulation/LFO.hpp ****     }
 1697              		.loc 5 65 26 view .LVU477
ARM GAS  /tmp/cc8r9C7y.s 			page 48


 1698 0116 8AEE029B 		vdiv.f64	d9, d10, d2
  64:Dattorro/dsp/modulation/LFO.hpp ****         _fallRate = -1.0 / (1.0 - _revPoint);
 1699              		.loc 5 64 25 view .LVU478
 1700 011a 8BEE002B 		vdiv.f64	d2, d11, d0
 1701 011e CCE7     		b	.L79
 1702              	.LVL54:
 1703              	.L88:
  64:Dattorro/dsp/modulation/LFO.hpp ****         _fallRate = -1.0 / (1.0 - _revPoint);
 1704              		.loc 5 64 25 view .LVU479
 1705 0120 B7EE006B 		vmov.f64	d6, #1.0e+0
  65:Dattorro/dsp/modulation/LFO.hpp ****     }
 1706              		.loc 5 65 26 view .LVU480
 1707 0124 BFEE009B 		vmov.f64	d9, #-1.0e+0
 1708 0128 B0EE405B 		vmov.f64	d5, d0
  65:Dattorro/dsp/modulation/LFO.hpp ****     }
 1709              		.loc 5 65 33 view .LVU481
 1710 012c 36EE402B 		vsub.f64	d2, d6, d0
  64:Dattorro/dsp/modulation/LFO.hpp ****         _fallRate = -1.0 / (1.0 - _revPoint);
 1711              		.loc 5 64 25 view .LVU482
 1712 0130 86EE008B 		vdiv.f64	d8, d6, d0
  65:Dattorro/dsp/modulation/LFO.hpp ****     }
 1713              		.loc 5 65 26 view .LVU483
 1714 0134 89EE021B 		vdiv.f64	d1, d9, d2
 1715 0138 B4E7     		b	.L78
 1716              	.L92:
 1717 013a 00BFAFF3 		.align	3
 1717      0080
 1718              	.L91:
 1719 0140 2D431CEB 		.word	-350469331
 1720 0144 E2361A3F 		.word	1058682594
 1721 0148 2B8716D9 		.word	-652835029
 1722 014c CEF7EF3F 		.word	1072691150
 1723 0150 420029A0 		.word	-1607925694
 1724 0154 1904F03F 		.word	1072694297
 1725 0158 F8FFFFFF 		.word	-8
 1726 015c FF3F8FC0 		.word	-1064353793
 1727 0160 E5EF3ADE 		.word	-566562843
 1728 0164 6800F0BF 		.word	-1074790296
 1729 0168 00000000 		.word	0
 1730 016c 0088C340 		.word	1086556160
 1731              	.LBE429:
 1732              	.LBE447:
 1733              		.cfi_endproc
 1734              	.LFE2993:
 1736              		.section	.text._ZN16Dattorro1997Tank19setHighCutFrequencyEf,"ax",%progbits
 1737              		.align	1
 1738              		.p2align 2,,3
 1739              		.global	_ZN16Dattorro1997Tank19setHighCutFrequencyEf
 1740              		.syntax unified
 1741              		.thumb
 1742              		.thumb_func
 1744              	_ZN16Dattorro1997Tank19setHighCutFrequencyEf:
 1745              	.LVL55:
 1746              	.LFB2994:
 165:Dattorro/Dattorro.cpp ****     leftHighCutFilter.setCutoffFreq(frequency);
 1747              		.loc 1 165 67 is_stmt 1 view -0
 1748              		.cfi_startproc
ARM GAS  /tmp/cc8r9C7y.s 			page 49


 1749              		@ args = 0, pretend = 0, frame = 8
 1750              		@ frame_needed = 0, uses_anonymous_args = 0
 166:Dattorro/Dattorro.cpp ****     rightHighCutFilter.setCutoffFreq(frequency);
 1751              		.loc 1 166 5 view .LVU485
 165:Dattorro/Dattorro.cpp ****     leftHighCutFilter.setCutoffFreq(frequency);
 1752              		.loc 1 165 67 is_stmt 0 view .LVU486
 1753 0000 10B5     		push	{r4, lr}
 1754              		.cfi_def_cfa_offset 8
 1755              		.cfi_offset 4, -8
 1756              		.cfi_offset 14, -4
 1757 0002 0446     		mov	r4, r0
 1758 0004 82B0     		sub	sp, sp, #8
 1759              		.cfi_def_cfa_offset 16
 166:Dattorro/Dattorro.cpp ****     rightHighCutFilter.setCutoffFreq(frequency);
 1760              		.loc 1 166 36 view .LVU487
 1761 0006 00F51F70 		add	r0, r0, #636
 1762              	.LVL56:
 165:Dattorro/Dattorro.cpp ****     leftHighCutFilter.setCutoffFreq(frequency);
 1763              		.loc 1 165 67 view .LVU488
 1764 000a 8DED010A 		vstr.32	s0, [sp, #4]	@ int
 166:Dattorro/Dattorro.cpp ****     rightHighCutFilter.setCutoffFreq(frequency);
 1765              		.loc 1 166 36 view .LVU489
 1766 000e FFF7FEFF 		bl	_ZN15OnePoleLPFilter13setCutoffFreqEf
 1767              	.LVL57:
 167:Dattorro/Dattorro.cpp **** }
 1768              		.loc 1 167 5 is_stmt 1 view .LVU490
 167:Dattorro/Dattorro.cpp **** }
 1769              		.loc 1 167 37 is_stmt 0 view .LVU491
 1770 0012 9DED010A 		vldr.32	s0, [sp, #4]	@ int
 1771 0016 04F57370 		add	r0, r4, #972
 1772 001a FFF7FEFF 		bl	_ZN15OnePoleLPFilter13setCutoffFreqEf
 1773              	.LVL58:
 168:Dattorro/Dattorro.cpp **** 
 1774              		.loc 1 168 1 view .LVU492
 1775 001e 02B0     		add	sp, sp, #8
 1776              		.cfi_def_cfa_offset 8
 1777              		@ sp needed
 1778 0020 10BD     		pop	{r4, pc}
 168:Dattorro/Dattorro.cpp **** 
 1779              		.loc 1 168 1 view .LVU493
 1780              		.cfi_endproc
 1781              	.LFE2994:
 1783 0022 00BF     		.section	.text._ZN16Dattorro1997Tank18setLowCutFrequencyEf,"ax",%progbits
 1784              		.align	1
 1785              		.p2align 2,,3
 1786              		.global	_ZN16Dattorro1997Tank18setLowCutFrequencyEf
 1787              		.syntax unified
 1788              		.thumb
 1789              		.thumb_func
 1791              	_ZN16Dattorro1997Tank18setLowCutFrequencyEf:
 1792              	.LVL59:
 1793              	.LFB2995:
 170:Dattorro/Dattorro.cpp ****     leftLowCutFilter.setCutoffFreq(frequency);
 1794              		.loc 1 170 66 is_stmt 1 view -0
 1795              		.cfi_startproc
 1796              		@ args = 0, pretend = 0, frame = 8
 1797              		@ frame_needed = 0, uses_anonymous_args = 0
ARM GAS  /tmp/cc8r9C7y.s 			page 50


 171:Dattorro/Dattorro.cpp ****     rightLowCutFilter.setCutoffFreq(frequency);
 1798              		.loc 1 171 5 view .LVU495
 170:Dattorro/Dattorro.cpp ****     leftLowCutFilter.setCutoffFreq(frequency);
 1799              		.loc 1 170 66 is_stmt 0 view .LVU496
 1800 0000 10B5     		push	{r4, lr}
 1801              		.cfi_def_cfa_offset 8
 1802              		.cfi_offset 4, -8
 1803              		.cfi_offset 14, -4
 1804 0002 0446     		mov	r4, r0
 1805 0004 82B0     		sub	sp, sp, #8
 1806              		.cfi_def_cfa_offset 16
 171:Dattorro/Dattorro.cpp ****     rightLowCutFilter.setCutoffFreq(frequency);
 1807              		.loc 1 171 35 view .LVU497
 1808 0006 00F52870 		add	r0, r0, #672
 1809              	.LVL60:
 170:Dattorro/Dattorro.cpp ****     leftLowCutFilter.setCutoffFreq(frequency);
 1810              		.loc 1 170 66 view .LVU498
 1811 000a 8DED010A 		vstr.32	s0, [sp, #4]	@ int
 171:Dattorro/Dattorro.cpp ****     rightLowCutFilter.setCutoffFreq(frequency);
 1812              		.loc 1 171 35 view .LVU499
 1813 000e FFF7FEFF 		bl	_ZN15OnePoleHPFilter13setCutoffFreqEf
 1814              	.LVL61:
 172:Dattorro/Dattorro.cpp **** }
 1815              		.loc 1 172 5 is_stmt 1 view .LVU500
 172:Dattorro/Dattorro.cpp **** }
 1816              		.loc 1 172 36 is_stmt 0 view .LVU501
 1817 0012 9DED010A 		vldr.32	s0, [sp, #4]	@ int
 1818 0016 04F57C70 		add	r0, r4, #1008
 1819 001a FFF7FEFF 		bl	_ZN15OnePoleHPFilter13setCutoffFreqEf
 1820              	.LVL62:
 173:Dattorro/Dattorro.cpp **** 
 1821              		.loc 1 173 1 view .LVU502
 1822 001e 02B0     		add	sp, sp, #8
 1823              		.cfi_def_cfa_offset 8
 1824              		@ sp needed
 1825 0020 10BD     		pop	{r4, pc}
 173:Dattorro/Dattorro.cpp **** 
 1826              		.loc 1 173 1 view .LVU503
 1827              		.cfi_endproc
 1828              	.LFE2995:
 1830 0022 00BF     		.section	.text._ZN16Dattorro1997Tank12setDiffusionEf,"ax",%progbits
 1831              		.align	1
 1832              		.p2align 2,,3
 1833              		.global	_ZN16Dattorro1997Tank12setDiffusionEf
 1834              		.syntax unified
 1835              		.thumb
 1836              		.thumb_func
 1838              	_ZN16Dattorro1997Tank12setDiffusionEf:
 1839              	.LVL63:
 1840              	.LFB2996:
 178:Dattorro/Dattorro.cpp ****     //diffusion1 = scale(diffusion, 0.0, 10.0, 0.0, maxDiffusion1);
 1841              		.loc 1 178 60 is_stmt 1 view -0
 1842              		.cfi_startproc
 1843              		@ args = 0, pretend = 0, frame = 0
 1844              		@ frame_needed = 0, uses_anonymous_args = 0
 1845              		@ link register save eliminated.
 189:Dattorro/Dattorro.cpp ****     leftApf2.setGain(diffusion);
ARM GAS  /tmp/cc8r9C7y.s 			page 51


 1846              		.loc 1 189 5 view .LVU505
 189:Dattorro/Dattorro.cpp ****     leftApf2.setGain(diffusion);
 1847              		.loc 1 189 22 is_stmt 0 view .LVU506
 1848 0000 F1EE407A 		vneg.f32	s15, s0
 1849              	.LVL64:
 1850              	.LBB448:
 1851              	.LBI448:
  34:Dattorro/dsp/delays/AllpassFilter.hpp **** 
  35:Dattorro/dsp/delays/AllpassFilter.hpp ****     #pragma GCC pop_options
  36:Dattorro/dsp/delays/AllpassFilter.hpp **** 
  37:Dattorro/dsp/delays/AllpassFilter.hpp ****     void clear() {
  38:Dattorro/dsp/delays/AllpassFilter.hpp ****         input = 0.;
  39:Dattorro/dsp/delays/AllpassFilter.hpp ****         output = 0.;
  40:Dattorro/dsp/delays/AllpassFilter.hpp ****         _inSum = 0.;
  41:Dattorro/dsp/delays/AllpassFilter.hpp ****         _outSum = 0.;
  42:Dattorro/dsp/delays/AllpassFilter.hpp ****         delay.clear();
  43:Dattorro/dsp/delays/AllpassFilter.hpp ****     }
  44:Dattorro/dsp/delays/AllpassFilter.hpp **** 
  45:Dattorro/dsp/delays/AllpassFilter.hpp ****     inline void setGain(const float &newGain) {
 1852              		.loc 3 45 17 is_stmt 1 view .LVU507
 1853              	.LBB449:
  46:Dattorro/dsp/delays/AllpassFilter.hpp ****         gain = newGain;
 1854              		.loc 3 46 9 view .LVU508
 1855              	.LBE449:
 1856              	.LBE448:
 1857              	.LBB451:
 1858              	.LBB452:
 1859              		.loc 3 46 14 is_stmt 0 view .LVU509
 1860 0004 00F22443 		addw	r3, r0, #1060
 1861              	.LBE452:
 1862              	.LBE451:
 1863              	.LBB454:
 1864              	.LBB455:
 1865 0008 80EDC40A 		vstr.32	s0, [r0, #784]
 1866              	.LBE455:
 1867              	.LBE454:
 1868              	.LBB457:
 1869              	.LBB450:
 1870 000c C0ED8F7A 		vstr.32	s15, [r0, #572]
 1871              	.LVL65:
 1872              		.loc 3 46 14 view .LVU510
 1873              	.LBE450:
 1874              	.LBE457:
 190:Dattorro/Dattorro.cpp ****     rightApf1.setGain(-diffusion);
 1875              		.loc 1 190 5 is_stmt 1 view .LVU511
 1876              	.LBB458:
 1877              	.LBI454:
  45:Dattorro/dsp/delays/AllpassFilter.hpp ****         gain = newGain;
 1878              		.loc 3 45 17 view .LVU512
 1879              	.LBB456:
 1880              		.loc 3 46 9 view .LVU513
 1881              		.loc 3 46 9 is_stmt 0 view .LVU514
 1882              	.LBE456:
 1883              	.LBE458:
 191:Dattorro/Dattorro.cpp ****     rightApf2.setGain(diffusion);
 1884              		.loc 1 191 5 is_stmt 1 view .LVU515
 1885              	.LBB459:
ARM GAS  /tmp/cc8r9C7y.s 			page 52


 1886              	.LBI459:
  45:Dattorro/dsp/delays/AllpassFilter.hpp ****         gain = newGain;
 1887              		.loc 3 45 17 view .LVU516
 1888              	.LBB460:
 1889              		.loc 3 46 9 view .LVU517
 1890              		.loc 3 46 14 is_stmt 0 view .LVU518
 1891 0010 C0EDE37A 		vstr.32	s15, [r0, #908]
 1892              	.LVL66:
 1893              		.loc 3 46 14 view .LVU519
 1894              	.LBE460:
 1895              	.LBE459:
 192:Dattorro/Dattorro.cpp **** }
 1896              		.loc 1 192 5 is_stmt 1 view .LVU520
 1897              	.LBB461:
 1898              	.LBI451:
  45:Dattorro/dsp/delays/AllpassFilter.hpp ****         gain = newGain;
 1899              		.loc 3 45 17 view .LVU521
 1900              	.LBB453:
 1901              		.loc 3 46 9 view .LVU522
 1902              		.loc 3 46 14 is_stmt 0 view .LVU523
 1903 0014 83ED0F0A 		vstr.32	s0, [r3, #60]
 1904              	.LVL67:
 1905              		.loc 3 46 14 view .LVU524
 1906              	.LBE453:
 1907              	.LBE461:
 193:Dattorro/Dattorro.cpp **** 
 1908              		.loc 1 193 1 view .LVU525
 1909 0018 7047     		bx	lr
 1910              		.cfi_endproc
 1911              	.LFE2996:
 1913 001a 00BF     		.section	.text._ZN16Dattorro1997Tank5clearEv,"ax",%progbits
 1914              		.align	1
 1915              		.p2align 2,,3
 1916              		.global	_ZN16Dattorro1997Tank5clearEv
 1917              		.syntax unified
 1918              		.thumb
 1919              		.thumb_func
 1921              	_ZN16Dattorro1997Tank5clearEv:
 1922              	.LVL68:
 1923              	.LFB2997:
 195:Dattorro/Dattorro.cpp ****     leftApf1.clear();
 1924              		.loc 1 195 32 is_stmt 1 view -0
 1925              		.cfi_startproc
 1926              		@ args = 0, pretend = 0, frame = 0
 1927              		@ frame_needed = 0, uses_anonymous_args = 0
 196:Dattorro/Dattorro.cpp ****     leftDelay1.clear();
 1928              		.loc 1 196 5 view .LVU527
 1929              	.LBB506:
 1930              	.LBB507:
 1931              	.LBB508:
 1932              	.LBB509:
 1933              	.LBB510:
 103:Dattorro/dsp/delays/InterpDelay.hpp **** 
 104:Dattorro/dsp/delays/InterpDelay.hpp ****     #pragma GCC pop_options
 105:Dattorro/dsp/delays/InterpDelay.hpp **** 
 106:Dattorro/dsp/delays/InterpDelay.hpp ****     void clear() {
 107:Dattorro/dsp/delays/InterpDelay.hpp ****         // uint32_t **tempPtr = (uint32_t**)sdramData;
ARM GAS  /tmp/cc8r9C7y.s 			page 53


 108:Dattorro/dsp/delays/InterpDelay.hpp ****         for(int i = 0; i < l; ++i) {
 1934              		.loc 2 108 28 is_stmt 0 discriminator 1 view .LVU528
 1935 0000 D0F83422 		ldr	r2, [r0, #564]
 1936              	.LBE510:
 1937              	.LBE509:
 1938              	.LBE508:
  38:Dattorro/dsp/delays/AllpassFilter.hpp ****         output = 0.;
 1939              		.loc 3 38 15 view .LVU529
 1940 0004 0023     		movs	r3, #0
 1941              	.LBB517:
 1942              	.LBB513:
 1943              	.LBB511:
 1944              		.loc 2 108 26 discriminator 1 view .LVU530
 1945 0006 002A     		cmp	r2, #0
 1946              	.LBE511:
 1947              	.LBE513:
 1948              	.LBE517:
 1949              	.LBE507:
 1950              	.LBE506:
 195:Dattorro/Dattorro.cpp ****     leftApf1.clear();
 1951              		.loc 1 195 32 view .LVU531
 1952 0008 10B5     		push	{r4, lr}
 1953              		.cfi_def_cfa_offset 8
 1954              		.cfi_offset 4, -8
 1955              		.cfi_offset 14, -4
 195:Dattorro/Dattorro.cpp ****     leftApf1.clear();
 1956              		.loc 1 195 32 view .LVU532
 1957 000a 0446     		mov	r4, r0
 1958              	.LVL69:
 1959              	.LBB524:
 1960              	.LBI506:
  37:Dattorro/dsp/delays/AllpassFilter.hpp ****         input = 0.;
 1961              		.loc 3 37 10 is_stmt 1 view .LVU533
 1962              	.LBB521:
  38:Dattorro/dsp/delays/AllpassFilter.hpp ****         output = 0.;
 1963              		.loc 3 38 9 view .LVU534
  38:Dattorro/dsp/delays/AllpassFilter.hpp ****         output = 0.;
 1964              		.loc 3 38 15 is_stmt 0 view .LVU535
 1965 000c C0F80032 		str	r3, [r0, #512]	@ float
  39:Dattorro/dsp/delays/AllpassFilter.hpp ****         _inSum = 0.;
 1966              		.loc 3 39 9 is_stmt 1 view .LVU536
  39:Dattorro/dsp/delays/AllpassFilter.hpp ****         _inSum = 0.;
 1967              		.loc 3 39 16 is_stmt 0 view .LVU537
 1968 0010 C0F80432 		str	r3, [r0, #516]	@ float
  40:Dattorro/dsp/delays/AllpassFilter.hpp ****         _outSum = 0.;
 1969              		.loc 3 40 9 is_stmt 1 view .LVU538
  40:Dattorro/dsp/delays/AllpassFilter.hpp ****         _outSum = 0.;
 1970              		.loc 3 40 16 is_stmt 0 view .LVU539
 1971 0014 C0F84032 		str	r3, [r0, #576]	@ float
  41:Dattorro/dsp/delays/AllpassFilter.hpp ****         delay.clear();
 1972              		.loc 3 41 9 is_stmt 1 view .LVU540
  41:Dattorro/dsp/delays/AllpassFilter.hpp ****         delay.clear();
 1973              		.loc 3 41 17 is_stmt 0 view .LVU541
 1974 0018 C0F84432 		str	r3, [r0, #580]	@ float
  42:Dattorro/dsp/delays/AllpassFilter.hpp ****     }
 1975              		.loc 3 42 9 is_stmt 1 view .LVU542
 1976              	.LVL70:
ARM GAS  /tmp/cc8r9C7y.s 			page 54


 1977              	.LBB518:
 1978              	.LBI508:
 106:Dattorro/dsp/delays/InterpDelay.hpp ****         // uint32_t **tempPtr = (uint32_t**)sdramData;
 1979              		.loc 2 106 10 view .LVU543
 1980              	.LBB514:
 1981              		.loc 2 108 9 view .LVU544
 1982              	.LBB512:
 1983              		.loc 2 108 26 discriminator 1 view .LVU545
 1984 001c 09DD     		ble	.L99
 109:Dattorro/dsp/delays/InterpDelay.hpp ****             sdramData[bufferNumber][i] = uint32_t(0);
 1985              		.loc 2 109 40 is_stmt 0 view .LVU546
 1986 001e D0F81012 		ldr	r1, [r0, #528]
 1987 0022 9200     		lsls	r2, r2, #2
 1988 0024 7148     		ldr	r0, .L108
 1989              	.LVL71:
 1990              		.loc 2 109 40 view .LVU547
 1991 0026 724B     		ldr	r3, .L108+4
 1992 0028 00FB0130 		mla	r0, r0, r1, r3
 1993 002c 0021     		movs	r1, #0
 1994 002e FFF7FEFF 		bl	memset
 1995              	.LVL72:
 1996              	.L99:
 1997              		.loc 2 109 40 view .LVU548
 1998              	.LBE512:
 110:Dattorro/dsp/delays/InterpDelay.hpp ****         }
 111:Dattorro/dsp/delays/InterpDelay.hpp ****         input = 0.;
 1999              		.loc 2 111 9 is_stmt 1 view .LVU549
 2000              	.LBE514:
 2001              	.LBE518:
 2002              	.LBE521:
 2003              	.LBE524:
 2004              	.LBB525:
 2005              	.LBB526:
 2006              	.LBB527:
 108:Dattorro/dsp/delays/InterpDelay.hpp ****             sdramData[bufferNumber][i] = uint32_t(0);
 2007              		.loc 2 108 28 is_stmt 0 discriminator 1 view .LVU550
 2008 0032 D4F87422 		ldr	r2, [r4, #628]
 2009              	.LBE527:
 2010              	.LBE526:
 2011              	.LBE525:
 2012              	.LBB534:
 2013              	.LBB522:
 2014              	.LBB519:
 2015              	.LBB515:
 2016              		.loc 2 111 15 view .LVU551
 2017 0036 0023     		movs	r3, #0
 2018              	.LBE515:
 2019              	.LBE519:
 2020              	.LBE522:
 2021              	.LBE534:
 2022              	.LBB535:
 2023              	.LBB530:
 2024              	.LBB528:
 108:Dattorro/dsp/delays/InterpDelay.hpp ****             sdramData[bufferNumber][i] = uint32_t(0);
 2025              		.loc 2 108 26 discriminator 1 view .LVU552
 2026 0038 002A     		cmp	r2, #0
 2027              	.LBE528:
ARM GAS  /tmp/cc8r9C7y.s 			page 55


 2028              	.LBE530:
 2029              	.LBE535:
 2030              	.LBB536:
 2031              	.LBB523:
 2032              	.LBB520:
 2033              	.LBB516:
 2034              		.loc 2 111 15 view .LVU553
 2035 003a C4F80832 		str	r3, [r4, #520]	@ float
 112:Dattorro/dsp/delays/InterpDelay.hpp ****         output = 0.;
 2036              		.loc 2 112 9 is_stmt 1 view .LVU554
 2037              		.loc 2 112 16 is_stmt 0 view .LVU555
 2038 003e C4F80C32 		str	r3, [r4, #524]	@ float
 2039              	.LVL73:
 2040              		.loc 2 112 16 view .LVU556
 2041              	.LBE516:
 2042              	.LBE520:
 2043              	.LBE523:
 2044              	.LBE536:
 197:Dattorro/Dattorro.cpp ****     leftHighCutFilter.clear();
 2045              		.loc 1 197 5 is_stmt 1 view .LVU557
 2046              	.LBB537:
 2047              	.LBI525:
 106:Dattorro/dsp/delays/InterpDelay.hpp ****         // uint32_t **tempPtr = (uint32_t**)sdramData;
 2048              		.loc 2 106 10 view .LVU558
 2049              	.LBB531:
 108:Dattorro/dsp/delays/InterpDelay.hpp ****             sdramData[bufferNumber][i] = uint32_t(0);
 2050              		.loc 2 108 9 view .LVU559
 2051              	.LBB529:
 108:Dattorro/dsp/delays/InterpDelay.hpp ****             sdramData[bufferNumber][i] = uint32_t(0);
 2052              		.loc 2 108 26 discriminator 1 view .LVU560
 2053 0042 09DD     		ble	.L100
 109:Dattorro/dsp/delays/InterpDelay.hpp ****         }
 2054              		.loc 2 109 40 is_stmt 0 view .LVU561
 2055 0044 D4F85012 		ldr	r1, [r4, #592]
 2056 0048 9200     		lsls	r2, r2, #2
 2057 004a 6848     		ldr	r0, .L108
 2058 004c 684B     		ldr	r3, .L108+4
 2059 004e 00FB0130 		mla	r0, r0, r1, r3
 2060 0052 0021     		movs	r1, #0
 2061 0054 FFF7FEFF 		bl	memset
 2062              	.LVL74:
 2063              	.L100:
 109:Dattorro/dsp/delays/InterpDelay.hpp ****         }
 2064              		.loc 2 109 40 view .LVU562
 2065              	.LBE529:
 111:Dattorro/dsp/delays/InterpDelay.hpp ****         output = 0.;
 2066              		.loc 2 111 9 is_stmt 1 view .LVU563
 2067              	.LBE531:
 2068              	.LBE537:
 2069              	.LBB538:
 2070              	.LBB539:
 2071              	.LBB540:
 2072              	.LBB541:
 2073              	.LBB542:
 108:Dattorro/dsp/delays/InterpDelay.hpp ****             sdramData[bufferNumber][i] = uint32_t(0);
 2074              		.loc 2 108 28 is_stmt 0 discriminator 1 view .LVU564
 2075 0058 D4F80823 		ldr	r2, [r4, #776]
ARM GAS  /tmp/cc8r9C7y.s 			page 56


 2076              	.LBE542:
 2077              	.LBE541:
 2078              	.LBE540:
 2079              	.LBE539:
 2080              	.LBE538:
 2081              	.LBB557:
 2082              	.LBB532:
 111:Dattorro/dsp/delays/InterpDelay.hpp ****         output = 0.;
 2083              		.loc 2 111 15 view .LVU565
 2084 005c 0023     		movs	r3, #0
 2085              	.LBE532:
 2086              	.LBE557:
 2087              	.LBB558:
 2088              	.LBB553:
 2089              	.LBB549:
 2090              	.LBB545:
 2091              	.LBB543:
 108:Dattorro/dsp/delays/InterpDelay.hpp ****             sdramData[bufferNumber][i] = uint32_t(0);
 2092              		.loc 2 108 26 discriminator 1 view .LVU566
 2093 005e 002A     		cmp	r2, #0
 2094              	.LBE543:
 2095              	.LBE545:
 2096              	.LBE549:
 2097              	.LBE553:
 2098              	.LBE558:
 2099              	.LBB559:
 2100              	.LBB533:
 111:Dattorro/dsp/delays/InterpDelay.hpp ****         output = 0.;
 2101              		.loc 2 111 15 view .LVU567
 2102 0060 C4F84832 		str	r3, [r4, #584]	@ float
 2103              		.loc 2 112 9 is_stmt 1 view .LVU568
 2104              		.loc 2 112 16 is_stmt 0 view .LVU569
 2105 0064 C4F84C32 		str	r3, [r4, #588]	@ float
 2106              	.LVL75:
 2107              		.loc 2 112 16 view .LVU570
 2108              	.LBE533:
 2109              	.LBE559:
 198:Dattorro/Dattorro.cpp ****     leftLowCutFilter.clear();
 2110              		.loc 1 198 5 is_stmt 1 view .LVU571
 2111              	.LBB560:
 2112              	.LBI560:
  35:Dattorro/dsp/filters/OnePoleFilters.hpp ****         input = 0.0;
 2113              		.loc 4 35 10 view .LVU572
 2114              	.LBB561:
  36:Dattorro/dsp/filters/OnePoleFilters.hpp ****         _z = 0.0;
 2115              		.loc 4 36 9 view .LVU573
  36:Dattorro/dsp/filters/OnePoleFilters.hpp ****         _z = 0.0;
 2116              		.loc 4 36 15 is_stmt 0 view .LVU574
 2117 0068 C4F87C32 		str	r3, [r4, #636]	@ float
  37:Dattorro/dsp/filters/OnePoleFilters.hpp ****         output = 0.0;
 2118              		.loc 4 37 9 is_stmt 1 view .LVU575
  37:Dattorro/dsp/filters/OnePoleFilters.hpp ****         output = 0.0;
 2119              		.loc 4 37 12 is_stmt 0 view .LVU576
 2120 006c C4F89C32 		str	r3, [r4, #668]	@ float
  38:Dattorro/dsp/filters/OnePoleFilters.hpp ****     }
 2121              		.loc 4 38 9 is_stmt 1 view .LVU577
  38:Dattorro/dsp/filters/OnePoleFilters.hpp ****     }
ARM GAS  /tmp/cc8r9C7y.s 			page 57


 2122              		.loc 4 38 16 is_stmt 0 view .LVU578
 2123 0070 C4F88032 		str	r3, [r4, #640]	@ float
 2124              	.LVL76:
  38:Dattorro/dsp/filters/OnePoleFilters.hpp ****     }
 2125              		.loc 4 38 16 view .LVU579
 2126              	.LBE561:
 2127              	.LBE560:
 199:Dattorro/Dattorro.cpp ****     leftApf2.clear();
 2128              		.loc 1 199 5 is_stmt 1 view .LVU580
 2129              	.LBB562:
 2130              	.LBI562:
 116:Dattorro/dsp/filters/OnePoleFilters.hpp ****         input = 0.0;
 2131              		.loc 4 116 10 view .LVU581
 2132              	.LBB563:
 117:Dattorro/dsp/filters/OnePoleFilters.hpp ****         output = 0.0;
 2133              		.loc 4 117 9 view .LVU582
 117:Dattorro/dsp/filters/OnePoleFilters.hpp ****         output = 0.0;
 2134              		.loc 4 117 15 is_stmt 0 view .LVU583
 2135 0074 C4F8A032 		str	r3, [r4, #672]	@ float
 118:Dattorro/dsp/filters/OnePoleFilters.hpp ****         _x0 = 0.0;
 2136              		.loc 4 118 9 is_stmt 1 view .LVU584
 118:Dattorro/dsp/filters/OnePoleFilters.hpp ****         _x0 = 0.0;
 2137              		.loc 4 118 16 is_stmt 0 view .LVU585
 2138 0078 C4F8A432 		str	r3, [r4, #676]	@ float
 119:Dattorro/dsp/filters/OnePoleFilters.hpp ****         _x1 = 0.0;
 2139              		.loc 4 119 9 is_stmt 1 view .LVU586
 119:Dattorro/dsp/filters/OnePoleFilters.hpp ****         _x1 = 0.0;
 2140              		.loc 4 119 13 is_stmt 0 view .LVU587
 2141 007c C4F8C032 		str	r3, [r4, #704]	@ float
 120:Dattorro/dsp/filters/OnePoleFilters.hpp ****         _y0 = 0.0;
 2142              		.loc 4 120 9 is_stmt 1 view .LVU588
 120:Dattorro/dsp/filters/OnePoleFilters.hpp ****         _y0 = 0.0;
 2143              		.loc 4 120 13 is_stmt 0 view .LVU589
 2144 0080 C4F8C432 		str	r3, [r4, #708]	@ float
 121:Dattorro/dsp/filters/OnePoleFilters.hpp ****         _y1 = 0.0;
 2145              		.loc 4 121 9 is_stmt 1 view .LVU590
 121:Dattorro/dsp/filters/OnePoleFilters.hpp ****         _y1 = 0.0;
 2146              		.loc 4 121 13 is_stmt 0 view .LVU591
 2147 0084 C4F8B832 		str	r3, [r4, #696]	@ float
 122:Dattorro/dsp/filters/OnePoleFilters.hpp ****     }
 2148              		.loc 4 122 9 is_stmt 1 view .LVU592
 122:Dattorro/dsp/filters/OnePoleFilters.hpp ****     }
 2149              		.loc 4 122 13 is_stmt 0 view .LVU593
 2150 0088 C4F8BC32 		str	r3, [r4, #700]	@ float
 2151              	.LVL77:
 122:Dattorro/dsp/filters/OnePoleFilters.hpp ****     }
 2152              		.loc 4 122 13 view .LVU594
 2153              	.LBE563:
 2154              	.LBE562:
 200:Dattorro/Dattorro.cpp ****     leftDelay2.clear();
 2155              		.loc 1 200 5 is_stmt 1 view .LVU595
 2156              	.LBB564:
 2157              	.LBI538:
  37:Dattorro/dsp/delays/AllpassFilter.hpp ****         input = 0.;
 2158              		.loc 3 37 10 view .LVU596
 2159              	.LBB554:
  38:Dattorro/dsp/delays/AllpassFilter.hpp ****         output = 0.;
ARM GAS  /tmp/cc8r9C7y.s 			page 58


 2160              		.loc 3 38 9 view .LVU597
  38:Dattorro/dsp/delays/AllpassFilter.hpp ****         output = 0.;
 2161              		.loc 3 38 15 is_stmt 0 view .LVU598
 2162 008c C4F8D432 		str	r3, [r4, #724]	@ float
  39:Dattorro/dsp/delays/AllpassFilter.hpp ****         _inSum = 0.;
 2163              		.loc 3 39 9 is_stmt 1 view .LVU599
  39:Dattorro/dsp/delays/AllpassFilter.hpp ****         _inSum = 0.;
 2164              		.loc 3 39 16 is_stmt 0 view .LVU600
 2165 0090 C4F8D832 		str	r3, [r4, #728]	@ float
  40:Dattorro/dsp/delays/AllpassFilter.hpp ****         _outSum = 0.;
 2166              		.loc 3 40 9 is_stmt 1 view .LVU601
  40:Dattorro/dsp/delays/AllpassFilter.hpp ****         _outSum = 0.;
 2167              		.loc 3 40 16 is_stmt 0 view .LVU602
 2168 0094 C4F81433 		str	r3, [r4, #788]	@ float
  41:Dattorro/dsp/delays/AllpassFilter.hpp ****         delay.clear();
 2169              		.loc 3 41 9 is_stmt 1 view .LVU603
  41:Dattorro/dsp/delays/AllpassFilter.hpp ****         delay.clear();
 2170              		.loc 3 41 17 is_stmt 0 view .LVU604
 2171 0098 C4F81833 		str	r3, [r4, #792]	@ float
  42:Dattorro/dsp/delays/AllpassFilter.hpp ****     }
 2172              		.loc 3 42 9 is_stmt 1 view .LVU605
 2173              	.LVL78:
 2174              	.LBB550:
 2175              	.LBI540:
 106:Dattorro/dsp/delays/InterpDelay.hpp ****         // uint32_t **tempPtr = (uint32_t**)sdramData;
 2176              		.loc 2 106 10 view .LVU606
 2177              	.LBB546:
 108:Dattorro/dsp/delays/InterpDelay.hpp ****             sdramData[bufferNumber][i] = uint32_t(0);
 2178              		.loc 2 108 9 view .LVU607
 2179              	.LBB544:
 108:Dattorro/dsp/delays/InterpDelay.hpp ****             sdramData[bufferNumber][i] = uint32_t(0);
 2180              		.loc 2 108 26 discriminator 1 view .LVU608
 2181 009c 09DD     		ble	.L101
 109:Dattorro/dsp/delays/InterpDelay.hpp ****         }
 2182              		.loc 2 109 40 is_stmt 0 view .LVU609
 2183 009e D4F8E412 		ldr	r1, [r4, #740]
 2184 00a2 9200     		lsls	r2, r2, #2
 2185 00a4 5148     		ldr	r0, .L108
 2186 00a6 524B     		ldr	r3, .L108+4
 2187 00a8 00FB0130 		mla	r0, r0, r1, r3
 2188 00ac 0021     		movs	r1, #0
 2189 00ae FFF7FEFF 		bl	memset
 2190              	.LVL79:
 2191              	.L101:
 109:Dattorro/dsp/delays/InterpDelay.hpp ****         }
 2192              		.loc 2 109 40 view .LVU610
 2193              	.LBE544:
 111:Dattorro/dsp/delays/InterpDelay.hpp ****         output = 0.;
 2194              		.loc 2 111 9 is_stmt 1 view .LVU611
 2195              	.LBE546:
 2196              	.LBE550:
 2197              	.LBE554:
 2198              	.LBE564:
 2199              	.LBB565:
 2200              	.LBB566:
 2201              	.LBB567:
 108:Dattorro/dsp/delays/InterpDelay.hpp ****             sdramData[bufferNumber][i] = uint32_t(0);
ARM GAS  /tmp/cc8r9C7y.s 			page 59


 2202              		.loc 2 108 28 is_stmt 0 discriminator 1 view .LVU612
 2203 00b2 D4F84823 		ldr	r2, [r4, #840]
 2204              	.LBE567:
 2205              	.LBE566:
 2206              	.LBE565:
 2207              	.LBB574:
 2208              	.LBB555:
 2209              	.LBB551:
 2210              	.LBB547:
 111:Dattorro/dsp/delays/InterpDelay.hpp ****         output = 0.;
 2211              		.loc 2 111 15 view .LVU613
 2212 00b6 0023     		movs	r3, #0
 2213              	.LBE547:
 2214              	.LBE551:
 2215              	.LBE555:
 2216              	.LBE574:
 2217              	.LBB575:
 2218              	.LBB570:
 2219              	.LBB568:
 108:Dattorro/dsp/delays/InterpDelay.hpp ****             sdramData[bufferNumber][i] = uint32_t(0);
 2220              		.loc 2 108 26 discriminator 1 view .LVU614
 2221 00b8 002A     		cmp	r2, #0
 2222              	.LBE568:
 2223              	.LBE570:
 2224              	.LBE575:
 2225              	.LBB576:
 2226              	.LBB556:
 2227              	.LBB552:
 2228              	.LBB548:
 111:Dattorro/dsp/delays/InterpDelay.hpp ****         output = 0.;
 2229              		.loc 2 111 15 view .LVU615
 2230 00ba C4F8DC32 		str	r3, [r4, #732]	@ float
 2231              		.loc 2 112 9 is_stmt 1 view .LVU616
 2232              		.loc 2 112 16 is_stmt 0 view .LVU617
 2233 00be C4F8E032 		str	r3, [r4, #736]	@ float
 2234              	.LVL80:
 2235              		.loc 2 112 16 view .LVU618
 2236              	.LBE548:
 2237              	.LBE552:
 2238              	.LBE556:
 2239              	.LBE576:
 201:Dattorro/Dattorro.cpp **** 
 2240              		.loc 1 201 5 is_stmt 1 view .LVU619
 2241              	.LBB577:
 2242              	.LBI565:
 106:Dattorro/dsp/delays/InterpDelay.hpp ****         // uint32_t **tempPtr = (uint32_t**)sdramData;
 2243              		.loc 2 106 10 view .LVU620
 2244              	.LBB571:
 108:Dattorro/dsp/delays/InterpDelay.hpp ****             sdramData[bufferNumber][i] = uint32_t(0);
 2245              		.loc 2 108 9 view .LVU621
 2246              	.LBB569:
 108:Dattorro/dsp/delays/InterpDelay.hpp ****             sdramData[bufferNumber][i] = uint32_t(0);
 2247              		.loc 2 108 26 discriminator 1 view .LVU622
 2248 00c2 09DD     		ble	.L102
 109:Dattorro/dsp/delays/InterpDelay.hpp ****         }
 2249              		.loc 2 109 40 is_stmt 0 view .LVU623
 2250 00c4 D4F82413 		ldr	r1, [r4, #804]
ARM GAS  /tmp/cc8r9C7y.s 			page 60


 2251 00c8 9200     		lsls	r2, r2, #2
 2252 00ca 4848     		ldr	r0, .L108
 2253 00cc 484B     		ldr	r3, .L108+4
 2254 00ce 00FB0130 		mla	r0, r0, r1, r3
 2255 00d2 0021     		movs	r1, #0
 2256 00d4 FFF7FEFF 		bl	memset
 2257              	.LVL81:
 2258              	.L102:
 109:Dattorro/dsp/delays/InterpDelay.hpp ****         }
 2259              		.loc 2 109 40 view .LVU624
 2260              	.LBE569:
 111:Dattorro/dsp/delays/InterpDelay.hpp ****         output = 0.;
 2261              		.loc 2 111 9 is_stmt 1 view .LVU625
 2262              	.LBE571:
 2263              	.LBE577:
 2264              	.LBB578:
 2265              	.LBB579:
 2266              	.LBB580:
 2267              	.LBB581:
 2268              	.LBB582:
 108:Dattorro/dsp/delays/InterpDelay.hpp ****             sdramData[bufferNumber][i] = uint32_t(0);
 2269              		.loc 2 108 28 is_stmt 0 discriminator 1 view .LVU626
 2270 00d8 D4F88423 		ldr	r2, [r4, #900]
 2271              	.LBE582:
 2272              	.LBE581:
 2273              	.LBE580:
 2274              	.LBE579:
 2275              	.LBE578:
 2276              	.LBB597:
 2277              	.LBB572:
 111:Dattorro/dsp/delays/InterpDelay.hpp ****         output = 0.;
 2278              		.loc 2 111 15 view .LVU627
 2279 00dc 0023     		movs	r3, #0
 2280              	.LBE572:
 2281              	.LBE597:
 2282              	.LBB598:
 2283              	.LBB593:
 2284              	.LBB589:
 2285              	.LBB585:
 2286              	.LBB583:
 108:Dattorro/dsp/delays/InterpDelay.hpp ****             sdramData[bufferNumber][i] = uint32_t(0);
 2287              		.loc 2 108 26 discriminator 1 view .LVU628
 2288 00de 002A     		cmp	r2, #0
 2289              	.LBE583:
 2290              	.LBE585:
 2291              	.LBE589:
 2292              	.LBE593:
 2293              	.LBE598:
 2294              	.LBB599:
 2295              	.LBB573:
 111:Dattorro/dsp/delays/InterpDelay.hpp ****         output = 0.;
 2296              		.loc 2 111 15 view .LVU629
 2297 00e0 C4F81C33 		str	r3, [r4, #796]	@ float
 2298              		.loc 2 112 9 is_stmt 1 view .LVU630
 2299              		.loc 2 112 16 is_stmt 0 view .LVU631
 2300 00e4 C4F82033 		str	r3, [r4, #800]	@ float
 2301              	.LVL82:
ARM GAS  /tmp/cc8r9C7y.s 			page 61


 2302              		.loc 2 112 16 view .LVU632
 2303              	.LBE573:
 2304              	.LBE599:
 203:Dattorro/Dattorro.cpp ****     rightDelay1.clear();
 2305              		.loc 1 203 5 is_stmt 1 view .LVU633
 2306              	.LBB600:
 2307              	.LBI578:
  37:Dattorro/dsp/delays/AllpassFilter.hpp ****         input = 0.;
 2308              		.loc 3 37 10 view .LVU634
 2309              	.LBB594:
  38:Dattorro/dsp/delays/AllpassFilter.hpp ****         output = 0.;
 2310              		.loc 3 38 9 view .LVU635
  38:Dattorro/dsp/delays/AllpassFilter.hpp ****         output = 0.;
 2311              		.loc 3 38 15 is_stmt 0 view .LVU636
 2312 00e8 C4F85033 		str	r3, [r4, #848]	@ float
  39:Dattorro/dsp/delays/AllpassFilter.hpp ****         _inSum = 0.;
 2313              		.loc 3 39 9 is_stmt 1 view .LVU637
  39:Dattorro/dsp/delays/AllpassFilter.hpp ****         _inSum = 0.;
 2314              		.loc 3 39 16 is_stmt 0 view .LVU638
 2315 00ec C4F85433 		str	r3, [r4, #852]	@ float
  40:Dattorro/dsp/delays/AllpassFilter.hpp ****         _outSum = 0.;
 2316              		.loc 3 40 9 is_stmt 1 view .LVU639
  40:Dattorro/dsp/delays/AllpassFilter.hpp ****         _outSum = 0.;
 2317              		.loc 3 40 16 is_stmt 0 view .LVU640
 2318 00f0 C4F89033 		str	r3, [r4, #912]	@ float
  41:Dattorro/dsp/delays/AllpassFilter.hpp ****         delay.clear();
 2319              		.loc 3 41 9 is_stmt 1 view .LVU641
  41:Dattorro/dsp/delays/AllpassFilter.hpp ****         delay.clear();
 2320              		.loc 3 41 17 is_stmt 0 view .LVU642
 2321 00f4 C4F89433 		str	r3, [r4, #916]	@ float
  42:Dattorro/dsp/delays/AllpassFilter.hpp ****     }
 2322              		.loc 3 42 9 is_stmt 1 view .LVU643
 2323              	.LVL83:
 2324              	.LBB590:
 2325              	.LBI580:
 106:Dattorro/dsp/delays/InterpDelay.hpp ****         // uint32_t **tempPtr = (uint32_t**)sdramData;
 2326              		.loc 2 106 10 view .LVU644
 2327              	.LBB586:
 108:Dattorro/dsp/delays/InterpDelay.hpp ****             sdramData[bufferNumber][i] = uint32_t(0);
 2328              		.loc 2 108 9 view .LVU645
 2329              	.LBB584:
 108:Dattorro/dsp/delays/InterpDelay.hpp ****             sdramData[bufferNumber][i] = uint32_t(0);
 2330              		.loc 2 108 26 discriminator 1 view .LVU646
 2331 00f8 09DD     		ble	.L103
 109:Dattorro/dsp/delays/InterpDelay.hpp ****         }
 2332              		.loc 2 109 40 is_stmt 0 view .LVU647
 2333 00fa D4F86013 		ldr	r1, [r4, #864]
 2334 00fe 9200     		lsls	r2, r2, #2
 2335 0100 3A48     		ldr	r0, .L108
 2336 0102 3B4B     		ldr	r3, .L108+4
 2337 0104 00FB0130 		mla	r0, r0, r1, r3
 2338 0108 0021     		movs	r1, #0
 2339 010a FFF7FEFF 		bl	memset
 2340              	.LVL84:
 2341              	.L103:
 109:Dattorro/dsp/delays/InterpDelay.hpp ****         }
 2342              		.loc 2 109 40 view .LVU648
ARM GAS  /tmp/cc8r9C7y.s 			page 62


 2343              	.LBE584:
 111:Dattorro/dsp/delays/InterpDelay.hpp ****         output = 0.;
 2344              		.loc 2 111 9 is_stmt 1 view .LVU649
 2345              	.LBE586:
 2346              	.LBE590:
 2347              	.LBE594:
 2348              	.LBE600:
 2349              	.LBB601:
 2350              	.LBB602:
 2351              	.LBB603:
 108:Dattorro/dsp/delays/InterpDelay.hpp ****             sdramData[bufferNumber][i] = uint32_t(0);
 2352              		.loc 2 108 28 is_stmt 0 discriminator 1 view .LVU650
 2353 010e D4F8C423 		ldr	r2, [r4, #964]
 2354              	.LBE603:
 2355              	.LBE602:
 2356              	.LBE601:
 2357              	.LBB609:
 2358              	.LBB595:
 2359              	.LBB591:
 2360              	.LBB587:
 111:Dattorro/dsp/delays/InterpDelay.hpp ****         output = 0.;
 2361              		.loc 2 111 15 view .LVU651
 2362 0112 0023     		movs	r3, #0
 2363              	.LBE587:
 2364              	.LBE591:
 2365              	.LBE595:
 2366              	.LBE609:
 2367              	.LBB610:
 2368              	.LBB606:
 2369              	.LBB604:
 108:Dattorro/dsp/delays/InterpDelay.hpp ****             sdramData[bufferNumber][i] = uint32_t(0);
 2370              		.loc 2 108 26 discriminator 1 view .LVU652
 2371 0114 002A     		cmp	r2, #0
 2372              	.LBE604:
 2373              	.LBE606:
 2374              	.LBE610:
 2375              	.LBB611:
 2376              	.LBB596:
 2377              	.LBB592:
 2378              	.LBB588:
 111:Dattorro/dsp/delays/InterpDelay.hpp ****         output = 0.;
 2379              		.loc 2 111 15 view .LVU653
 2380 0116 C4F85833 		str	r3, [r4, #856]	@ float
 2381              		.loc 2 112 9 is_stmt 1 view .LVU654
 2382              		.loc 2 112 16 is_stmt 0 view .LVU655
 2383 011a C4F85C33 		str	r3, [r4, #860]	@ float
 2384              	.LVL85:
 2385              		.loc 2 112 16 view .LVU656
 2386              	.LBE588:
 2387              	.LBE592:
 2388              	.LBE596:
 2389              	.LBE611:
 204:Dattorro/Dattorro.cpp ****     rightHighCutFilter.clear();;
 2390              		.loc 1 204 5 is_stmt 1 view .LVU657
 2391              	.LBB612:
 2392              	.LBI601:
 106:Dattorro/dsp/delays/InterpDelay.hpp ****         // uint32_t **tempPtr = (uint32_t**)sdramData;
ARM GAS  /tmp/cc8r9C7y.s 			page 63


 2393              		.loc 2 106 10 view .LVU658
 2394              	.LBB607:
 108:Dattorro/dsp/delays/InterpDelay.hpp ****             sdramData[bufferNumber][i] = uint32_t(0);
 2395              		.loc 2 108 9 view .LVU659
 2396              	.LBB605:
 108:Dattorro/dsp/delays/InterpDelay.hpp ****             sdramData[bufferNumber][i] = uint32_t(0);
 2397              		.loc 2 108 26 discriminator 1 view .LVU660
 2398 011e 09DD     		ble	.L104
 109:Dattorro/dsp/delays/InterpDelay.hpp ****         }
 2399              		.loc 2 109 40 is_stmt 0 view .LVU661
 2400 0120 D4F8A013 		ldr	r1, [r4, #928]
 2401 0124 9200     		lsls	r2, r2, #2
 2402 0126 3148     		ldr	r0, .L108
 2403 0128 314B     		ldr	r3, .L108+4
 2404 012a 00FB0130 		mla	r0, r0, r1, r3
 2405 012e 0021     		movs	r1, #0
 2406 0130 FFF7FEFF 		bl	memset
 2407              	.LVL86:
 2408              	.L104:
 109:Dattorro/dsp/delays/InterpDelay.hpp ****         }
 2409              		.loc 2 109 40 view .LVU662
 2410              	.LBE605:
 111:Dattorro/dsp/delays/InterpDelay.hpp ****         output = 0.;
 2411              		.loc 2 111 9 is_stmt 1 view .LVU663
 111:Dattorro/dsp/delays/InterpDelay.hpp ****         output = 0.;
 2412              		.loc 2 111 15 is_stmt 0 view .LVU664
 2413 0134 0023     		movs	r3, #0
 2414              	.LBE607:
 2415              	.LBE612:
 2416              	.LBB613:
 2417              	.LBB614:
 119:Dattorro/dsp/filters/OnePoleFilters.hpp ****         _x1 = 0.0;
 2418              		.loc 4 119 13 view .LVU665
 2419 0136 04F58260 		add	r0, r4, #1040
 120:Dattorro/dsp/filters/OnePoleFilters.hpp ****         _y0 = 0.0;
 2420              		.loc 4 120 13 view .LVU666
 2421 013a 04F21442 		addw	r2, r4, #1044
 2422              	.LBE614:
 2423              	.LBE613:
 2424              	.LBB616:
 2425              	.LBB617:
  38:Dattorro/dsp/delays/AllpassFilter.hpp ****         output = 0.;
 2426              		.loc 3 38 15 view .LVU667
 2427 013e 04F22441 		addw	r1, r4, #1060
 2428              	.LBE617:
 2429              	.LBE616:
 2430              	.LBB634:
 2431              	.LBB608:
 111:Dattorro/dsp/delays/InterpDelay.hpp ****         output = 0.;
 2432              		.loc 2 111 15 view .LVU668
 2433 0142 C4F89833 		str	r3, [r4, #920]	@ float
 2434              		.loc 2 112 9 is_stmt 1 view .LVU669
 2435              		.loc 2 112 16 is_stmt 0 view .LVU670
 2436 0146 C4F89C33 		str	r3, [r4, #924]	@ float
 2437              	.LVL87:
 2438              		.loc 2 112 16 view .LVU671
 2439              	.LBE608:
ARM GAS  /tmp/cc8r9C7y.s 			page 64


 2440              	.LBE634:
 205:Dattorro/Dattorro.cpp ****     rightLowCutFilter.clear();
 2441              		.loc 1 205 5 is_stmt 1 view .LVU672
 2442              	.LBB635:
 2443              	.LBI635:
  35:Dattorro/dsp/filters/OnePoleFilters.hpp ****         input = 0.0;
 2444              		.loc 4 35 10 view .LVU673
 2445              	.LBB636:
  36:Dattorro/dsp/filters/OnePoleFilters.hpp ****         _z = 0.0;
 2446              		.loc 4 36 9 view .LVU674
  36:Dattorro/dsp/filters/OnePoleFilters.hpp ****         _z = 0.0;
 2447              		.loc 4 36 15 is_stmt 0 view .LVU675
 2448 014a C4F8CC33 		str	r3, [r4, #972]	@ float
  37:Dattorro/dsp/filters/OnePoleFilters.hpp ****         output = 0.0;
 2449              		.loc 4 37 9 is_stmt 1 view .LVU676
  37:Dattorro/dsp/filters/OnePoleFilters.hpp ****         output = 0.0;
 2450              		.loc 4 37 12 is_stmt 0 view .LVU677
 2451 014e C4F8EC33 		str	r3, [r4, #1004]	@ float
  38:Dattorro/dsp/filters/OnePoleFilters.hpp ****     }
 2452              		.loc 4 38 9 is_stmt 1 view .LVU678
  38:Dattorro/dsp/filters/OnePoleFilters.hpp ****     }
 2453              		.loc 4 38 16 is_stmt 0 view .LVU679
 2454 0152 C4F8D033 		str	r3, [r4, #976]	@ float
 2455              	.LVL88:
  38:Dattorro/dsp/filters/OnePoleFilters.hpp ****     }
 2456              		.loc 4 38 16 view .LVU680
 2457              	.LBE636:
 2458              	.LBE635:
 205:Dattorro/Dattorro.cpp ****     rightLowCutFilter.clear();
 2459              		.loc 1 205 32 is_stmt 1 discriminator 1 view .LVU681
 206:Dattorro/Dattorro.cpp ****     rightApf2.clear();
 2460              		.loc 1 206 5 view .LVU682
 2461              	.LBB637:
 2462              	.LBI613:
 116:Dattorro/dsp/filters/OnePoleFilters.hpp ****         input = 0.0;
 2463              		.loc 4 116 10 view .LVU683
 2464              	.LBB615:
 117:Dattorro/dsp/filters/OnePoleFilters.hpp ****         output = 0.0;
 2465              		.loc 4 117 9 view .LVU684
 117:Dattorro/dsp/filters/OnePoleFilters.hpp ****         output = 0.0;
 2466              		.loc 4 117 15 is_stmt 0 view .LVU685
 2467 0156 C4F8F033 		str	r3, [r4, #1008]	@ float
 118:Dattorro/dsp/filters/OnePoleFilters.hpp ****         _x0 = 0.0;
 2468              		.loc 4 118 9 is_stmt 1 view .LVU686
 118:Dattorro/dsp/filters/OnePoleFilters.hpp ****         _x0 = 0.0;
 2469              		.loc 4 118 16 is_stmt 0 view .LVU687
 2470 015a C4F8F433 		str	r3, [r4, #1012]	@ float
 119:Dattorro/dsp/filters/OnePoleFilters.hpp ****         _x1 = 0.0;
 2471              		.loc 4 119 9 is_stmt 1 view .LVU688
 119:Dattorro/dsp/filters/OnePoleFilters.hpp ****         _x1 = 0.0;
 2472              		.loc 4 119 13 is_stmt 0 view .LVU689
 2473 015e 0360     		str	r3, [r0]	@ float
 120:Dattorro/dsp/filters/OnePoleFilters.hpp ****         _y0 = 0.0;
 2474              		.loc 4 120 9 is_stmt 1 view .LVU690
 121:Dattorro/dsp/filters/OnePoleFilters.hpp ****         _y1 = 0.0;
 2475              		.loc 4 121 13 is_stmt 0 view .LVU691
 2476 0160 04F58160 		add	r0, r4, #1032
ARM GAS  /tmp/cc8r9C7y.s 			page 65


 120:Dattorro/dsp/filters/OnePoleFilters.hpp ****         _y0 = 0.0;
 2477              		.loc 4 120 13 view .LVU692
 2478 0164 1360     		str	r3, [r2]	@ float
 121:Dattorro/dsp/filters/OnePoleFilters.hpp ****         _y1 = 0.0;
 2479              		.loc 4 121 9 is_stmt 1 view .LVU693
 122:Dattorro/dsp/filters/OnePoleFilters.hpp ****     }
 2480              		.loc 4 122 13 is_stmt 0 view .LVU694
 2481 0166 04F20C42 		addw	r2, r4, #1036
 121:Dattorro/dsp/filters/OnePoleFilters.hpp ****         _y1 = 0.0;
 2482              		.loc 4 121 13 view .LVU695
 2483 016a 0360     		str	r3, [r0]	@ float
 122:Dattorro/dsp/filters/OnePoleFilters.hpp ****     }
 2484              		.loc 4 122 9 is_stmt 1 view .LVU696
 122:Dattorro/dsp/filters/OnePoleFilters.hpp ****     }
 2485              		.loc 4 122 13 is_stmt 0 view .LVU697
 2486 016c 1360     		str	r3, [r2]	@ float
 2487              	.LVL89:
 122:Dattorro/dsp/filters/OnePoleFilters.hpp ****     }
 2488              		.loc 4 122 13 view .LVU698
 2489              	.LBE615:
 2490              	.LBE637:
 207:Dattorro/Dattorro.cpp ****     rightDelay2.clear();
 2491              		.loc 1 207 5 is_stmt 1 view .LVU699
 2492              	.LBB638:
 2493              	.LBI616:
  37:Dattorro/dsp/delays/AllpassFilter.hpp ****         input = 0.;
 2494              		.loc 3 37 10 view .LVU700
 2495              	.LBB631:
  38:Dattorro/dsp/delays/AllpassFilter.hpp ****         output = 0.;
 2496              		.loc 3 38 9 view .LVU701
 2497              	.LBB618:
 2498              	.LBB619:
 2499              	.LBB620:
 108:Dattorro/dsp/delays/InterpDelay.hpp ****             sdramData[bufferNumber][i] = uint32_t(0);
 2500              		.loc 2 108 28 is_stmt 0 discriminator 1 view .LVU702
 2501 016e D4F85824 		ldr	r2, [r4, #1112]
 2502              	.LBE620:
 2503              	.LBE619:
 2504              	.LBE618:
  38:Dattorro/dsp/delays/AllpassFilter.hpp ****         output = 0.;
 2505              		.loc 3 38 15 view .LVU703
 2506 0172 0B60     		str	r3, [r1]	@ float
  39:Dattorro/dsp/delays/AllpassFilter.hpp ****         _inSum = 0.;
 2507              		.loc 3 39 9 is_stmt 1 view .LVU704
 2508              	.LBB627:
 2509              	.LBB623:
 2510              	.LBB621:
 108:Dattorro/dsp/delays/InterpDelay.hpp ****             sdramData[bufferNumber][i] = uint32_t(0);
 2511              		.loc 2 108 26 is_stmt 0 discriminator 1 view .LVU705
 2512 0174 002A     		cmp	r2, #0
 2513              	.LBE621:
 2514              	.LBE623:
 2515              	.LBE627:
  39:Dattorro/dsp/delays/AllpassFilter.hpp ****         _inSum = 0.;
 2516              		.loc 3 39 16 view .LVU706
 2517 0176 4B60     		str	r3, [r1, #4]	@ float
  40:Dattorro/dsp/delays/AllpassFilter.hpp ****         _outSum = 0.;
ARM GAS  /tmp/cc8r9C7y.s 			page 66


 2518              		.loc 3 40 9 is_stmt 1 view .LVU707
  40:Dattorro/dsp/delays/AllpassFilter.hpp ****         _outSum = 0.;
 2519              		.loc 3 40 16 is_stmt 0 view .LVU708
 2520 0178 0B64     		str	r3, [r1, #64]	@ float
  41:Dattorro/dsp/delays/AllpassFilter.hpp ****         delay.clear();
 2521              		.loc 3 41 9 is_stmt 1 view .LVU709
  41:Dattorro/dsp/delays/AllpassFilter.hpp ****         delay.clear();
 2522              		.loc 3 41 17 is_stmt 0 view .LVU710
 2523 017a 4B64     		str	r3, [r1, #68]	@ float
  42:Dattorro/dsp/delays/AllpassFilter.hpp ****     }
 2524              		.loc 3 42 9 is_stmt 1 view .LVU711
 2525              	.LVL90:
 2526              	.LBB628:
 2527              	.LBI618:
 106:Dattorro/dsp/delays/InterpDelay.hpp ****         // uint32_t **tempPtr = (uint32_t**)sdramData;
 2528              		.loc 2 106 10 view .LVU712
 2529              	.LBB624:
 108:Dattorro/dsp/delays/InterpDelay.hpp ****             sdramData[bufferNumber][i] = uint32_t(0);
 2530              		.loc 2 108 9 view .LVU713
 2531              	.LBB622:
 108:Dattorro/dsp/delays/InterpDelay.hpp ****             sdramData[bufferNumber][i] = uint32_t(0);
 2532              		.loc 2 108 26 discriminator 1 view .LVU714
 2533 017c 09DD     		ble	.L105
 109:Dattorro/dsp/delays/InterpDelay.hpp ****         }
 2534              		.loc 2 109 40 is_stmt 0 view .LVU715
 2535 017e D4F83414 		ldr	r1, [r4, #1076]
 2536              	.LVL91:
 109:Dattorro/dsp/delays/InterpDelay.hpp ****         }
 2537              		.loc 2 109 40 view .LVU716
 2538 0182 9200     		lsls	r2, r2, #2
 2539 0184 1948     		ldr	r0, .L108
 2540 0186 1A4B     		ldr	r3, .L108+4
 2541 0188 00FB0130 		mla	r0, r0, r1, r3
 2542 018c 0021     		movs	r1, #0
 2543 018e FFF7FEFF 		bl	memset
 2544              	.LVL92:
 2545              	.L105:
 109:Dattorro/dsp/delays/InterpDelay.hpp ****         }
 2546              		.loc 2 109 40 view .LVU717
 2547              	.LBE622:
 111:Dattorro/dsp/delays/InterpDelay.hpp ****         output = 0.;
 2548              		.loc 2 111 9 is_stmt 1 view .LVU718
 2549              	.LBE624:
 2550              	.LBE628:
 2551              	.LBE631:
 2552              	.LBE638:
 2553              	.LBB639:
 2554              	.LBB640:
 2555              	.LBB641:
 108:Dattorro/dsp/delays/InterpDelay.hpp ****             sdramData[bufferNumber][i] = uint32_t(0);
 2556              		.loc 2 108 28 is_stmt 0 discriminator 1 view .LVU719
 2557 0192 D4F89824 		ldr	r2, [r4, #1176]
 2558              	.LBE641:
 2559              	.LBE640:
 2560              	.LBE639:
 2561              	.LBB647:
 2562              	.LBB632:
ARM GAS  /tmp/cc8r9C7y.s 			page 67


 2563              	.LBB629:
 2564              	.LBB625:
 111:Dattorro/dsp/delays/InterpDelay.hpp ****         output = 0.;
 2565              		.loc 2 111 15 view .LVU720
 2566 0196 04F22C43 		addw	r3, r4, #1068
 2567 019a 0021     		movs	r1, #0
 2568              	.LBE625:
 2569              	.LBE629:
 2570              	.LBE632:
 2571              	.LBE647:
 2572              	.LBB648:
 2573              	.LBB644:
 2574              	.LBB642:
 108:Dattorro/dsp/delays/InterpDelay.hpp ****             sdramData[bufferNumber][i] = uint32_t(0);
 2575              		.loc 2 108 26 discriminator 1 view .LVU721
 2576 019c 002A     		cmp	r2, #0
 2577              	.LBE642:
 2578              	.LBE644:
 2579              	.LBE648:
 2580              	.LBB649:
 2581              	.LBB633:
 2582              	.LBB630:
 2583              	.LBB626:
 111:Dattorro/dsp/delays/InterpDelay.hpp ****         output = 0.;
 2584              		.loc 2 111 15 view .LVU722
 2585 019e 1960     		str	r1, [r3]	@ float
 2586              		.loc 2 112 9 is_stmt 1 view .LVU723
 2587              		.loc 2 112 16 is_stmt 0 view .LVU724
 2588 01a0 5960     		str	r1, [r3, #4]	@ float
 2589              	.LVL93:
 2590              		.loc 2 112 16 view .LVU725
 2591              	.LBE626:
 2592              	.LBE630:
 2593              	.LBE633:
 2594              	.LBE649:
 208:Dattorro/Dattorro.cpp **** 
 2595              		.loc 1 208 5 is_stmt 1 view .LVU726
 2596              	.LBB650:
 2597              	.LBI639:
 106:Dattorro/dsp/delays/InterpDelay.hpp ****         // uint32_t **tempPtr = (uint32_t**)sdramData;
 2598              		.loc 2 106 10 view .LVU727
 2599              	.LBB645:
 108:Dattorro/dsp/delays/InterpDelay.hpp ****             sdramData[bufferNumber][i] = uint32_t(0);
 2600              		.loc 2 108 9 view .LVU728
 2601              	.LBB643:
 108:Dattorro/dsp/delays/InterpDelay.hpp ****             sdramData[bufferNumber][i] = uint32_t(0);
 2602              		.loc 2 108 26 discriminator 1 view .LVU729
 2603 01a2 09DD     		ble	.L106
 109:Dattorro/dsp/delays/InterpDelay.hpp ****         }
 2604              		.loc 2 109 40 is_stmt 0 view .LVU730
 2605 01a4 D4F87414 		ldr	r1, [r4, #1140]
 2606 01a8 9200     		lsls	r2, r2, #2
 2607 01aa 1048     		ldr	r0, .L108
 2608 01ac 104B     		ldr	r3, .L108+4
 2609 01ae 00FB0130 		mla	r0, r0, r1, r3
 2610 01b2 0021     		movs	r1, #0
 2611 01b4 FFF7FEFF 		bl	memset
ARM GAS  /tmp/cc8r9C7y.s 			page 68


 2612              	.LVL94:
 2613              	.L106:
 109:Dattorro/dsp/delays/InterpDelay.hpp ****         }
 2614              		.loc 2 109 40 view .LVU731
 2615              	.LBE643:
 111:Dattorro/dsp/delays/InterpDelay.hpp ****         output = 0.;
 2616              		.loc 2 111 9 is_stmt 1 view .LVU732
 111:Dattorro/dsp/delays/InterpDelay.hpp ****         output = 0.;
 2617              		.loc 2 111 15 is_stmt 0 view .LVU733
 2618 01b8 0023     		movs	r3, #0
 2619              	.LBE645:
 2620              	.LBE650:
 2621              	.LBB651:
 2622              	.LBB652:
 117:Dattorro/dsp/filters/OnePoleFilters.hpp ****         output = 0.0;
 2623              		.loc 4 117 15 view .LVU734
 2624 01ba 04F59461 		add	r1, r4, #1184
 2625              	.LBE652:
 2626              	.LBE651:
 2627              	.LBB654:
 2628              	.LBB655:
 2629 01be 04F2D442 		addw	r2, r4, #1236
 2630              	.LBE655:
 2631              	.LBE654:
 2632              	.LBB657:
 2633              	.LBB646:
 111:Dattorro/dsp/delays/InterpDelay.hpp ****         output = 0.;
 2634              		.loc 2 111 15 view .LVU735
 2635 01c2 04F26C40 		addw	r0, r4, #1132
 2636 01c6 0360     		str	r3, [r0]	@ float
 2637              		.loc 2 112 9 is_stmt 1 view .LVU736
 2638              		.loc 2 112 16 is_stmt 0 view .LVU737
 2639 01c8 4360     		str	r3, [r0, #4]	@ float
 2640              	.LVL95:
 2641              		.loc 2 112 16 view .LVU738
 2642              	.LBE646:
 2643              	.LBE657:
 210:Dattorro/Dattorro.cpp ****     rightOutDCBlock.clear();
 2644              		.loc 1 210 5 is_stmt 1 view .LVU739
 2645              	.LBB658:
 2646              	.LBI651:
 116:Dattorro/dsp/filters/OnePoleFilters.hpp ****         input = 0.0;
 2647              		.loc 4 116 10 view .LVU740
 2648              	.LBB653:
 117:Dattorro/dsp/filters/OnePoleFilters.hpp ****         output = 0.0;
 2649              		.loc 4 117 9 view .LVU741
 117:Dattorro/dsp/filters/OnePoleFilters.hpp ****         output = 0.0;
 2650              		.loc 4 117 15 is_stmt 0 view .LVU742
 2651 01ca 0B60     		str	r3, [r1]	@ float
 118:Dattorro/dsp/filters/OnePoleFilters.hpp ****         _x0 = 0.0;
 2652              		.loc 4 118 9 is_stmt 1 view .LVU743
 118:Dattorro/dsp/filters/OnePoleFilters.hpp ****         _x0 = 0.0;
 2653              		.loc 4 118 16 is_stmt 0 view .LVU744
 2654 01cc 4B60     		str	r3, [r1, #4]	@ float
 119:Dattorro/dsp/filters/OnePoleFilters.hpp ****         _x1 = 0.0;
 2655              		.loc 4 119 9 is_stmt 1 view .LVU745
 119:Dattorro/dsp/filters/OnePoleFilters.hpp ****         _x1 = 0.0;
ARM GAS  /tmp/cc8r9C7y.s 			page 69


 2656              		.loc 4 119 13 is_stmt 0 view .LVU746
 2657 01ce 0B62     		str	r3, [r1, #32]	@ float
 120:Dattorro/dsp/filters/OnePoleFilters.hpp ****         _y0 = 0.0;
 2658              		.loc 4 120 9 is_stmt 1 view .LVU747
 120:Dattorro/dsp/filters/OnePoleFilters.hpp ****         _y0 = 0.0;
 2659              		.loc 4 120 13 is_stmt 0 view .LVU748
 2660 01d0 4B62     		str	r3, [r1, #36]	@ float
 121:Dattorro/dsp/filters/OnePoleFilters.hpp ****         _y1 = 0.0;
 2661              		.loc 4 121 9 is_stmt 1 view .LVU749
 121:Dattorro/dsp/filters/OnePoleFilters.hpp ****         _y1 = 0.0;
 2662              		.loc 4 121 13 is_stmt 0 view .LVU750
 2663 01d2 8B61     		str	r3, [r1, #24]	@ float
 122:Dattorro/dsp/filters/OnePoleFilters.hpp ****     }
 2664              		.loc 4 122 9 is_stmt 1 view .LVU751
 122:Dattorro/dsp/filters/OnePoleFilters.hpp ****     }
 2665              		.loc 4 122 13 is_stmt 0 view .LVU752
 2666 01d4 CB61     		str	r3, [r1, #28]	@ float
 2667              	.LVL96:
 122:Dattorro/dsp/filters/OnePoleFilters.hpp ****     }
 2668              		.loc 4 122 13 view .LVU753
 2669              	.LBE653:
 2670              	.LBE658:
 211:Dattorro/Dattorro.cpp **** 
 2671              		.loc 1 211 5 is_stmt 1 view .LVU754
 2672              	.LBB659:
 2673              	.LBI654:
 116:Dattorro/dsp/filters/OnePoleFilters.hpp ****         input = 0.0;
 2674              		.loc 4 116 10 view .LVU755
 2675              	.LBB656:
 117:Dattorro/dsp/filters/OnePoleFilters.hpp ****         output = 0.0;
 2676              		.loc 4 117 9 view .LVU756
 117:Dattorro/dsp/filters/OnePoleFilters.hpp ****         output = 0.0;
 2677              		.loc 4 117 15 is_stmt 0 view .LVU757
 2678 01d6 1360     		str	r3, [r2]	@ float
 118:Dattorro/dsp/filters/OnePoleFilters.hpp ****         _x0 = 0.0;
 2679              		.loc 4 118 9 is_stmt 1 view .LVU758
 118:Dattorro/dsp/filters/OnePoleFilters.hpp ****         _x0 = 0.0;
 2680              		.loc 4 118 16 is_stmt 0 view .LVU759
 2681 01d8 5360     		str	r3, [r2, #4]	@ float
 119:Dattorro/dsp/filters/OnePoleFilters.hpp ****         _x1 = 0.0;
 2682              		.loc 4 119 9 is_stmt 1 view .LVU760
 119:Dattorro/dsp/filters/OnePoleFilters.hpp ****         _x1 = 0.0;
 2683              		.loc 4 119 13 is_stmt 0 view .LVU761
 2684 01da 1362     		str	r3, [r2, #32]	@ float
 120:Dattorro/dsp/filters/OnePoleFilters.hpp ****         _y0 = 0.0;
 2685              		.loc 4 120 9 is_stmt 1 view .LVU762
 120:Dattorro/dsp/filters/OnePoleFilters.hpp ****         _y0 = 0.0;
 2686              		.loc 4 120 13 is_stmt 0 view .LVU763
 2687 01dc 5362     		str	r3, [r2, #36]	@ float
 121:Dattorro/dsp/filters/OnePoleFilters.hpp ****         _y1 = 0.0;
 2688              		.loc 4 121 9 is_stmt 1 view .LVU764
 121:Dattorro/dsp/filters/OnePoleFilters.hpp ****         _y1 = 0.0;
 2689              		.loc 4 121 13 is_stmt 0 view .LVU765
 2690 01de 9361     		str	r3, [r2, #24]	@ float
 122:Dattorro/dsp/filters/OnePoleFilters.hpp ****     }
 2691              		.loc 4 122 9 is_stmt 1 view .LVU766
 122:Dattorro/dsp/filters/OnePoleFilters.hpp ****     }
ARM GAS  /tmp/cc8r9C7y.s 			page 70


 2692              		.loc 4 122 13 is_stmt 0 view .LVU767
 2693 01e0 D361     		str	r3, [r2, #28]	@ float
 2694              	.LVL97:
 122:Dattorro/dsp/filters/OnePoleFilters.hpp ****     }
 2695              		.loc 4 122 13 view .LVU768
 2696              	.LBE656:
 2697              	.LBE659:
 213:Dattorro/Dattorro.cpp ****     rightSum = 0.;
 2698              		.loc 1 213 5 is_stmt 1 view .LVU769
 213:Dattorro/Dattorro.cpp ****     rightSum = 0.;
 2699              		.loc 1 213 13 is_stmt 0 view .LVU770
 2700 01e2 C4F8F831 		str	r3, [r4, #504]	@ float
 214:Dattorro/Dattorro.cpp **** }
 2701              		.loc 1 214 5 is_stmt 1 view .LVU771
 214:Dattorro/Dattorro.cpp **** }
 2702              		.loc 1 214 14 is_stmt 0 view .LVU772
 2703 01e6 C4F8FC31 		str	r3, [r4, #508]	@ float
 215:Dattorro/Dattorro.cpp **** 
 2704              		.loc 1 215 1 view .LVU773
 2705 01ea 10BD     		pop	{r4, pc}
 2706              	.LVL98:
 2707              	.L109:
 215:Dattorro/Dattorro.cpp **** 
 2708              		.loc 1 215 1 view .LVU774
 2709              		.align	2
 2710              	.L108:
 2711 01ec 20420200 		.word	148000
 2712 01f0 00000000 		.word	sdramData
 2713              		.cfi_endproc
 2714              	.LFE2997:
 2716              		.section	.text._ZN16Dattorro1997Tank23initialiseDelaysAndApfsEv,"ax",%progbits
 2717              		.align	1
 2718              		.p2align 2,,3
 2719              		.global	_ZN16Dattorro1997Tank23initialiseDelaysAndApfsEv
 2720              		.syntax unified
 2721              		.thumb
 2722              		.thumb_func
 2724              	_ZN16Dattorro1997Tank23initialiseDelaysAndApfsEv:
 2725              	.LVL99:
 2726              	.LFB2999:
 227:Dattorro/Dattorro.cpp ****     // int maxScaledOutputTap = *std::max_element(scaledOutputTaps.begin(),
 2727              		.loc 1 227 50 is_stmt 1 view -0
 2728              		.cfi_startproc
 2729              		@ args = 0, pretend = 0, frame = 480
 2730              		@ frame_needed = 0, uses_anonymous_args = 0
 235:Dattorro/Dattorro.cpp ****     const int kLeftDelay1MaxTime = calcMaxTime(leftDelay1Time);
 2731              		.loc 1 235 5 view .LVU776
 2732              	.LBB820:
 2733              	.LBB821:
 2734              	.LBB822:
 2735              	.LBB823:
 2736              	.LBB824:
 2737              		.file 6 "/usr/arm-none-eabi/include/c++/15.2.0/array"
   1:/usr/arm-none-eabi/include/c++/15.2.0/array **** // <array> -*- C++ -*-
   2:/usr/arm-none-eabi/include/c++/15.2.0/array **** 
   3:/usr/arm-none-eabi/include/c++/15.2.0/array **** // Copyright (C) 2007-2025 Free Software Foundation, Inc.
   4:/usr/arm-none-eabi/include/c++/15.2.0/array **** //
ARM GAS  /tmp/cc8r9C7y.s 			page 71


   5:/usr/arm-none-eabi/include/c++/15.2.0/array **** // This file is part of the GNU ISO C++ Library.  This library is free
   6:/usr/arm-none-eabi/include/c++/15.2.0/array **** // software; you can redistribute it and/or modify it under the
   7:/usr/arm-none-eabi/include/c++/15.2.0/array **** // terms of the GNU General Public License as published by the
   8:/usr/arm-none-eabi/include/c++/15.2.0/array **** // Free Software Foundation; either version 3, or (at your option)
   9:/usr/arm-none-eabi/include/c++/15.2.0/array **** // any later version.
  10:/usr/arm-none-eabi/include/c++/15.2.0/array **** 
  11:/usr/arm-none-eabi/include/c++/15.2.0/array **** // This library is distributed in the hope that it will be useful,
  12:/usr/arm-none-eabi/include/c++/15.2.0/array **** // but WITHOUT ANY WARRANTY; without even the implied warranty of
  13:/usr/arm-none-eabi/include/c++/15.2.0/array **** // MERCHANTABILITY or FITNESS FOR A PARTICULAR PURPOSE.  See the
  14:/usr/arm-none-eabi/include/c++/15.2.0/array **** // GNU General Public License for more details.
  15:/usr/arm-none-eabi/include/c++/15.2.0/array **** 
  16:/usr/arm-none-eabi/include/c++/15.2.0/array **** // Under Section 7 of GPL version 3, you are granted additional
  17:/usr/arm-none-eabi/include/c++/15.2.0/array **** // permissions described in the GCC Runtime Library Exception, version
  18:/usr/arm-none-eabi/include/c++/15.2.0/array **** // 3.1, as published by the Free Software Foundation.
  19:/usr/arm-none-eabi/include/c++/15.2.0/array **** 
  20:/usr/arm-none-eabi/include/c++/15.2.0/array **** // You should have received a copy of the GNU General Public License and
  21:/usr/arm-none-eabi/include/c++/15.2.0/array **** // a copy of the GCC Runtime Library Exception along with this program;
  22:/usr/arm-none-eabi/include/c++/15.2.0/array **** // see the files COPYING3 and COPYING.RUNTIME respectively.  If not, see
  23:/usr/arm-none-eabi/include/c++/15.2.0/array **** // <http://www.gnu.org/licenses/>.
  24:/usr/arm-none-eabi/include/c++/15.2.0/array **** 
  25:/usr/arm-none-eabi/include/c++/15.2.0/array **** /** @file include/array
  26:/usr/arm-none-eabi/include/c++/15.2.0/array ****  *  This is a Standard C++ Library header.
  27:/usr/arm-none-eabi/include/c++/15.2.0/array ****  */
  28:/usr/arm-none-eabi/include/c++/15.2.0/array **** 
  29:/usr/arm-none-eabi/include/c++/15.2.0/array **** #ifndef _GLIBCXX_ARRAY
  30:/usr/arm-none-eabi/include/c++/15.2.0/array **** #define _GLIBCXX_ARRAY 1
  31:/usr/arm-none-eabi/include/c++/15.2.0/array **** 
  32:/usr/arm-none-eabi/include/c++/15.2.0/array **** #ifdef _GLIBCXX_SYSHDR
  33:/usr/arm-none-eabi/include/c++/15.2.0/array **** #pragma GCC system_header
  34:/usr/arm-none-eabi/include/c++/15.2.0/array **** #endif
  35:/usr/arm-none-eabi/include/c++/15.2.0/array **** 
  36:/usr/arm-none-eabi/include/c++/15.2.0/array **** #if __cplusplus < 201103L
  37:/usr/arm-none-eabi/include/c++/15.2.0/array **** # include <bits/c++0x_warning.h>
  38:/usr/arm-none-eabi/include/c++/15.2.0/array **** #else
  39:/usr/arm-none-eabi/include/c++/15.2.0/array **** 
  40:/usr/arm-none-eabi/include/c++/15.2.0/array **** #include <compare>
  41:/usr/arm-none-eabi/include/c++/15.2.0/array **** #include <initializer_list>
  42:/usr/arm-none-eabi/include/c++/15.2.0/array **** 
  43:/usr/arm-none-eabi/include/c++/15.2.0/array **** #include <type_traits>
  44:/usr/arm-none-eabi/include/c++/15.2.0/array **** #include <bits/functexcept.h>
  45:/usr/arm-none-eabi/include/c++/15.2.0/array **** #include <bits/stl_algobase.h>
  46:/usr/arm-none-eabi/include/c++/15.2.0/array **** #include <bits/range_access.h> // std::begin, std::end etc.
  47:/usr/arm-none-eabi/include/c++/15.2.0/array **** #include <bits/utility.h>      // std::index_sequence, std::tuple_size
  48:/usr/arm-none-eabi/include/c++/15.2.0/array **** #include <debug/assertions.h>
  49:/usr/arm-none-eabi/include/c++/15.2.0/array **** 
  50:/usr/arm-none-eabi/include/c++/15.2.0/array **** #define __glibcxx_want_array_constexpr
  51:/usr/arm-none-eabi/include/c++/15.2.0/array **** #define __glibcxx_want_freestanding_array
  52:/usr/arm-none-eabi/include/c++/15.2.0/array **** #define __glibcxx_want_nonmember_container_access
  53:/usr/arm-none-eabi/include/c++/15.2.0/array **** #define __glibcxx_want_to_array
  54:/usr/arm-none-eabi/include/c++/15.2.0/array **** #include <bits/version.h>
  55:/usr/arm-none-eabi/include/c++/15.2.0/array **** 
  56:/usr/arm-none-eabi/include/c++/15.2.0/array **** namespace std _GLIBCXX_VISIBILITY(default)
  57:/usr/arm-none-eabi/include/c++/15.2.0/array **** {
  58:/usr/arm-none-eabi/include/c++/15.2.0/array **** _GLIBCXX_BEGIN_NAMESPACE_VERSION
  59:/usr/arm-none-eabi/include/c++/15.2.0/array **** 
  60:/usr/arm-none-eabi/include/c++/15.2.0/array ****   template<typename _Tp, size_t _Nm>
  61:/usr/arm-none-eabi/include/c++/15.2.0/array ****     struct __array_traits
ARM GAS  /tmp/cc8r9C7y.s 			page 72


  62:/usr/arm-none-eabi/include/c++/15.2.0/array ****     {
  63:/usr/arm-none-eabi/include/c++/15.2.0/array ****       using _Type = _Tp[_Nm];
  64:/usr/arm-none-eabi/include/c++/15.2.0/array ****       using _Is_swappable = __is_swappable<_Tp>;
  65:/usr/arm-none-eabi/include/c++/15.2.0/array ****       using _Is_nothrow_swappable = __is_nothrow_swappable<_Tp>;
  66:/usr/arm-none-eabi/include/c++/15.2.0/array ****     };
  67:/usr/arm-none-eabi/include/c++/15.2.0/array **** 
  68:/usr/arm-none-eabi/include/c++/15.2.0/array ****  template<typename _Tp>
  69:/usr/arm-none-eabi/include/c++/15.2.0/array ****    struct __array_traits<_Tp, 0>
  70:/usr/arm-none-eabi/include/c++/15.2.0/array ****    {
  71:/usr/arm-none-eabi/include/c++/15.2.0/array ****      // Empty type used instead of _Tp[0] for std::array<_Tp, 0>.
  72:/usr/arm-none-eabi/include/c++/15.2.0/array ****      struct _Type
  73:/usr/arm-none-eabi/include/c++/15.2.0/array ****      {
  74:/usr/arm-none-eabi/include/c++/15.2.0/array ****        // Indexing is undefined.
  75:/usr/arm-none-eabi/include/c++/15.2.0/array ****        __attribute__((__always_inline__,__noreturn__))
  76:/usr/arm-none-eabi/include/c++/15.2.0/array ****        _Tp& operator[](size_t) const noexcept { __builtin_trap(); }
  77:/usr/arm-none-eabi/include/c++/15.2.0/array **** 
  78:/usr/arm-none-eabi/include/c++/15.2.0/array ****        // Conversion to a pointer produces a null pointer.
  79:/usr/arm-none-eabi/include/c++/15.2.0/array ****        __attribute__((__always_inline__))
  80:/usr/arm-none-eabi/include/c++/15.2.0/array ****        constexpr explicit operator _Tp*() const noexcept { return nullptr; }
  81:/usr/arm-none-eabi/include/c++/15.2.0/array ****      };
  82:/usr/arm-none-eabi/include/c++/15.2.0/array **** 
  83:/usr/arm-none-eabi/include/c++/15.2.0/array ****      using _Is_swappable = true_type;
  84:/usr/arm-none-eabi/include/c++/15.2.0/array ****      using _Is_nothrow_swappable = true_type;
  85:/usr/arm-none-eabi/include/c++/15.2.0/array ****    };
  86:/usr/arm-none-eabi/include/c++/15.2.0/array **** 
  87:/usr/arm-none-eabi/include/c++/15.2.0/array ****   /**
  88:/usr/arm-none-eabi/include/c++/15.2.0/array ****    *  @brief A standard container for storing a fixed size sequence of elements.
  89:/usr/arm-none-eabi/include/c++/15.2.0/array ****    *
  90:/usr/arm-none-eabi/include/c++/15.2.0/array ****    *  @ingroup sequences
  91:/usr/arm-none-eabi/include/c++/15.2.0/array ****    *
  92:/usr/arm-none-eabi/include/c++/15.2.0/array ****    *  Meets the requirements of a <a href="tables.html#65">container</a>, a
  93:/usr/arm-none-eabi/include/c++/15.2.0/array ****    *  <a href="tables.html#66">reversible container</a>, and a
  94:/usr/arm-none-eabi/include/c++/15.2.0/array ****    *  <a href="tables.html#67">sequence</a>.
  95:/usr/arm-none-eabi/include/c++/15.2.0/array ****    *
  96:/usr/arm-none-eabi/include/c++/15.2.0/array ****    *  Sets support random access iterators.
  97:/usr/arm-none-eabi/include/c++/15.2.0/array ****    *
  98:/usr/arm-none-eabi/include/c++/15.2.0/array ****    *  @tparam  Tp  Type of element. Required to be a complete type.
  99:/usr/arm-none-eabi/include/c++/15.2.0/array ****    *  @tparam  Nm  Number of elements.
 100:/usr/arm-none-eabi/include/c++/15.2.0/array ****   */
 101:/usr/arm-none-eabi/include/c++/15.2.0/array ****   template<typename _Tp, std::size_t _Nm>
 102:/usr/arm-none-eabi/include/c++/15.2.0/array ****     struct array
 103:/usr/arm-none-eabi/include/c++/15.2.0/array ****     {
 104:/usr/arm-none-eabi/include/c++/15.2.0/array ****       typedef _Tp 	    			      value_type;
 105:/usr/arm-none-eabi/include/c++/15.2.0/array ****       typedef value_type*			      pointer;
 106:/usr/arm-none-eabi/include/c++/15.2.0/array ****       typedef const value_type*                       const_pointer;
 107:/usr/arm-none-eabi/include/c++/15.2.0/array ****       typedef value_type&                   	      reference;
 108:/usr/arm-none-eabi/include/c++/15.2.0/array ****       typedef const value_type&             	      const_reference;
 109:/usr/arm-none-eabi/include/c++/15.2.0/array ****       typedef value_type*          		      iterator;
 110:/usr/arm-none-eabi/include/c++/15.2.0/array ****       typedef const value_type*			      const_iterator;
 111:/usr/arm-none-eabi/include/c++/15.2.0/array ****       typedef std::size_t                    	      size_type;
 112:/usr/arm-none-eabi/include/c++/15.2.0/array ****       typedef std::ptrdiff_t                   	      difference_type;
 113:/usr/arm-none-eabi/include/c++/15.2.0/array ****       typedef std::reverse_iterator<iterator>	      reverse_iterator;
 114:/usr/arm-none-eabi/include/c++/15.2.0/array ****       typedef std::reverse_iterator<const_iterator>   const_reverse_iterator;
 115:/usr/arm-none-eabi/include/c++/15.2.0/array **** 
 116:/usr/arm-none-eabi/include/c++/15.2.0/array ****       // Support for zero-sized arrays mandatory.
 117:/usr/arm-none-eabi/include/c++/15.2.0/array ****       typename __array_traits<_Tp, _Nm>::_Type        _M_elems;
 118:/usr/arm-none-eabi/include/c++/15.2.0/array **** 
ARM GAS  /tmp/cc8r9C7y.s 			page 73


 119:/usr/arm-none-eabi/include/c++/15.2.0/array ****       // No explicit construct/copy/destroy for aggregate type.
 120:/usr/arm-none-eabi/include/c++/15.2.0/array **** 
 121:/usr/arm-none-eabi/include/c++/15.2.0/array ****       // DR 776.
 122:/usr/arm-none-eabi/include/c++/15.2.0/array ****       _GLIBCXX20_CONSTEXPR void
 123:/usr/arm-none-eabi/include/c++/15.2.0/array ****       fill(const value_type& __u)
 124:/usr/arm-none-eabi/include/c++/15.2.0/array ****       { std::fill_n(begin(), size(), __u); }
 125:/usr/arm-none-eabi/include/c++/15.2.0/array **** 
 126:/usr/arm-none-eabi/include/c++/15.2.0/array ****       _GLIBCXX20_CONSTEXPR void
 127:/usr/arm-none-eabi/include/c++/15.2.0/array ****       swap(array& __other)
 128:/usr/arm-none-eabi/include/c++/15.2.0/array ****       noexcept(__array_traits<_Tp, _Nm>::_Is_nothrow_swappable::value)
 129:/usr/arm-none-eabi/include/c++/15.2.0/array ****       { std::swap_ranges(begin(), end(), __other.begin()); }
 130:/usr/arm-none-eabi/include/c++/15.2.0/array **** 
 131:/usr/arm-none-eabi/include/c++/15.2.0/array ****       // Iterators.
 132:/usr/arm-none-eabi/include/c++/15.2.0/array ****       [[__gnu__::__const__, __nodiscard__]]
 133:/usr/arm-none-eabi/include/c++/15.2.0/array ****       _GLIBCXX17_CONSTEXPR iterator
 134:/usr/arm-none-eabi/include/c++/15.2.0/array ****       begin() noexcept
 135:/usr/arm-none-eabi/include/c++/15.2.0/array ****       { return iterator(data()); }
 136:/usr/arm-none-eabi/include/c++/15.2.0/array **** 
 137:/usr/arm-none-eabi/include/c++/15.2.0/array ****       [[__nodiscard__]]
 138:/usr/arm-none-eabi/include/c++/15.2.0/array ****       _GLIBCXX17_CONSTEXPR const_iterator
 139:/usr/arm-none-eabi/include/c++/15.2.0/array ****       begin() const noexcept
 140:/usr/arm-none-eabi/include/c++/15.2.0/array ****       { return const_iterator(data()); }
 141:/usr/arm-none-eabi/include/c++/15.2.0/array **** 
 142:/usr/arm-none-eabi/include/c++/15.2.0/array ****       [[__gnu__::__const__, __nodiscard__]]
 143:/usr/arm-none-eabi/include/c++/15.2.0/array ****       _GLIBCXX17_CONSTEXPR iterator
 144:/usr/arm-none-eabi/include/c++/15.2.0/array ****       end() noexcept
 145:/usr/arm-none-eabi/include/c++/15.2.0/array ****       { return iterator(data() + _Nm); }
 146:/usr/arm-none-eabi/include/c++/15.2.0/array **** 
 147:/usr/arm-none-eabi/include/c++/15.2.0/array ****       [[__nodiscard__]]
 148:/usr/arm-none-eabi/include/c++/15.2.0/array ****       _GLIBCXX17_CONSTEXPR const_iterator
 149:/usr/arm-none-eabi/include/c++/15.2.0/array ****       end() const noexcept
 150:/usr/arm-none-eabi/include/c++/15.2.0/array ****       { return const_iterator(data() + _Nm); }
 151:/usr/arm-none-eabi/include/c++/15.2.0/array **** 
 152:/usr/arm-none-eabi/include/c++/15.2.0/array ****       [[__gnu__::__const__, __nodiscard__]]
 153:/usr/arm-none-eabi/include/c++/15.2.0/array ****       _GLIBCXX17_CONSTEXPR reverse_iterator
 154:/usr/arm-none-eabi/include/c++/15.2.0/array ****       rbegin() noexcept
 155:/usr/arm-none-eabi/include/c++/15.2.0/array ****       { return reverse_iterator(end()); }
 156:/usr/arm-none-eabi/include/c++/15.2.0/array **** 
 157:/usr/arm-none-eabi/include/c++/15.2.0/array ****       [[__nodiscard__]]
 158:/usr/arm-none-eabi/include/c++/15.2.0/array ****       _GLIBCXX17_CONSTEXPR const_reverse_iterator
 159:/usr/arm-none-eabi/include/c++/15.2.0/array ****       rbegin() const noexcept
 160:/usr/arm-none-eabi/include/c++/15.2.0/array ****       { return const_reverse_iterator(end()); }
 161:/usr/arm-none-eabi/include/c++/15.2.0/array **** 
 162:/usr/arm-none-eabi/include/c++/15.2.0/array ****       [[__gnu__::__const__, __nodiscard__]]
 163:/usr/arm-none-eabi/include/c++/15.2.0/array ****       _GLIBCXX17_CONSTEXPR reverse_iterator
 164:/usr/arm-none-eabi/include/c++/15.2.0/array ****       rend() noexcept
 165:/usr/arm-none-eabi/include/c++/15.2.0/array ****       { return reverse_iterator(begin()); }
 166:/usr/arm-none-eabi/include/c++/15.2.0/array **** 
 167:/usr/arm-none-eabi/include/c++/15.2.0/array ****       [[__nodiscard__]]
 168:/usr/arm-none-eabi/include/c++/15.2.0/array ****       _GLIBCXX17_CONSTEXPR const_reverse_iterator
 169:/usr/arm-none-eabi/include/c++/15.2.0/array ****       rend() const noexcept
 170:/usr/arm-none-eabi/include/c++/15.2.0/array ****       { return const_reverse_iterator(begin()); }
 171:/usr/arm-none-eabi/include/c++/15.2.0/array **** 
 172:/usr/arm-none-eabi/include/c++/15.2.0/array ****       [[__nodiscard__]]
 173:/usr/arm-none-eabi/include/c++/15.2.0/array ****       _GLIBCXX17_CONSTEXPR const_iterator
 174:/usr/arm-none-eabi/include/c++/15.2.0/array ****       cbegin() const noexcept
 175:/usr/arm-none-eabi/include/c++/15.2.0/array ****       { return const_iterator(data()); }
ARM GAS  /tmp/cc8r9C7y.s 			page 74


 176:/usr/arm-none-eabi/include/c++/15.2.0/array **** 
 177:/usr/arm-none-eabi/include/c++/15.2.0/array ****       [[__nodiscard__]]
 178:/usr/arm-none-eabi/include/c++/15.2.0/array ****       _GLIBCXX17_CONSTEXPR const_iterator
 179:/usr/arm-none-eabi/include/c++/15.2.0/array ****       cend() const noexcept
 180:/usr/arm-none-eabi/include/c++/15.2.0/array ****       { return const_iterator(data() + _Nm); }
 181:/usr/arm-none-eabi/include/c++/15.2.0/array **** 
 182:/usr/arm-none-eabi/include/c++/15.2.0/array ****       [[__nodiscard__]]
 183:/usr/arm-none-eabi/include/c++/15.2.0/array ****       _GLIBCXX17_CONSTEXPR const_reverse_iterator
 184:/usr/arm-none-eabi/include/c++/15.2.0/array ****       crbegin() const noexcept
 185:/usr/arm-none-eabi/include/c++/15.2.0/array ****       { return const_reverse_iterator(end()); }
 186:/usr/arm-none-eabi/include/c++/15.2.0/array **** 
 187:/usr/arm-none-eabi/include/c++/15.2.0/array ****       [[__nodiscard__]]
 188:/usr/arm-none-eabi/include/c++/15.2.0/array ****       _GLIBCXX17_CONSTEXPR const_reverse_iterator
 189:/usr/arm-none-eabi/include/c++/15.2.0/array ****       crend() const noexcept
 190:/usr/arm-none-eabi/include/c++/15.2.0/array ****       { return const_reverse_iterator(begin()); }
 191:/usr/arm-none-eabi/include/c++/15.2.0/array **** 
 192:/usr/arm-none-eabi/include/c++/15.2.0/array ****       // Capacity.
 193:/usr/arm-none-eabi/include/c++/15.2.0/array ****       [[__nodiscard__, __gnu__::__const__, __gnu__::__always_inline__]]
 194:/usr/arm-none-eabi/include/c++/15.2.0/array ****       constexpr size_type
 195:/usr/arm-none-eabi/include/c++/15.2.0/array ****       size() const noexcept { return _Nm; }
 196:/usr/arm-none-eabi/include/c++/15.2.0/array **** 
 197:/usr/arm-none-eabi/include/c++/15.2.0/array ****       [[__nodiscard__, __gnu__::__const__, __gnu__::__always_inline__]]
 198:/usr/arm-none-eabi/include/c++/15.2.0/array ****       constexpr size_type
 199:/usr/arm-none-eabi/include/c++/15.2.0/array ****       max_size() const noexcept { return _Nm; }
 200:/usr/arm-none-eabi/include/c++/15.2.0/array **** 
 201:/usr/arm-none-eabi/include/c++/15.2.0/array ****       [[__nodiscard__, __gnu__::__const__, __gnu__::__always_inline__]]
 202:/usr/arm-none-eabi/include/c++/15.2.0/array ****       constexpr bool
 203:/usr/arm-none-eabi/include/c++/15.2.0/array ****       empty() const noexcept { return size() == 0; }
 204:/usr/arm-none-eabi/include/c++/15.2.0/array **** 
 205:/usr/arm-none-eabi/include/c++/15.2.0/array ****       // Element access.
 206:/usr/arm-none-eabi/include/c++/15.2.0/array ****       [[__nodiscard__]]
 207:/usr/arm-none-eabi/include/c++/15.2.0/array ****       _GLIBCXX17_CONSTEXPR reference
 208:/usr/arm-none-eabi/include/c++/15.2.0/array ****       operator[](size_type __n) noexcept
 209:/usr/arm-none-eabi/include/c++/15.2.0/array ****       {
 210:/usr/arm-none-eabi/include/c++/15.2.0/array **** 	__glibcxx_requires_subscript(__n);
 211:/usr/arm-none-eabi/include/c++/15.2.0/array **** 	return _M_elems[__n];
 212:/usr/arm-none-eabi/include/c++/15.2.0/array ****       }
 213:/usr/arm-none-eabi/include/c++/15.2.0/array **** 
 214:/usr/arm-none-eabi/include/c++/15.2.0/array ****       [[__nodiscard__]]
 215:/usr/arm-none-eabi/include/c++/15.2.0/array ****       constexpr const_reference
 216:/usr/arm-none-eabi/include/c++/15.2.0/array ****       operator[](size_type __n) const noexcept
 217:/usr/arm-none-eabi/include/c++/15.2.0/array ****       {
 218:/usr/arm-none-eabi/include/c++/15.2.0/array **** #if __cplusplus >= 201402L
 219:/usr/arm-none-eabi/include/c++/15.2.0/array **** 	__glibcxx_requires_subscript(__n);
 220:/usr/arm-none-eabi/include/c++/15.2.0/array **** #endif
 221:/usr/arm-none-eabi/include/c++/15.2.0/array **** 	return _M_elems[__n];
 222:/usr/arm-none-eabi/include/c++/15.2.0/array ****       }
 223:/usr/arm-none-eabi/include/c++/15.2.0/array **** 
 224:/usr/arm-none-eabi/include/c++/15.2.0/array ****       _GLIBCXX17_CONSTEXPR reference
 225:/usr/arm-none-eabi/include/c++/15.2.0/array ****       at(size_type __n)
 226:/usr/arm-none-eabi/include/c++/15.2.0/array ****       {
 227:/usr/arm-none-eabi/include/c++/15.2.0/array **** 	if (__n >= _Nm)
 228:/usr/arm-none-eabi/include/c++/15.2.0/array **** 	  std::__throw_out_of_range_fmt(__N("array::at: __n (which is %zu) "
 229:/usr/arm-none-eabi/include/c++/15.2.0/array **** 					    ">= _Nm (which is %zu)"),
 230:/usr/arm-none-eabi/include/c++/15.2.0/array **** 					__n, _Nm);
 231:/usr/arm-none-eabi/include/c++/15.2.0/array **** 	return _M_elems[__n];
 232:/usr/arm-none-eabi/include/c++/15.2.0/array ****       }
ARM GAS  /tmp/cc8r9C7y.s 			page 75


 233:/usr/arm-none-eabi/include/c++/15.2.0/array **** 
 234:/usr/arm-none-eabi/include/c++/15.2.0/array ****       constexpr const_reference
 235:/usr/arm-none-eabi/include/c++/15.2.0/array ****       at(size_type __n) const
 236:/usr/arm-none-eabi/include/c++/15.2.0/array ****       {
 237:/usr/arm-none-eabi/include/c++/15.2.0/array **** 	// Result of conditional expression must be an lvalue so use
 238:/usr/arm-none-eabi/include/c++/15.2.0/array **** 	// boolean ? lvalue : (throw-expr, lvalue)
 239:/usr/arm-none-eabi/include/c++/15.2.0/array **** 	return __n < _Nm ? _M_elems[__n]
 240:/usr/arm-none-eabi/include/c++/15.2.0/array **** 	  : (std::__throw_out_of_range_fmt(__N("array::at: __n (which is %zu) "
 241:/usr/arm-none-eabi/include/c++/15.2.0/array **** 					       ">= _Nm (which is %zu)"),
 242:/usr/arm-none-eabi/include/c++/15.2.0/array **** 					   __n, _Nm),
 243:/usr/arm-none-eabi/include/c++/15.2.0/array **** 	     _M_elems[__n]);
 244:/usr/arm-none-eabi/include/c++/15.2.0/array ****       }
 245:/usr/arm-none-eabi/include/c++/15.2.0/array **** 
 246:/usr/arm-none-eabi/include/c++/15.2.0/array ****       [[__nodiscard__]]
 247:/usr/arm-none-eabi/include/c++/15.2.0/array ****       _GLIBCXX17_CONSTEXPR reference
 248:/usr/arm-none-eabi/include/c++/15.2.0/array ****       front() noexcept
 249:/usr/arm-none-eabi/include/c++/15.2.0/array ****       {
 250:/usr/arm-none-eabi/include/c++/15.2.0/array **** 	__glibcxx_requires_nonempty();
 251:/usr/arm-none-eabi/include/c++/15.2.0/array **** 	return _M_elems[(size_type)0];
 252:/usr/arm-none-eabi/include/c++/15.2.0/array ****       }
 253:/usr/arm-none-eabi/include/c++/15.2.0/array **** 
 254:/usr/arm-none-eabi/include/c++/15.2.0/array ****       [[__nodiscard__]]
 255:/usr/arm-none-eabi/include/c++/15.2.0/array ****       constexpr const_reference
 256:/usr/arm-none-eabi/include/c++/15.2.0/array ****       front() const noexcept
 257:/usr/arm-none-eabi/include/c++/15.2.0/array ****       {
 258:/usr/arm-none-eabi/include/c++/15.2.0/array **** #if __cplusplus >= 201402L
 259:/usr/arm-none-eabi/include/c++/15.2.0/array **** 	__glibcxx_requires_nonempty();
 260:/usr/arm-none-eabi/include/c++/15.2.0/array **** #endif
 261:/usr/arm-none-eabi/include/c++/15.2.0/array **** 	return _M_elems[(size_type)0];
 262:/usr/arm-none-eabi/include/c++/15.2.0/array ****       }
 263:/usr/arm-none-eabi/include/c++/15.2.0/array **** 
 264:/usr/arm-none-eabi/include/c++/15.2.0/array ****       [[__nodiscard__]]
 265:/usr/arm-none-eabi/include/c++/15.2.0/array ****       _GLIBCXX17_CONSTEXPR reference
 266:/usr/arm-none-eabi/include/c++/15.2.0/array ****       back() noexcept
 267:/usr/arm-none-eabi/include/c++/15.2.0/array ****       {
 268:/usr/arm-none-eabi/include/c++/15.2.0/array **** 	__glibcxx_requires_nonempty();
 269:/usr/arm-none-eabi/include/c++/15.2.0/array **** 	return _M_elems[_Nm - 1];
 270:/usr/arm-none-eabi/include/c++/15.2.0/array ****       }
 271:/usr/arm-none-eabi/include/c++/15.2.0/array **** 
 272:/usr/arm-none-eabi/include/c++/15.2.0/array ****       [[__nodiscard__]]
 273:/usr/arm-none-eabi/include/c++/15.2.0/array ****       constexpr const_reference
 274:/usr/arm-none-eabi/include/c++/15.2.0/array ****       back() const noexcept
 275:/usr/arm-none-eabi/include/c++/15.2.0/array ****       {
 276:/usr/arm-none-eabi/include/c++/15.2.0/array **** #if __cplusplus >= 201402L
 277:/usr/arm-none-eabi/include/c++/15.2.0/array **** 	__glibcxx_requires_nonempty();
 278:/usr/arm-none-eabi/include/c++/15.2.0/array **** #endif
 279:/usr/arm-none-eabi/include/c++/15.2.0/array **** 	return _M_elems[_Nm - 1];
 280:/usr/arm-none-eabi/include/c++/15.2.0/array ****       }
 281:/usr/arm-none-eabi/include/c++/15.2.0/array **** 
 282:/usr/arm-none-eabi/include/c++/15.2.0/array ****       [[__nodiscard__, __gnu__::__const__, __gnu__::__always_inline__]]
 283:/usr/arm-none-eabi/include/c++/15.2.0/array ****       _GLIBCXX17_CONSTEXPR pointer
 284:/usr/arm-none-eabi/include/c++/15.2.0/array ****       data() noexcept
 285:/usr/arm-none-eabi/include/c++/15.2.0/array ****       { return static_cast<pointer>(_M_elems); }
 2738              		.loc 6 285 45 is_stmt 0 view .LVU777
 2739 0000 00F14001 		add	r1, r0, #64
 2740              	.LBE824:
 2741              	.LBE823:
ARM GAS  /tmp/cc8r9C7y.s 			page 76


 2742              	.LBE822:
 2743              	.LBB826:
 2744              	.LBB827:
 145:/usr/arm-none-eabi/include/c++/15.2.0/array **** 
 2745              		.loc 6 145 37 discriminator 1 view .LVU778
 2746 0004 00F15C03 		add	r3, r0, #92
 2747              	.LBE827:
 2748              	.LBE826:
 2749              	.LBB828:
 2750              	.LBB829:
 2751              	.LBB830:
 2752              		.file 7 "/usr/arm-none-eabi/include/c++/15.2.0/bits/stl_algo.h"
   1:/usr/arm-none-eabi/include/c++/15.2.0/bits/stl_algo.h **** // Algorithm implementation -*- C++ -*-
   2:/usr/arm-none-eabi/include/c++/15.2.0/bits/stl_algo.h **** 
   3:/usr/arm-none-eabi/include/c++/15.2.0/bits/stl_algo.h **** // Copyright (C) 2001-2025 Free Software Foundation, Inc.
   4:/usr/arm-none-eabi/include/c++/15.2.0/bits/stl_algo.h **** //
   5:/usr/arm-none-eabi/include/c++/15.2.0/bits/stl_algo.h **** // This file is part of the GNU ISO C++ Library.  This library is free
   6:/usr/arm-none-eabi/include/c++/15.2.0/bits/stl_algo.h **** // software; you can redistribute it and/or modify it under the
   7:/usr/arm-none-eabi/include/c++/15.2.0/bits/stl_algo.h **** // terms of the GNU General Public License as published by the
   8:/usr/arm-none-eabi/include/c++/15.2.0/bits/stl_algo.h **** // Free Software Foundation; either version 3, or (at your option)
   9:/usr/arm-none-eabi/include/c++/15.2.0/bits/stl_algo.h **** // any later version.
  10:/usr/arm-none-eabi/include/c++/15.2.0/bits/stl_algo.h **** 
  11:/usr/arm-none-eabi/include/c++/15.2.0/bits/stl_algo.h **** // This library is distributed in the hope that it will be useful,
  12:/usr/arm-none-eabi/include/c++/15.2.0/bits/stl_algo.h **** // but WITHOUT ANY WARRANTY; without even the implied warranty of
  13:/usr/arm-none-eabi/include/c++/15.2.0/bits/stl_algo.h **** // MERCHANTABILITY or FITNESS FOR A PARTICULAR PURPOSE.  See the
  14:/usr/arm-none-eabi/include/c++/15.2.0/bits/stl_algo.h **** // GNU General Public License for more details.
  15:/usr/arm-none-eabi/include/c++/15.2.0/bits/stl_algo.h **** 
  16:/usr/arm-none-eabi/include/c++/15.2.0/bits/stl_algo.h **** // Under Section 7 of GPL version 3, you are granted additional
  17:/usr/arm-none-eabi/include/c++/15.2.0/bits/stl_algo.h **** // permissions described in the GCC Runtime Library Exception, version
  18:/usr/arm-none-eabi/include/c++/15.2.0/bits/stl_algo.h **** // 3.1, as published by the Free Software Foundation.
  19:/usr/arm-none-eabi/include/c++/15.2.0/bits/stl_algo.h **** 
  20:/usr/arm-none-eabi/include/c++/15.2.0/bits/stl_algo.h **** // You should have received a copy of the GNU General Public License and
  21:/usr/arm-none-eabi/include/c++/15.2.0/bits/stl_algo.h **** // a copy of the GCC Runtime Library Exception along with this program;
  22:/usr/arm-none-eabi/include/c++/15.2.0/bits/stl_algo.h **** // see the files COPYING3 and COPYING.RUNTIME respectively.  If not, see
  23:/usr/arm-none-eabi/include/c++/15.2.0/bits/stl_algo.h **** // <http://www.gnu.org/licenses/>.
  24:/usr/arm-none-eabi/include/c++/15.2.0/bits/stl_algo.h **** 
  25:/usr/arm-none-eabi/include/c++/15.2.0/bits/stl_algo.h **** /*
  26:/usr/arm-none-eabi/include/c++/15.2.0/bits/stl_algo.h ****  *
  27:/usr/arm-none-eabi/include/c++/15.2.0/bits/stl_algo.h ****  * Copyright (c) 1994
  28:/usr/arm-none-eabi/include/c++/15.2.0/bits/stl_algo.h ****  * Hewlett-Packard Company
  29:/usr/arm-none-eabi/include/c++/15.2.0/bits/stl_algo.h ****  *
  30:/usr/arm-none-eabi/include/c++/15.2.0/bits/stl_algo.h ****  * Permission to use, copy, modify, distribute and sell this software
  31:/usr/arm-none-eabi/include/c++/15.2.0/bits/stl_algo.h ****  * and its documentation for any purpose is hereby granted without fee,
  32:/usr/arm-none-eabi/include/c++/15.2.0/bits/stl_algo.h ****  * provided that the above copyright notice appear in all copies and
  33:/usr/arm-none-eabi/include/c++/15.2.0/bits/stl_algo.h ****  * that both that copyright notice and this permission notice appear
  34:/usr/arm-none-eabi/include/c++/15.2.0/bits/stl_algo.h ****  * in supporting documentation.  Hewlett-Packard Company makes no
  35:/usr/arm-none-eabi/include/c++/15.2.0/bits/stl_algo.h ****  * representations about the suitability of this software for any
  36:/usr/arm-none-eabi/include/c++/15.2.0/bits/stl_algo.h ****  * purpose.  It is provided "as is" without express or implied warranty.
  37:/usr/arm-none-eabi/include/c++/15.2.0/bits/stl_algo.h ****  *
  38:/usr/arm-none-eabi/include/c++/15.2.0/bits/stl_algo.h ****  *
  39:/usr/arm-none-eabi/include/c++/15.2.0/bits/stl_algo.h ****  * Copyright (c) 1996
  40:/usr/arm-none-eabi/include/c++/15.2.0/bits/stl_algo.h ****  * Silicon Graphics Computer Systems, Inc.
  41:/usr/arm-none-eabi/include/c++/15.2.0/bits/stl_algo.h ****  *
  42:/usr/arm-none-eabi/include/c++/15.2.0/bits/stl_algo.h ****  * Permission to use, copy, modify, distribute and sell this software
  43:/usr/arm-none-eabi/include/c++/15.2.0/bits/stl_algo.h ****  * and its documentation for any purpose is hereby granted without fee,
  44:/usr/arm-none-eabi/include/c++/15.2.0/bits/stl_algo.h ****  * provided that the above copyright notice appear in all copies and
  45:/usr/arm-none-eabi/include/c++/15.2.0/bits/stl_algo.h ****  * that both that copyright notice and this permission notice appear
ARM GAS  /tmp/cc8r9C7y.s 			page 77


  46:/usr/arm-none-eabi/include/c++/15.2.0/bits/stl_algo.h ****  * in supporting documentation.  Silicon Graphics makes no
  47:/usr/arm-none-eabi/include/c++/15.2.0/bits/stl_algo.h ****  * representations about the suitability of this software for any
  48:/usr/arm-none-eabi/include/c++/15.2.0/bits/stl_algo.h ****  * purpose.  It is provided "as is" without express or implied warranty.
  49:/usr/arm-none-eabi/include/c++/15.2.0/bits/stl_algo.h ****  */
  50:/usr/arm-none-eabi/include/c++/15.2.0/bits/stl_algo.h **** 
  51:/usr/arm-none-eabi/include/c++/15.2.0/bits/stl_algo.h **** /** @file bits/stl_algo.h
  52:/usr/arm-none-eabi/include/c++/15.2.0/bits/stl_algo.h ****  *  This is an internal header file, included by other library headers.
  53:/usr/arm-none-eabi/include/c++/15.2.0/bits/stl_algo.h ****  *  Do not attempt to use it directly. @headername{algorithm}
  54:/usr/arm-none-eabi/include/c++/15.2.0/bits/stl_algo.h ****  */
  55:/usr/arm-none-eabi/include/c++/15.2.0/bits/stl_algo.h **** 
  56:/usr/arm-none-eabi/include/c++/15.2.0/bits/stl_algo.h **** #ifndef _STL_ALGO_H
  57:/usr/arm-none-eabi/include/c++/15.2.0/bits/stl_algo.h **** #define _STL_ALGO_H 1
  58:/usr/arm-none-eabi/include/c++/15.2.0/bits/stl_algo.h **** 
  59:/usr/arm-none-eabi/include/c++/15.2.0/bits/stl_algo.h **** #include <bits/algorithmfwd.h>
  60:/usr/arm-none-eabi/include/c++/15.2.0/bits/stl_algo.h **** #include <bits/stl_algobase.h>
  61:/usr/arm-none-eabi/include/c++/15.2.0/bits/stl_algo.h **** #include <bits/stl_heap.h>
  62:/usr/arm-none-eabi/include/c++/15.2.0/bits/stl_algo.h **** #include <bits/predefined_ops.h>
  63:/usr/arm-none-eabi/include/c++/15.2.0/bits/stl_algo.h **** 
  64:/usr/arm-none-eabi/include/c++/15.2.0/bits/stl_algo.h **** #if __cplusplus >= 201103L
  65:/usr/arm-none-eabi/include/c++/15.2.0/bits/stl_algo.h **** #include <bits/uniform_int_dist.h>
  66:/usr/arm-none-eabi/include/c++/15.2.0/bits/stl_algo.h **** #endif
  67:/usr/arm-none-eabi/include/c++/15.2.0/bits/stl_algo.h **** 
  68:/usr/arm-none-eabi/include/c++/15.2.0/bits/stl_algo.h **** #if _GLIBCXX_HOSTED
  69:/usr/arm-none-eabi/include/c++/15.2.0/bits/stl_algo.h **** # include <bits/stl_tempbuf.h>  // for _Temporary_buffer
  70:/usr/arm-none-eabi/include/c++/15.2.0/bits/stl_algo.h **** # if (__cplusplus <= 201103L || _GLIBCXX_USE_DEPRECATED)
  71:/usr/arm-none-eabi/include/c++/15.2.0/bits/stl_algo.h **** #  include <cstdlib>	     // for rand
  72:/usr/arm-none-eabi/include/c++/15.2.0/bits/stl_algo.h **** # endif
  73:/usr/arm-none-eabi/include/c++/15.2.0/bits/stl_algo.h **** #endif
  74:/usr/arm-none-eabi/include/c++/15.2.0/bits/stl_algo.h **** 
  75:/usr/arm-none-eabi/include/c++/15.2.0/bits/stl_algo.h **** #pragma GCC diagnostic push
  76:/usr/arm-none-eabi/include/c++/15.2.0/bits/stl_algo.h **** #pragma GCC diagnostic ignored "-Wc++11-extensions" // inline namespace
  77:/usr/arm-none-eabi/include/c++/15.2.0/bits/stl_algo.h **** 
  78:/usr/arm-none-eabi/include/c++/15.2.0/bits/stl_algo.h **** // See concept_check.h for the __glibcxx_*_requires macros.
  79:/usr/arm-none-eabi/include/c++/15.2.0/bits/stl_algo.h **** 
  80:/usr/arm-none-eabi/include/c++/15.2.0/bits/stl_algo.h **** namespace std _GLIBCXX_VISIBILITY(default)
  81:/usr/arm-none-eabi/include/c++/15.2.0/bits/stl_algo.h **** {
  82:/usr/arm-none-eabi/include/c++/15.2.0/bits/stl_algo.h **** _GLIBCXX_BEGIN_NAMESPACE_VERSION
  83:/usr/arm-none-eabi/include/c++/15.2.0/bits/stl_algo.h **** 
  84:/usr/arm-none-eabi/include/c++/15.2.0/bits/stl_algo.h ****   /// Swaps the median value of *__a, *__b and *__c under __comp to *__result
  85:/usr/arm-none-eabi/include/c++/15.2.0/bits/stl_algo.h ****   template<typename _Iterator, typename _Compare>
  86:/usr/arm-none-eabi/include/c++/15.2.0/bits/stl_algo.h ****     _GLIBCXX20_CONSTEXPR
  87:/usr/arm-none-eabi/include/c++/15.2.0/bits/stl_algo.h ****     void
  88:/usr/arm-none-eabi/include/c++/15.2.0/bits/stl_algo.h ****     __move_median_to_first(_Iterator __result,_Iterator __a, _Iterator __b,
  89:/usr/arm-none-eabi/include/c++/15.2.0/bits/stl_algo.h **** 			   _Iterator __c, _Compare __comp)
  90:/usr/arm-none-eabi/include/c++/15.2.0/bits/stl_algo.h ****     {
  91:/usr/arm-none-eabi/include/c++/15.2.0/bits/stl_algo.h ****       if (__comp(__a, __b))
  92:/usr/arm-none-eabi/include/c++/15.2.0/bits/stl_algo.h **** 	{
  93:/usr/arm-none-eabi/include/c++/15.2.0/bits/stl_algo.h **** 	  if (__comp(__b, __c))
  94:/usr/arm-none-eabi/include/c++/15.2.0/bits/stl_algo.h **** 	    std::iter_swap(__result, __b);
  95:/usr/arm-none-eabi/include/c++/15.2.0/bits/stl_algo.h **** 	  else if (__comp(__a, __c))
  96:/usr/arm-none-eabi/include/c++/15.2.0/bits/stl_algo.h **** 	    std::iter_swap(__result, __c);
  97:/usr/arm-none-eabi/include/c++/15.2.0/bits/stl_algo.h **** 	  else
  98:/usr/arm-none-eabi/include/c++/15.2.0/bits/stl_algo.h **** 	    std::iter_swap(__result, __a);
  99:/usr/arm-none-eabi/include/c++/15.2.0/bits/stl_algo.h **** 	}
 100:/usr/arm-none-eabi/include/c++/15.2.0/bits/stl_algo.h ****       else if (__comp(__a, __c))
 101:/usr/arm-none-eabi/include/c++/15.2.0/bits/stl_algo.h **** 	std::iter_swap(__result, __a);
 102:/usr/arm-none-eabi/include/c++/15.2.0/bits/stl_algo.h ****       else if (__comp(__b, __c))
ARM GAS  /tmp/cc8r9C7y.s 			page 78


 103:/usr/arm-none-eabi/include/c++/15.2.0/bits/stl_algo.h **** 	std::iter_swap(__result, __c);
 104:/usr/arm-none-eabi/include/c++/15.2.0/bits/stl_algo.h ****       else
 105:/usr/arm-none-eabi/include/c++/15.2.0/bits/stl_algo.h **** 	std::iter_swap(__result, __b);
 106:/usr/arm-none-eabi/include/c++/15.2.0/bits/stl_algo.h ****     }
 107:/usr/arm-none-eabi/include/c++/15.2.0/bits/stl_algo.h **** 
 108:/usr/arm-none-eabi/include/c++/15.2.0/bits/stl_algo.h ****   /// Provided for stable_partition to use.
 109:/usr/arm-none-eabi/include/c++/15.2.0/bits/stl_algo.h ****   template<typename _InputIterator, typename _Predicate>
 110:/usr/arm-none-eabi/include/c++/15.2.0/bits/stl_algo.h ****     _GLIBCXX20_CONSTEXPR
 111:/usr/arm-none-eabi/include/c++/15.2.0/bits/stl_algo.h ****     inline _InputIterator
 112:/usr/arm-none-eabi/include/c++/15.2.0/bits/stl_algo.h ****     __find_if_not(_InputIterator __first, _InputIterator __last,
 113:/usr/arm-none-eabi/include/c++/15.2.0/bits/stl_algo.h **** 		  _Predicate __pred)
 114:/usr/arm-none-eabi/include/c++/15.2.0/bits/stl_algo.h ****     {
 115:/usr/arm-none-eabi/include/c++/15.2.0/bits/stl_algo.h ****       return std::__find_if(__first, __last,
 116:/usr/arm-none-eabi/include/c++/15.2.0/bits/stl_algo.h **** 			    __gnu_cxx::__ops::__negate(__pred));
 117:/usr/arm-none-eabi/include/c++/15.2.0/bits/stl_algo.h ****     }
 118:/usr/arm-none-eabi/include/c++/15.2.0/bits/stl_algo.h **** 
 119:/usr/arm-none-eabi/include/c++/15.2.0/bits/stl_algo.h ****   /// Like find_if_not(), but uses and updates a count of the
 120:/usr/arm-none-eabi/include/c++/15.2.0/bits/stl_algo.h ****   /// remaining range length instead of comparing against an end
 121:/usr/arm-none-eabi/include/c++/15.2.0/bits/stl_algo.h ****   /// iterator.
 122:/usr/arm-none-eabi/include/c++/15.2.0/bits/stl_algo.h ****   template<typename _InputIterator, typename _Predicate, typename _Distance>
 123:/usr/arm-none-eabi/include/c++/15.2.0/bits/stl_algo.h ****     _GLIBCXX20_CONSTEXPR
 124:/usr/arm-none-eabi/include/c++/15.2.0/bits/stl_algo.h ****     _InputIterator
 125:/usr/arm-none-eabi/include/c++/15.2.0/bits/stl_algo.h ****     __find_if_not_n(_InputIterator __first, _Distance& __len, _Predicate __pred)
 126:/usr/arm-none-eabi/include/c++/15.2.0/bits/stl_algo.h ****     {
 127:/usr/arm-none-eabi/include/c++/15.2.0/bits/stl_algo.h ****       for (; __len; --__len,  (void) ++__first)
 128:/usr/arm-none-eabi/include/c++/15.2.0/bits/stl_algo.h **** 	if (!__pred(__first))
 129:/usr/arm-none-eabi/include/c++/15.2.0/bits/stl_algo.h **** 	  break;
 130:/usr/arm-none-eabi/include/c++/15.2.0/bits/stl_algo.h ****       return __first;
 131:/usr/arm-none-eabi/include/c++/15.2.0/bits/stl_algo.h ****     }
 132:/usr/arm-none-eabi/include/c++/15.2.0/bits/stl_algo.h **** 
 133:/usr/arm-none-eabi/include/c++/15.2.0/bits/stl_algo.h ****   // set_difference
 134:/usr/arm-none-eabi/include/c++/15.2.0/bits/stl_algo.h ****   // set_intersection
 135:/usr/arm-none-eabi/include/c++/15.2.0/bits/stl_algo.h ****   // set_symmetric_difference
 136:/usr/arm-none-eabi/include/c++/15.2.0/bits/stl_algo.h ****   // set_union
 137:/usr/arm-none-eabi/include/c++/15.2.0/bits/stl_algo.h ****   // for_each
 138:/usr/arm-none-eabi/include/c++/15.2.0/bits/stl_algo.h ****   // find
 139:/usr/arm-none-eabi/include/c++/15.2.0/bits/stl_algo.h ****   // find_if
 140:/usr/arm-none-eabi/include/c++/15.2.0/bits/stl_algo.h ****   // find_first_of
 141:/usr/arm-none-eabi/include/c++/15.2.0/bits/stl_algo.h ****   // adjacent_find
 142:/usr/arm-none-eabi/include/c++/15.2.0/bits/stl_algo.h ****   // count
 143:/usr/arm-none-eabi/include/c++/15.2.0/bits/stl_algo.h ****   // count_if
 144:/usr/arm-none-eabi/include/c++/15.2.0/bits/stl_algo.h ****   // search
 145:/usr/arm-none-eabi/include/c++/15.2.0/bits/stl_algo.h ****   // search_n
 146:/usr/arm-none-eabi/include/c++/15.2.0/bits/stl_algo.h **** 
 147:/usr/arm-none-eabi/include/c++/15.2.0/bits/stl_algo.h ****   /**
 148:/usr/arm-none-eabi/include/c++/15.2.0/bits/stl_algo.h ****    *  This is an helper function for search_n overloaded for forward iterators.
 149:/usr/arm-none-eabi/include/c++/15.2.0/bits/stl_algo.h ****   */
 150:/usr/arm-none-eabi/include/c++/15.2.0/bits/stl_algo.h ****   template<typename _ForwardIterator, typename _Integer,
 151:/usr/arm-none-eabi/include/c++/15.2.0/bits/stl_algo.h **** 	   typename _UnaryPredicate>
 152:/usr/arm-none-eabi/include/c++/15.2.0/bits/stl_algo.h ****     _GLIBCXX20_CONSTEXPR
 153:/usr/arm-none-eabi/include/c++/15.2.0/bits/stl_algo.h ****     _ForwardIterator
 154:/usr/arm-none-eabi/include/c++/15.2.0/bits/stl_algo.h ****     __search_n_aux(_ForwardIterator __first, _ForwardIterator __last,
 155:/usr/arm-none-eabi/include/c++/15.2.0/bits/stl_algo.h **** 		   _Integer __count, _UnaryPredicate __unary_pred,
 156:/usr/arm-none-eabi/include/c++/15.2.0/bits/stl_algo.h **** 		   std::forward_iterator_tag)
 157:/usr/arm-none-eabi/include/c++/15.2.0/bits/stl_algo.h ****     {
 158:/usr/arm-none-eabi/include/c++/15.2.0/bits/stl_algo.h ****       __first = std::__find_if(__first, __last, __unary_pred);
 159:/usr/arm-none-eabi/include/c++/15.2.0/bits/stl_algo.h ****       while (__first != __last)
ARM GAS  /tmp/cc8r9C7y.s 			page 79


 160:/usr/arm-none-eabi/include/c++/15.2.0/bits/stl_algo.h **** 	{
 161:/usr/arm-none-eabi/include/c++/15.2.0/bits/stl_algo.h **** 	  typename iterator_traits<_ForwardIterator>::difference_type
 162:/usr/arm-none-eabi/include/c++/15.2.0/bits/stl_algo.h **** 	    __n = __count;
 163:/usr/arm-none-eabi/include/c++/15.2.0/bits/stl_algo.h **** 	  _ForwardIterator __i = __first;
 164:/usr/arm-none-eabi/include/c++/15.2.0/bits/stl_algo.h **** 	  ++__i;
 165:/usr/arm-none-eabi/include/c++/15.2.0/bits/stl_algo.h **** 	  while (__i != __last && __n != 1 && __unary_pred(__i))
 166:/usr/arm-none-eabi/include/c++/15.2.0/bits/stl_algo.h **** 	    {
 167:/usr/arm-none-eabi/include/c++/15.2.0/bits/stl_algo.h **** 	      ++__i;
 168:/usr/arm-none-eabi/include/c++/15.2.0/bits/stl_algo.h **** 	      --__n;
 169:/usr/arm-none-eabi/include/c++/15.2.0/bits/stl_algo.h **** 	    }
 170:/usr/arm-none-eabi/include/c++/15.2.0/bits/stl_algo.h **** 	  if (__n == 1)
 171:/usr/arm-none-eabi/include/c++/15.2.0/bits/stl_algo.h **** 	    return __first;
 172:/usr/arm-none-eabi/include/c++/15.2.0/bits/stl_algo.h **** 	  if (__i == __last)
 173:/usr/arm-none-eabi/include/c++/15.2.0/bits/stl_algo.h **** 	    return __last;
 174:/usr/arm-none-eabi/include/c++/15.2.0/bits/stl_algo.h **** 	  __first = std::__find_if(++__i, __last, __unary_pred);
 175:/usr/arm-none-eabi/include/c++/15.2.0/bits/stl_algo.h **** 	}
 176:/usr/arm-none-eabi/include/c++/15.2.0/bits/stl_algo.h ****       return __last;
 177:/usr/arm-none-eabi/include/c++/15.2.0/bits/stl_algo.h ****     }
 178:/usr/arm-none-eabi/include/c++/15.2.0/bits/stl_algo.h **** 
 179:/usr/arm-none-eabi/include/c++/15.2.0/bits/stl_algo.h ****   /**
 180:/usr/arm-none-eabi/include/c++/15.2.0/bits/stl_algo.h ****    *  This is an helper function for search_n overloaded for random access
 181:/usr/arm-none-eabi/include/c++/15.2.0/bits/stl_algo.h ****    *  iterators.
 182:/usr/arm-none-eabi/include/c++/15.2.0/bits/stl_algo.h ****   */
 183:/usr/arm-none-eabi/include/c++/15.2.0/bits/stl_algo.h ****   template<typename _RandomAccessIter, typename _Integer,
 184:/usr/arm-none-eabi/include/c++/15.2.0/bits/stl_algo.h **** 	   typename _UnaryPredicate>
 185:/usr/arm-none-eabi/include/c++/15.2.0/bits/stl_algo.h ****     _GLIBCXX20_CONSTEXPR
 186:/usr/arm-none-eabi/include/c++/15.2.0/bits/stl_algo.h ****     _RandomAccessIter
 187:/usr/arm-none-eabi/include/c++/15.2.0/bits/stl_algo.h ****     __search_n_aux(_RandomAccessIter __first, _RandomAccessIter __last,
 188:/usr/arm-none-eabi/include/c++/15.2.0/bits/stl_algo.h **** 		   _Integer __count, _UnaryPredicate __unary_pred,
 189:/usr/arm-none-eabi/include/c++/15.2.0/bits/stl_algo.h **** 		   std::random_access_iterator_tag)
 190:/usr/arm-none-eabi/include/c++/15.2.0/bits/stl_algo.h ****     {
 191:/usr/arm-none-eabi/include/c++/15.2.0/bits/stl_algo.h ****       typedef typename std::iterator_traits<_RandomAccessIter>::difference_type
 192:/usr/arm-none-eabi/include/c++/15.2.0/bits/stl_algo.h **** 	_DistanceType;
 193:/usr/arm-none-eabi/include/c++/15.2.0/bits/stl_algo.h **** 
 194:/usr/arm-none-eabi/include/c++/15.2.0/bits/stl_algo.h ****       _DistanceType __tailSize = __last - __first;
 195:/usr/arm-none-eabi/include/c++/15.2.0/bits/stl_algo.h ****       _DistanceType __remainder = __count;
 196:/usr/arm-none-eabi/include/c++/15.2.0/bits/stl_algo.h **** 
 197:/usr/arm-none-eabi/include/c++/15.2.0/bits/stl_algo.h ****       while (__remainder <= __tailSize) // the main loop...
 198:/usr/arm-none-eabi/include/c++/15.2.0/bits/stl_algo.h **** 	{
 199:/usr/arm-none-eabi/include/c++/15.2.0/bits/stl_algo.h **** 	  __first += __remainder;
 200:/usr/arm-none-eabi/include/c++/15.2.0/bits/stl_algo.h **** 	  __tailSize -= __remainder;
 201:/usr/arm-none-eabi/include/c++/15.2.0/bits/stl_algo.h **** 	  // __first here is always pointing to one past the last element of
 202:/usr/arm-none-eabi/include/c++/15.2.0/bits/stl_algo.h **** 	  // next possible match.
 203:/usr/arm-none-eabi/include/c++/15.2.0/bits/stl_algo.h **** 	  _RandomAccessIter __backTrack = __first;
 204:/usr/arm-none-eabi/include/c++/15.2.0/bits/stl_algo.h **** 	  while (__unary_pred(--__backTrack))
 205:/usr/arm-none-eabi/include/c++/15.2.0/bits/stl_algo.h **** 	    {
 206:/usr/arm-none-eabi/include/c++/15.2.0/bits/stl_algo.h **** 	      if (--__remainder == 0)
 207:/usr/arm-none-eabi/include/c++/15.2.0/bits/stl_algo.h **** 		return (__first - __count); // Success
 208:/usr/arm-none-eabi/include/c++/15.2.0/bits/stl_algo.h **** 	    }
 209:/usr/arm-none-eabi/include/c++/15.2.0/bits/stl_algo.h **** 	  __remainder = __count + 1 - (__first - __backTrack);
 210:/usr/arm-none-eabi/include/c++/15.2.0/bits/stl_algo.h **** 	}
 211:/usr/arm-none-eabi/include/c++/15.2.0/bits/stl_algo.h ****       return __last; // Failure
 212:/usr/arm-none-eabi/include/c++/15.2.0/bits/stl_algo.h ****     }
 213:/usr/arm-none-eabi/include/c++/15.2.0/bits/stl_algo.h **** 
 214:/usr/arm-none-eabi/include/c++/15.2.0/bits/stl_algo.h ****   template<typename _ForwardIterator, typename _Integer,
 215:/usr/arm-none-eabi/include/c++/15.2.0/bits/stl_algo.h **** 	   typename _UnaryPredicate>
 216:/usr/arm-none-eabi/include/c++/15.2.0/bits/stl_algo.h ****     _GLIBCXX20_CONSTEXPR
ARM GAS  /tmp/cc8r9C7y.s 			page 80


 217:/usr/arm-none-eabi/include/c++/15.2.0/bits/stl_algo.h ****     _ForwardIterator
 218:/usr/arm-none-eabi/include/c++/15.2.0/bits/stl_algo.h ****     __search_n(_ForwardIterator __first, _ForwardIterator __last,
 219:/usr/arm-none-eabi/include/c++/15.2.0/bits/stl_algo.h **** 	       _Integer __count,
 220:/usr/arm-none-eabi/include/c++/15.2.0/bits/stl_algo.h **** 	       _UnaryPredicate __unary_pred)
 221:/usr/arm-none-eabi/include/c++/15.2.0/bits/stl_algo.h ****     {
 222:/usr/arm-none-eabi/include/c++/15.2.0/bits/stl_algo.h ****       if (__count <= 0)
 223:/usr/arm-none-eabi/include/c++/15.2.0/bits/stl_algo.h **** 	return __first;
 224:/usr/arm-none-eabi/include/c++/15.2.0/bits/stl_algo.h **** 
 225:/usr/arm-none-eabi/include/c++/15.2.0/bits/stl_algo.h ****       if (__count == 1)
 226:/usr/arm-none-eabi/include/c++/15.2.0/bits/stl_algo.h **** 	return std::__find_if(__first, __last, __unary_pred);
 227:/usr/arm-none-eabi/include/c++/15.2.0/bits/stl_algo.h **** 
 228:/usr/arm-none-eabi/include/c++/15.2.0/bits/stl_algo.h ****       return std::__search_n_aux(__first, __last, __count, __unary_pred,
 229:/usr/arm-none-eabi/include/c++/15.2.0/bits/stl_algo.h **** 				 std::__iterator_category(__first));
 230:/usr/arm-none-eabi/include/c++/15.2.0/bits/stl_algo.h ****     }
 231:/usr/arm-none-eabi/include/c++/15.2.0/bits/stl_algo.h **** 
 232:/usr/arm-none-eabi/include/c++/15.2.0/bits/stl_algo.h ****   // find_end for forward iterators.
 233:/usr/arm-none-eabi/include/c++/15.2.0/bits/stl_algo.h ****   template<typename _ForwardIterator1, typename _ForwardIterator2,
 234:/usr/arm-none-eabi/include/c++/15.2.0/bits/stl_algo.h **** 	   typename _BinaryPredicate>
 235:/usr/arm-none-eabi/include/c++/15.2.0/bits/stl_algo.h ****     _GLIBCXX20_CONSTEXPR
 236:/usr/arm-none-eabi/include/c++/15.2.0/bits/stl_algo.h ****     _ForwardIterator1
 237:/usr/arm-none-eabi/include/c++/15.2.0/bits/stl_algo.h ****     __find_end(_ForwardIterator1 __first1, _ForwardIterator1 __last1,
 238:/usr/arm-none-eabi/include/c++/15.2.0/bits/stl_algo.h **** 	       _ForwardIterator2 __first2, _ForwardIterator2 __last2,
 239:/usr/arm-none-eabi/include/c++/15.2.0/bits/stl_algo.h **** 	       forward_iterator_tag, forward_iterator_tag,
 240:/usr/arm-none-eabi/include/c++/15.2.0/bits/stl_algo.h **** 	       _BinaryPredicate __comp)
 241:/usr/arm-none-eabi/include/c++/15.2.0/bits/stl_algo.h ****     {
 242:/usr/arm-none-eabi/include/c++/15.2.0/bits/stl_algo.h ****       if (__first2 == __last2)
 243:/usr/arm-none-eabi/include/c++/15.2.0/bits/stl_algo.h **** 	return __last1;
 244:/usr/arm-none-eabi/include/c++/15.2.0/bits/stl_algo.h **** 
 245:/usr/arm-none-eabi/include/c++/15.2.0/bits/stl_algo.h ****       _ForwardIterator1 __result = __last1;
 246:/usr/arm-none-eabi/include/c++/15.2.0/bits/stl_algo.h ****       while (1)
 247:/usr/arm-none-eabi/include/c++/15.2.0/bits/stl_algo.h **** 	{
 248:/usr/arm-none-eabi/include/c++/15.2.0/bits/stl_algo.h **** 	  _ForwardIterator1 __new_result
 249:/usr/arm-none-eabi/include/c++/15.2.0/bits/stl_algo.h **** 	    = std::__search(__first1, __last1, __first2, __last2, __comp);
 250:/usr/arm-none-eabi/include/c++/15.2.0/bits/stl_algo.h **** 	  if (__new_result == __last1)
 251:/usr/arm-none-eabi/include/c++/15.2.0/bits/stl_algo.h **** 	    return __result;
 252:/usr/arm-none-eabi/include/c++/15.2.0/bits/stl_algo.h **** 	  else
 253:/usr/arm-none-eabi/include/c++/15.2.0/bits/stl_algo.h **** 	    {
 254:/usr/arm-none-eabi/include/c++/15.2.0/bits/stl_algo.h **** 	      __result = __new_result;
 255:/usr/arm-none-eabi/include/c++/15.2.0/bits/stl_algo.h **** 	      __first1 = __new_result;
 256:/usr/arm-none-eabi/include/c++/15.2.0/bits/stl_algo.h **** 	      ++__first1;
 257:/usr/arm-none-eabi/include/c++/15.2.0/bits/stl_algo.h **** 	    }
 258:/usr/arm-none-eabi/include/c++/15.2.0/bits/stl_algo.h **** 	}
 259:/usr/arm-none-eabi/include/c++/15.2.0/bits/stl_algo.h ****     }
 260:/usr/arm-none-eabi/include/c++/15.2.0/bits/stl_algo.h **** 
 261:/usr/arm-none-eabi/include/c++/15.2.0/bits/stl_algo.h ****   // find_end for bidirectional iterators (much faster).
