ARM GAS  /tmp/ccxXSPX2.s 			page 1


   1              		.cpu cortex-m7
   2              		.arch armv7e-m
   3              		.fpu fpv5-d16
   4              		.eabi_attribute 28, 1
   5              		.eabi_attribute 20, 1
   6              		.eabi_attribute 21, 1
   7              		.eabi_attribute 23, 3
   8              		.eabi_attribute 24, 1
   9              		.eabi_attribute 25, 1
  10              		.eabi_attribute 26, 1
  11              		.eabi_attribute 30, 2
  12              		.eabi_attribute 34, 1
  13              		.eabi_attribute 18, 4
  14              		.file	"Earth.cpp"
  15              		.text
  16              	.Ltext0:
  17              		.cfi_sections	.debug_frame
  18              		.file 1 "Earth.cpp"
  19              		.section	.text._ZN11EarthEffect10updateTestEffi,"ax",%progbits
  20              		.align	1
  21              		.p2align 2,,3
  22              		.global	_ZN11EarthEffect10updateTestEffi
  23              		.syntax unified
  24              		.thumb
  25              		.thumb_func
  27              	_ZN11EarthEffect10updateTestEffi:
  28              	.LVL0:
  29              	.LFB9649:
   1:Earth.cpp     **** // Earth Reverbscape
   2:Earth.cpp     **** 
   3:Earth.cpp     **** #include "Earth.h"
   4:Earth.cpp     **** 
   5:Earth.cpp     **** #include <span>
   6:Earth.cpp     **** 
   7:Earth.cpp     **** #if USE_DAISY
   8:Earth.cpp     **** #include "daisy_seed.h"
   9:Earth.cpp     **** #include "daisysp.h"
  10:Earth.cpp     **** #include <q/support/literals.hpp>
  11:Earth.cpp     **** namespace q = cycfi::q;
  12:Earth.cpp     **** using namespace q::literals;
  13:Earth.cpp     **** 
  14:Earth.cpp     **** using namespace daisy;
  15:Earth.cpp     **** using namespace daisysp;
  16:Earth.cpp     **** 
  17:Earth.cpp     **** #endif
  18:Earth.cpp     **** 
  19:Earth.cpp     **** #define eq_ON 0
  20:Earth.cpp     **** #define od_ON 0
  21:Earth.cpp     **** 
  22:Earth.cpp     **** #if USE_DAISY
  23:Earth.cpp     **** EarthEffect::EarthEffect(float sampleRate)
  24:Earth.cpp     ****     : octave(sampleRate / resample_factor),
  25:Earth.cpp     ****       eq1(-11, 140_Hz, sampleRate),
  26:Earth.cpp     ****       eq2(5, 160_Hz, sampleRate)
  27:Earth.cpp     **** #else
  28:Earth.cpp     **** EarthEffect::EarthEffect()
  29:Earth.cpp     ****     : AudioStream(1, inputQueueArray_),
ARM GAS  /tmp/ccxXSPX2.s 			page 2


  30:Earth.cpp     ****       octave(AUDIO_SAMPLE_RATE_EXACT / resample_factor)
  31:Earth.cpp     **** #endif
  32:Earth.cpp     **** {
  33:Earth.cpp     ****     for (int j = 0; j < 6; ++j) {
  34:Earth.cpp     ****         buff[j] = 0.0f;
  35:Earth.cpp     ****         buff_out[j] = 0.0f;
  36:Earth.cpp     ****     }
  37:Earth.cpp     **** 
  38:Earth.cpp     ****     setMix(1.0f);
  39:Earth.cpp     ****     setOctaveMode(1);
  40:Earth.cpp     **** 
  41:Earth.cpp     **** #if od_ON
  42:Earth.cpp     ****     overdrive.Init();
  43:Earth.cpp     ****     overdrive.SetDrive(0.4f);
  44:Earth.cpp     ****     current_ODswell = 0.4f;
  45:Earth.cpp     **** #endif
  46:Earth.cpp     **** }
  47:Earth.cpp     **** 
  48:Earth.cpp     **** #if USE_DAISY
  49:Earth.cpp     **** void EarthEffect::update(const float** in, float** out, int idx) {
  50:Earth.cpp     ****     float inputL;
  51:Earth.cpp     ****     float inputR;
  52:Earth.cpp     **** 
  53:Earth.cpp     ****     inputL = inputR = in[0][idx] + 1e-9f; // Anti-denormal
  54:Earth.cpp     **** 
  55:Earth.cpp     ****     buff[bin_counter] = inputL;
  56:Earth.cpp     ****     
  57:Earth.cpp     ****     if (bin_counter > 4) {
  58:Earth.cpp     ****         if (1) {
  59:Earth.cpp     ****             std::span<const float, resample_factor> in_chunk(&(buff[0]), resample_factor);
  60:Earth.cpp     ****             const auto sample = decimate2(in_chunk); 
  61:Earth.cpp     **** 
  62:Earth.cpp     ****             float octave_mix = 0.0;
  63:Earth.cpp     **** 
  64:Earth.cpp     **** #if CPU_LoadEffect
  65:Earth.cpp     ****             uint32_t start_ticks = daisy::System::GetTick();
  66:Earth.cpp     **** #endif
  67:Earth.cpp     ****             octave.update(sample, effect_mode);
  68:Earth.cpp     **** #if CPU_LoadEffect
  69:Earth.cpp     ****             profiled_ticks += (daisy::System::GetTick() - start_ticks);
  70:Earth.cpp     **** #endif
  71:Earth.cpp     **** 
  72:Earth.cpp     ****             if (effect_mode == 1) octave_mix += octave.up1() * 6.0;
  73:Earth.cpp     ****             if (effect_mode == 2) octave_mix += octave.down1() * 6.0;
  74:Earth.cpp     ****             if (effect_mode == 3) octave_mix += octave.down2() * 6.0;
  75:Earth.cpp     **** 
  76:Earth.cpp     ****             auto out_chunk = interpolate(octave_mix);
  77:Earth.cpp     ****             for (size_t j = 0; j < out_chunk.size(); ++j) {
  78:Earth.cpp     **** #if eq_ON
  79:Earth.cpp     ****                 buff_out[j] = eq2(eq1(out_chunk[j]));
  80:Earth.cpp     **** #else
  81:Earth.cpp     ****                 buff_out[j] = out_chunk[j];
  82:Earth.cpp     **** #endif
  83:Earth.cpp     ****             }
  84:Earth.cpp     ****         } 
  85:Earth.cpp     ****         else {
  86:Earth.cpp     ****             // Optimisation CPU : on ne calcule pas l'octaver s'il est coupé
ARM GAS  /tmp/ccxXSPX2.s 			page 3


  87:Earth.cpp     ****             for (size_t j = 0; j < 6; ++j) {
  88:Earth.cpp     ****                 buff_out[j] = 0.0f;
  89:Earth.cpp     ****             }
  90:Earth.cpp     ****         }
  91:Earth.cpp     ****     }
  92:Earth.cpp     **** 
  93:Earth.cpp     ****     // Avance le compteur de temps (0 à 5)
  94:Earth.cpp     ****     bin_counter += 1;
  95:Earth.cpp     ****     if (bin_counter > 5) bin_counter = 0;
  96:Earth.cpp     **** 
  97:Earth.cpp     ****     // Le signal d'effet est le son de l'octaver (ou 0 si désactivé)
  98:Earth.cpp     ****     float octave_signal = buff_out[bin_counter];
  99:Earth.cpp     **** 
 100:Earth.cpp     ****     float effect_output = octave_signal;
 101:Earth.cpp     **** 
 102:Earth.cpp     ****     // Application de l'overdrive si activé
 103:Earth.cpp     **** #if od_ON
 104:Earth.cpp     ****     // Really cool sound when the low octave is overdriven, like epic sci fi blade runner
 105:Earth.cpp     ****     effect_output = overdrive.Process(effect_input * 0.25f) * (1.0f - (current_ODswell * current_OD
 106:Earth.cpp     **** #endif
 107:Earth.cpp     **** 
 108:Earth.cpp     ****     // Mixage final dry/wet pour cet effet de corde
 109:Earth.cpp     ****     out[0][idx] = inputL * dryMix + effect_output * wetMix * volume;
 110:Earth.cpp     ****     out[1][idx] = out[0][idx];
 111:Earth.cpp     **** }
 112:Earth.cpp     **** 
 113:Earth.cpp     **** float EarthEffect::updateTest(const float in, float out, int idx) {
  30              		.loc 1 113 67 view -0
  31              		.cfi_startproc
  32              		@ args = 0, pretend = 0, frame = 0
  33              		@ frame_needed = 0, uses_anonymous_args = 0
  34              		@ link register save eliminated.
 114:Earth.cpp     ****     return in; // Implémentation factice pour satisfaire le compilateur
  35              		.loc 1 114 5 view .LVU1
 115:Earth.cpp     **** }
  36              		.loc 1 115 1 is_stmt 0 view .LVU2
  37 0000 7047     		bx	lr
  38              		.cfi_endproc
  39              	.LFE9649:
  41 0002 00BF     		.section	.text._ZN11EarthEffect12setParameterEif,"ax",%progbits
  42              		.align	1
  43              		.p2align 2,,3
  44              		.global	_ZN11EarthEffect12setParameterEif
  45              		.syntax unified
  46              		.thumb
  47              		.thumb_func
  49              	_ZN11EarthEffect12setParameterEif:
  50              	.LVL1:
  51              	.LFB9653:
 116:Earth.cpp     **** #else
 117:Earth.cpp     **** void EarthEffect::update() {
 118:Earth.cpp     **** 
 119:Earth.cpp     ****     audio_block_t* in = receiveReadOnly(0);
 120:Earth.cpp     ****     if (!in) return;
 121:Earth.cpp     **** 
 122:Earth.cpp     ****     // Pour éviter de faire le gros calcul DSP quand l'effet n'est pas actif, bypass complet
 123:Earth.cpp     ****     if (!active) {
ARM GAS  /tmp/ccxXSPX2.s 			page 4


 124:Earth.cpp     ****         transmit(in, 0);
 125:Earth.cpp     ****         release(in);
 126:Earth.cpp     ****         return;
 127:Earth.cpp     ****     }
 128:Earth.cpp     **** 
 129:Earth.cpp     ****     audio_block_t* out = allocate();
 130:Earth.cpp     ****     if (!out) {
 131:Earth.cpp     ****         release(in);
 132:Earth.cpp     ****         return;
 133:Earth.cpp     ****     }
 134:Earth.cpp     **** 
 135:Earth.cpp     ****     for (int i = 0; i < AUDIO_BLOCK_SAMPLES; i++) {
 136:Earth.cpp     ****         float inputL = (float)in->data[i] / 32768.0f;
 137:Earth.cpp     ****         inputL += 1e-9f; // Anti-denormal
 138:Earth.cpp     **** 
 139:Earth.cpp     ****         buff[bin_counter] = inputL;
 140:Earth.cpp     ****         
 141:Earth.cpp     ****         if (bin_counter > 4) {
 142:Earth.cpp     ****             if (1) {
 143:Earth.cpp     ****                 std::span<const float, resample_factor> in_chunk(&(buff[0]), resample_factor);
 144:Earth.cpp     ****                 const auto sample = decimate2(in_chunk); 
 145:Earth.cpp     **** 
 146:Earth.cpp     ****                 float octave_mix = 0.0f;
 147:Earth.cpp     ****                 octave.update(sample, effect_mode);
 148:Earth.cpp     **** 
 149:Earth.cpp     ****                 if (effect_mode == 1) octave_mix += octave.up1() * 1.0f;
 150:Earth.cpp     ****                 if (effect_mode == 2) octave_mix += octave.down1() * 2.0f;
 151:Earth.cpp     ****                 if (effect_mode == 3) octave_mix += octave.down2() * 4.0f;
 152:Earth.cpp     **** 
 153:Earth.cpp     ****                 auto out_chunk = interpolate(octave_mix);
 154:Earth.cpp     ****                 for (size_t j = 0; j < out_chunk.size(); ++j) {
 155:Earth.cpp     ****                     buff_out[j] = out_chunk[j];
 156:Earth.cpp     ****                 }
 157:Earth.cpp     ****             } 
 158:Earth.cpp     ****             else {
 159:Earth.cpp     ****                 for (size_t j = 0; j < 6; ++j) {
 160:Earth.cpp     ****                     buff_out[j] = 0.0f;
 161:Earth.cpp     ****                 }
 162:Earth.cpp     ****             }
 163:Earth.cpp     ****         }
 164:Earth.cpp     **** 
 165:Earth.cpp     ****         bin_counter += 1;
 166:Earth.cpp     ****         if (bin_counter > 5) bin_counter = 0;
 167:Earth.cpp     **** 
 168:Earth.cpp     ****         float octave_signal = buff_out[bin_counter];
 169:Earth.cpp     **** 
 170:Earth.cpp     ****         float output = (inputL * dryMix) + (octave_signal * wetMix * volume);
 171:Earth.cpp     **** 
 172:Earth.cpp     ****         if (output > 1.0f) output = 1.0f;
 173:Earth.cpp     ****         if (output < -1.0f) output = -1.0f;
 174:Earth.cpp     ****         out->data[i] = (int16_t)(output * 32767.0f);
 175:Earth.cpp     ****     }
 176:Earth.cpp     **** 
 177:Earth.cpp     ****     transmit(out, 0);
 178:Earth.cpp     ****     release(out);
 179:Earth.cpp     ****     release(in);
 180:Earth.cpp     **** }
ARM GAS  /tmp/ccxXSPX2.s 			page 5


 181:Earth.cpp     **** #endif
 182:Earth.cpp     **** 
 183:Earth.cpp     **** // --- Implémentation des Setters Spécifiques ---
 184:Earth.cpp     **** 
 185:Earth.cpp     **** void EarthEffect::setMix(float mix) {
 186:Earth.cpp     ****     dryMix = 1.0f - mix;
 187:Earth.cpp     ****     wetMix = mix;
 188:Earth.cpp     **** }
 189:Earth.cpp     **** 
 190:Earth.cpp     **** void EarthEffect::setVolume(float vol)
 191:Earth.cpp     **** {
 192:Earth.cpp     ****     volume = clampf(vol, 0.0f, 1.0f);
 193:Earth.cpp     **** }
 194:Earth.cpp     **** 
 195:Earth.cpp     **** void EarthEffect::setOctaveMode(int mode) {
 196:Earth.cpp     ****     effect_mode = mode;
 197:Earth.cpp     **** }
 198:Earth.cpp     **** 
 199:Earth.cpp     **** 
 200:Earth.cpp     **** void EarthEffect::setParameter(int param_id, float value) {
  52              		.loc 1 200 59 is_stmt 1 view -0
  53              		.cfi_startproc
  54              		@ args = 0, pretend = 0, frame = 0
  55              		@ frame_needed = 0, uses_anonymous_args = 0
  56              		@ link register save eliminated.
 201:Earth.cpp     ****     switch (param_id){
  57              		.loc 1 201 5 view .LVU4
  58 0000 0129     		cmp	r1, #1
  59 0002 1BD0     		beq	.L4
  60 0004 0529     		cmp	r1, #5
  61 0006 09D0     		beq	.L5
  62 0008 B9B9     		cbnz	r1, .L3
 202:Earth.cpp     ****         case 0 : 
  63              		.loc 1 202 9 view .LVU5
 203:Earth.cpp     ****             setMix(value);
  64              		.loc 1 203 13 view .LVU6
  65              	.LVL2:
  66              	.LBB920:
  67              	.LBI920:
 185:Earth.cpp     ****     dryMix = 1.0f - mix;
  68              		.loc 1 185 6 view .LVU7
  69              	.LBB921:
 186:Earth.cpp     ****     wetMix = mix;
  70              		.loc 1 186 5 view .LVU8
 186:Earth.cpp     ****     wetMix = mix;
  71              		.loc 1 186 19 is_stmt 0 view .LVU9
  72 000a F7EE007A 		vmov.f32	s15, #1.0e+0
 187:Earth.cpp     **** }
  73              		.loc 1 187 12 view .LVU10
  74 000e 80ED040A 		vstr.32	s0, [r0, #16]
 186:Earth.cpp     ****     wetMix = mix;
  75              		.loc 1 186 19 view .LVU11
  76 0012 77EEC07A 		vsub.f32	s15, s15, s0
 186:Earth.cpp     ****     wetMix = mix;
  77              		.loc 1 186 12 view .LVU12
  78 0016 C0ED037A 		vstr.32	s15, [r0, #12]
 187:Earth.cpp     **** }
ARM GAS  /tmp/ccxXSPX2.s 			page 6


  79              		.loc 1 187 5 is_stmt 1 view .LVU13
  80              	.LVL3:
 187:Earth.cpp     **** }
  81              		.loc 1 187 5 is_stmt 0 view .LVU14
  82              	.LBE921:
  83              	.LBE920:
 204:Earth.cpp     ****             break;
  84              		.loc 1 204 13 is_stmt 1 view .LVU15
  85              	.LBB923:
  86              	.LBB922:
 188:Earth.cpp     **** 
  87              		.loc 1 188 1 is_stmt 0 view .LVU16
  88 001a 7047     		bx	lr
  89              	.L5:
 188:Earth.cpp     **** 
  90              		.loc 1 188 1 view .LVU17
  91              	.LBE922:
  92              	.LBE923:
 205:Earth.cpp     ****         case 1 :  
 206:Earth.cpp     ****             if (value > 0.66f) setOctaveMode(1);
 207:Earth.cpp     ****             else if ((0.66f > value) && (value > 0.33f)) setOctaveMode(2);
 208:Earth.cpp     ****             else setOctaveMode(3);
 209:Earth.cpp     ****             break; 
 210:Earth.cpp     ****         case 5 : 
  93              		.loc 1 210 9 is_stmt 1 view .LVU18
 211:Earth.cpp     ****             setVolume(value);
  94              		.loc 1 211 13 view .LVU19
  95              	.LVL4:
  96              	.LBB924:
  97              	.LBI924:
 190:Earth.cpp     **** {
  98              		.loc 1 190 6 view .LVU20
  99              	.LBB925:
 192:Earth.cpp     **** }
 100              		.loc 1 192 5 view .LVU21
 101              	.LBB926:
 102              	.LBI926:
 103              		.file 2 "../include/Utils.h"
   1:../include/Utils.h **** // 1 pour Daisy 0 pour Teensy
   2:../include/Utils.h **** #define USE_DAISY 1
   3:../include/Utils.h **** 
   4:../include/Utils.h **** #define MODE_HEXAPHONIQUE
   5:../include/Utils.h **** 
   6:../include/Utils.h **** #define InputTDM 1    // 1: Entrée Guitare (TDM), 0: Séquenceur d'Oscillateurs
   7:../include/Utils.h **** #if InputTDM
   8:../include/Utils.h **** #define OutputTDM 1   // 1: Sortie Jack CS42448 (TDM), 0: Désactivé
   9:../include/Utils.h **** #endif
  10:../include/Utils.h **** #define OutputUSB 1   // 1: Sortie Casque/PC (USB), 0: Désactivé
  11:../include/Utils.h **** #define DelayPaulo 0
  12:../include/Utils.h **** 
  13:../include/Utils.h **** #define USE_DAISY_POD 1
  14:../include/Utils.h **** #define CPU_METER 1
  15:../include/Utils.h **** #define SD_CARD_DS 0
  16:../include/Utils.h **** #define Padding_on 0
  17:../include/Utils.h **** 
  18:../include/Utils.h **** 
  19:../include/Utils.h **** 
ARM GAS  /tmp/ccxXSPX2.s 			page 7


  20:../include/Utils.h **** static inline float clampf(float v, float lo, float hi) {
 104              		.loc 2 20 21 view .LVU22
 105              	.LBB927:
  21:../include/Utils.h ****     return (v < lo) ? lo : (v > hi) ? hi : v;
 106              		.loc 2 21 5 view .LVU23
 107              		.loc 2 21 21 is_stmt 0 view .LVU24
 108 001c B5EEC00A 		vcmpe.f32	s0, #0
 109 0020 F1EE10FA 		vmrs	APSR_nzcv, FPSCR
 110 0024 20D4     		bmi	.L13
 111 0026 F7EE007A 		vmov.f32	s15, #1.0e+0
 112 002a B4EEE70A 		vcmpe.f32	s0, s15
 113 002e F1EE10FA 		vmrs	APSR_nzcv, FPSCR
 114 0032 77FE807A 		vselgt.f32	s15, s15, s0
 115              	.L12:
 116              	.LVL5:
 117              		.loc 2 21 21 view .LVU25
 118              	.LBE927:
 119              	.LBE926:
 192:Earth.cpp     **** }
 120              		.loc 1 192 12 discriminator 1 view .LVU26
 121 0036 C0ED057A 		vstr.32	s15, [r0, #20]
 122              	.LVL6:
 192:Earth.cpp     **** }
 123              		.loc 1 192 12 discriminator 1 view .LVU27
 124              	.LBE925:
 125              	.LBE924:
 212:Earth.cpp     ****             break;
 126              		.loc 1 212 13 is_stmt 1 view .LVU28
 213:Earth.cpp     ****         default:
 214:Earth.cpp     **** #if !USE_DAISY
 215:Earth.cpp     ****             Serial.print("Parametre invalide: ");
 216:Earth.cpp     ****             Serial.println(param_id);
 217:Earth.cpp     **** #endif
 218:Earth.cpp     ****             break;
 219:Earth.cpp     ****     };
 127              		.loc 1 219 6 view .LVU29
 128              	.L3:
 220:Earth.cpp     **** }...
 129              		.loc 1 220 1 is_stmt 0 view .LVU30
 130 003a 7047     		bx	lr
 131              	.L4:
 205:Earth.cpp     ****         case 1 :  
 132              		.loc 1 205 9 is_stmt 1 view .LVU31
 206:Earth.cpp     ****             if (value > 0.66f) setOctaveMode(1);
 133              		.loc 1 206 13 view .LVU32
 134 003c DFED0E7A 		vldr.32	s15, .L19
 135 0040 B4EEE70A 		vcmpe.f32	s0, s15
 136 0044 F1EE10FA 		vmrs	APSR_nzcv, FPSCR
 137 0048 0BDC     		bgt	.L18
 138              	.LVL7:
 139              	.LBB931:
 140              	.LBI931:
 200:Earth.cpp     **** void EarthEffect::setParameter(int param_id, float value) {
 141              		.loc 1 200 6 view .LVU33
 142              	.LBB932:
 207:Earth.cpp     ****             else if ((0.66f > value) && (value > 0.33f)) setOctaveMode(2);
 143              		.loc 1 207 18 view .LVU34
ARM GAS  /tmp/ccxXSPX2.s 			page 8


 144 004a 10D5     		bpl	.L9
 207:Earth.cpp     ****             else if ((0.66f > value) && (value > 0.33f)) setOctaveMode(2);
 145              		.loc 1 207 38 is_stmt 0 discriminator 1 view .LVU35
 146 004c DFED0B7A 		vldr.32	s15, .L19+4
 147 0050 B4EEE70A 		vcmpe.f32	s0, s15
 148 0054 F1EE10FA 		vmrs	APSR_nzcv, FPSCR
 149 0058 09DD     		ble	.L9
 207:Earth.cpp     ****             else if ((0.66f > value) && (value > 0.33f)) setOctaveMode(2);
 150              		.loc 1 207 58 is_stmt 1 discriminator 2 view .LVU36
 151              	.LVL8:
 152              	.LBB933:
 153              	.LBI933:
 195:Earth.cpp     **** void EarthEffect::setOctaveMode(int mode) {
 154              		.loc 1 195 6 view .LVU37
 155              	.LBB934:
 196:Earth.cpp     ****     effect_mode = mode;
 156              		.loc 1 196 5 view .LVU38
 196:Earth.cpp     ****     effect_mode = mode;
 157              		.loc 1 196 17 is_stmt 0 view .LVU39
 158 005a 0223     		movs	r3, #2
 159 005c C0F84C32 		str	r3, [r0, #588]
 160              	.LVL9:
 197:Earth.cpp     **** }
 161              		.loc 1 197 1 view .LVU40
 162 0060 7047     		bx	lr
 163              	.LVL10:
 164              	.L18:
 197:Earth.cpp     **** }
 165              		.loc 1 197 1 view .LVU41
 166              	.LBE934:
 167              	.LBE933:
 168              	.LBE932:
 169              	.LBE931:
 206:Earth.cpp     ****             if (value > 0.66f) setOctaveMode(1);
 170              		.loc 1 206 32 is_stmt 1 discriminator 1 view .LVU42
 171              	.LBB938:
 172              	.LBI938:
 195:Earth.cpp     **** void EarthEffect::setOctaveMode(int mode) {
 173              		.loc 1 195 6 view .LVU43
 174              	.LBB939:
 196:Earth.cpp     ****     effect_mode = mode;
 175              		.loc 1 196 5 view .LVU44
 196:Earth.cpp     ****     effect_mode = mode;
 176              		.loc 1 196 17 is_stmt 0 view .LVU45
 177 0062 C0F84C12 		str	r1, [r0, #588]
 178              	.LVL11:
 197:Earth.cpp     **** }
 179              		.loc 1 197 1 view .LVU46
 180 0066 7047     		bx	lr
 181              	.LVL12:
 182              	.L13:
 197:Earth.cpp     **** }
 183              		.loc 1 197 1 view .LVU47
 184              	.LBE939:
 185              	.LBE938:
 186              	.LBB940:
 187              	.LBB930:
ARM GAS  /tmp/ccxXSPX2.s 			page 9


 188              	.LBB929:
 189              	.LBB928:
 190              		.loc 2 21 44 discriminator 1 view .LVU48
 191 0068 DFED057A 		vldr.32	s15, .L19+8
 192 006c E3E7     		b	.L12
 193              	.LVL13:
 194              	.L9:
 195              		.loc 2 21 44 discriminator 1 view .LVU49
 196              	.LBE928:
 197              	.LBE929:
 198              	.LBE930:
 199              	.LBE940:
 200              	.LBB941:
 201              	.LBB937:
 208:Earth.cpp     ****             else setOctaveMode(3);
 202              		.loc 1 208 18 is_stmt 1 view .LVU50
 203              	.LBB935:
 204              	.LBI935:
 195:Earth.cpp     **** void EarthEffect::setOctaveMode(int mode) {
 205              		.loc 1 195 6 view .LVU51
 206              	.LBB936:
 196:Earth.cpp     ****     effect_mode = mode;
 207              		.loc 1 196 5 view .LVU52
 196:Earth.cpp     ****     effect_mode = mode;
 208              		.loc 1 196 17 is_stmt 0 view .LVU53
 209 006e 0323     		movs	r3, #3
 210 0070 C0F84C32 		str	r3, [r0, #588]
 211              	.LVL14:
 197:Earth.cpp     **** }
 212              		.loc 1 197 1 view .LVU54
 213 0074 7047     		bx	lr
 214              	.L20:
 215 0076 00BF     		.align	2
 216              	.L19:
 217 0078 C3F5283F 		.word	1059648963
 218 007c C3F5A83E 		.word	1051260355
 219 0080 00000000 		.word	0
 220              	.LBE936:
 221              	.LBE935:
 222              	.LBE937:
 223              	.LBE941:
 224              		.cfi_endproc
 225              	.LFE9653:
 227              		.section	.text._ZN11EarthEffectD0Ev,"axG",%progbits,_ZN11EarthEffectD5Ev,comdat
 228              		.align	1
 229              		.p2align 2,,3
 230              		.weak	_ZN11EarthEffectD0Ev
 231              		.syntax unified
 232              		.thumb
 233              		.thumb_func
 235              	_ZN11EarthEffectD0Ev:
 236              	.LVL15:
 237              	.LFB11131:
 238              		.file 3 "Earth.h"
   1:Earth.h       **** #pragma once
   2:Earth.h       **** 
   3:Earth.h       **** #include "../include/Utils.h"
ARM GAS  /tmp/ccxXSPX2.s 			page 10


   4:Earth.h       **** 
   5:Earth.h       **** #if USE_DAISY
   6:Earth.h       **** #include "daisy_seed.h"
   7:Earth.h       **** #include "daisysp.h"
   8:Earth.h       **** 
   9:Earth.h       **** #include <q/fx/biquad.hpp>
  10:Earth.h       **** #include "../include/Effect.h"
  11:Earth.h       **** namespace q = cycfi::q;
  12:Earth.h       **** using namespace daisy;
  13:Earth.h       **** using namespace daisysp;
  14:Earth.h       **** #else
  15:Earth.h       **** #include <Arduino.h>
  16:Earth.h       **** #include "AudioStream.h"
  17:Earth.h       **** #endif
  18:Earth.h       **** 
  19:Earth.h       **** #include "Util/Multirate.h"
  20:Earth.h       **** #include "Util/OctaveGenerator.h"
  21:Earth.h       **** 
  22:Earth.h       **** #if USE_DAISY
  23:Earth.h       **** class EarthEffect : public Effect {
 239              		.loc 3 23 7 is_stmt 1 view -0
 240              		.cfi_startproc
 241              		@ args = 0, pretend = 0, frame = 0
 242              		@ frame_needed = 0, uses_anonymous_args = 0
 243              		.loc 3 23 7 is_stmt 0 view .LVU56
 244 0000 10B5     		push	{r4, lr}
 245              		.cfi_def_cfa_offset 8
 246              		.cfi_offset 4, -8
 247              		.cfi_offset 14, -4
 248              		.loc 3 23 7 view .LVU57
 249 0002 0446     		mov	r4, r0
 250              	.LVL16:
 251              	.LBB966:
 252              	.LBI966:
 253              		.loc 3 23 7 is_stmt 1 view .LVU58
 254              	.LBB967:
 255              	.LBB968:
 256              	.LBI968:
 257              		.file 4 "../../lib/DaisySP/Source/Effects/overdrive.h"
   1:../../lib/DaisySP/Source/Effects/overdrive.h **** /*
   2:../../lib/DaisySP/Source/Effects/overdrive.h **** Copyright (c) 2020 Electrosmith, Corp, Emilie Gillet
   3:../../lib/DaisySP/Source/Effects/overdrive.h **** 
   4:../../lib/DaisySP/Source/Effects/overdrive.h **** Use of this source code is governed by an MIT-style
   5:../../lib/DaisySP/Source/Effects/overdrive.h **** license that can be found in the LICENSE file or at
   6:../../lib/DaisySP/Source/Effects/overdrive.h **** https://opensource.org/licenses/MIT.
   7:../../lib/DaisySP/Source/Effects/overdrive.h **** */
   8:../../lib/DaisySP/Source/Effects/overdrive.h **** 
   9:../../lib/DaisySP/Source/Effects/overdrive.h **** #pragma once
  10:../../lib/DaisySP/Source/Effects/overdrive.h **** #ifndef DSY_OVERDRIVE_H
  11:../../lib/DaisySP/Source/Effects/overdrive.h **** #define DSY_OVERDRIVE_H
  12:../../lib/DaisySP/Source/Effects/overdrive.h **** 
  13:../../lib/DaisySP/Source/Effects/overdrive.h **** #include <stdint.h>
  14:../../lib/DaisySP/Source/Effects/overdrive.h **** #ifdef __cplusplus
  15:../../lib/DaisySP/Source/Effects/overdrive.h **** 
  16:../../lib/DaisySP/Source/Effects/overdrive.h **** /** @file overdrive.h */
  17:../../lib/DaisySP/Source/Effects/overdrive.h **** 
  18:../../lib/DaisySP/Source/Effects/overdrive.h **** namespace daisysp
ARM GAS  /tmp/ccxXSPX2.s 			page 11


  19:../../lib/DaisySP/Source/Effects/overdrive.h **** {
  20:../../lib/DaisySP/Source/Effects/overdrive.h **** /**  
  21:../../lib/DaisySP/Source/Effects/overdrive.h ****        @brief Distortion / Overdrive Module
  22:../../lib/DaisySP/Source/Effects/overdrive.h ****        @author Ported by Ben Sergentanis 
  23:../../lib/DaisySP/Source/Effects/overdrive.h ****        @date Jan 2021 
  24:../../lib/DaisySP/Source/Effects/overdrive.h ****        Ported from pichenettes/eurorack/plaits/dsp/fx/overdrive.h \n
  25:../../lib/DaisySP/Source/Effects/overdrive.h ****        to an independent module. \n
  26:../../lib/DaisySP/Source/Effects/overdrive.h ****        Original code written by Emilie Gillet in 2014. \n
  27:../../lib/DaisySP/Source/Effects/overdrive.h **** */
  28:../../lib/DaisySP/Source/Effects/overdrive.h **** class Overdrive
  29:../../lib/DaisySP/Source/Effects/overdrive.h **** {
  30:../../lib/DaisySP/Source/Effects/overdrive.h ****   public:
  31:../../lib/DaisySP/Source/Effects/overdrive.h ****     Overdrive() {}
  32:../../lib/DaisySP/Source/Effects/overdrive.h ****     ~Overdrive() {}
 258              		.loc 4 32 5 view .LVU59
 259              		.loc 4 32 5 is_stmt 0 view .LVU60
 260              	.LBE968:
 261              	.LBB969:
 262              	.LBI969:
 263              		.file 5 "Util/OctaveGenerator.h"
   1:Util/OctaveGenerator.h **** #pragma once
   2:Util/OctaveGenerator.h **** 
   3:Util/OctaveGenerator.h **** #include "BandShifter.h"
   4:Util/OctaveGenerator.h **** 
   5:Util/OctaveGenerator.h **** #include <cmath>
   6:Util/OctaveGenerator.h **** 
   7:Util/OctaveGenerator.h **** //=============================================================================
   8:Util/OctaveGenerator.h **** class OctaveGenerator
 264              		.loc 5 8 7 is_stmt 1 view .LVU61
 265              	.LBB970:
 266              	.LBI970:
 267              		.file 6 "/usr/arm-none-eabi/include/c++/15.2.0/bits/stl_vector.h"
   1:/usr/arm-none-eabi/include/c++/15.2.0/bits/stl_vector.h **** // Vector implementation -*- C++ -*-
   2:/usr/arm-none-eabi/include/c++/15.2.0/bits/stl_vector.h **** 
   3:/usr/arm-none-eabi/include/c++/15.2.0/bits/stl_vector.h **** // Copyright (C) 2001-2025 Free Software Foundation, Inc.
   4:/usr/arm-none-eabi/include/c++/15.2.0/bits/stl_vector.h **** //
   5:/usr/arm-none-eabi/include/c++/15.2.0/bits/stl_vector.h **** // This file is part of the GNU ISO C++ Library.  This library is free
   6:/usr/arm-none-eabi/include/c++/15.2.0/bits/stl_vector.h **** // software; you can redistribute it and/or modify it under the
   7:/usr/arm-none-eabi/include/c++/15.2.0/bits/stl_vector.h **** // terms of the GNU General Public License as published by the
   8:/usr/arm-none-eabi/include/c++/15.2.0/bits/stl_vector.h **** // Free Software Foundation; either version 3, or (at your option)
   9:/usr/arm-none-eabi/include/c++/15.2.0/bits/stl_vector.h **** // any later version.
  10:/usr/arm-none-eabi/include/c++/15.2.0/bits/stl_vector.h **** 
  11:/usr/arm-none-eabi/include/c++/15.2.0/bits/stl_vector.h **** // This library is distributed in the hope that it will be useful,
  12:/usr/arm-none-eabi/include/c++/15.2.0/bits/stl_vector.h **** // but WITHOUT ANY WARRANTY; without even the implied warranty of
  13:/usr/arm-none-eabi/include/c++/15.2.0/bits/stl_vector.h **** // MERCHANTABILITY or FITNESS FOR A PARTICULAR PURPOSE.  See the
  14:/usr/arm-none-eabi/include/c++/15.2.0/bits/stl_vector.h **** // GNU General Public License for more details.
  15:/usr/arm-none-eabi/include/c++/15.2.0/bits/stl_vector.h **** 
  16:/usr/arm-none-eabi/include/c++/15.2.0/bits/stl_vector.h **** // Under Section 7 of GPL version 3, you are granted additional
  17:/usr/arm-none-eabi/include/c++/15.2.0/bits/stl_vector.h **** // permissions described in the GCC Runtime Library Exception, version
  18:/usr/arm-none-eabi/include/c++/15.2.0/bits/stl_vector.h **** // 3.1, as published by the Free Software Foundation.
  19:/usr/arm-none-eabi/include/c++/15.2.0/bits/stl_vector.h **** 
  20:/usr/arm-none-eabi/include/c++/15.2.0/bits/stl_vector.h **** // You should have received a copy of the GNU General Public License and
  21:/usr/arm-none-eabi/include/c++/15.2.0/bits/stl_vector.h **** // a copy of the GCC Runtime Library Exception along with this program;
  22:/usr/arm-none-eabi/include/c++/15.2.0/bits/stl_vector.h **** // see the files COPYING3 and COPYING.RUNTIME respectively.  If not, see
  23:/usr/arm-none-eabi/include/c++/15.2.0/bits/stl_vector.h **** // <http://www.gnu.org/licenses/>.
  24:/usr/arm-none-eabi/include/c++/15.2.0/bits/stl_vector.h **** 
  25:/usr/arm-none-eabi/include/c++/15.2.0/bits/stl_vector.h **** /*
ARM GAS  /tmp/ccxXSPX2.s 			page 12


  26:/usr/arm-none-eabi/include/c++/15.2.0/bits/stl_vector.h ****  *
  27:/usr/arm-none-eabi/include/c++/15.2.0/bits/stl_vector.h ****  * Copyright (c) 1994
  28:/usr/arm-none-eabi/include/c++/15.2.0/bits/stl_vector.h ****  * Hewlett-Packard Company
  29:/usr/arm-none-eabi/include/c++/15.2.0/bits/stl_vector.h ****  *
  30:/usr/arm-none-eabi/include/c++/15.2.0/bits/stl_vector.h ****  * Permission to use, copy, modify, distribute and sell this software
  31:/usr/arm-none-eabi/include/c++/15.2.0/bits/stl_vector.h ****  * and its documentation for any purpose is hereby granted without fee,
  32:/usr/arm-none-eabi/include/c++/15.2.0/bits/stl_vector.h ****  * provided that the above copyright notice appear in all copies and
  33:/usr/arm-none-eabi/include/c++/15.2.0/bits/stl_vector.h ****  * that both that copyright notice and this permission notice appear
  34:/usr/arm-none-eabi/include/c++/15.2.0/bits/stl_vector.h ****  * in supporting documentation.  Hewlett-Packard Company makes no
  35:/usr/arm-none-eabi/include/c++/15.2.0/bits/stl_vector.h ****  * representations about the suitability of this software for any
  36:/usr/arm-none-eabi/include/c++/15.2.0/bits/stl_vector.h ****  * purpose.  It is provided "as is" without express or implied warranty.
  37:/usr/arm-none-eabi/include/c++/15.2.0/bits/stl_vector.h ****  *
  38:/usr/arm-none-eabi/include/c++/15.2.0/bits/stl_vector.h ****  *
  39:/usr/arm-none-eabi/include/c++/15.2.0/bits/stl_vector.h ****  * Copyright (c) 1996
  40:/usr/arm-none-eabi/include/c++/15.2.0/bits/stl_vector.h ****  * Silicon Graphics Computer Systems, Inc.
  41:/usr/arm-none-eabi/include/c++/15.2.0/bits/stl_vector.h ****  *
  42:/usr/arm-none-eabi/include/c++/15.2.0/bits/stl_vector.h ****  * Permission to use, copy, modify, distribute and sell this software
  43:/usr/arm-none-eabi/include/c++/15.2.0/bits/stl_vector.h ****  * and its documentation for any purpose is hereby granted without fee,
  44:/usr/arm-none-eabi/include/c++/15.2.0/bits/stl_vector.h ****  * provided that the above copyright notice appear in all copies and
  45:/usr/arm-none-eabi/include/c++/15.2.0/bits/stl_vector.h ****  * that both that copyright notice and this permission notice appear
  46:/usr/arm-none-eabi/include/c++/15.2.0/bits/stl_vector.h ****  * in supporting documentation.  Silicon Graphics makes no
  47:/usr/arm-none-eabi/include/c++/15.2.0/bits/stl_vector.h ****  * representations about the suitability of this  software for any
  48:/usr/arm-none-eabi/include/c++/15.2.0/bits/stl_vector.h ****  * purpose.  It is provided "as is" without express or implied warranty.
  49:/usr/arm-none-eabi/include/c++/15.2.0/bits/stl_vector.h ****  */
  50:/usr/arm-none-eabi/include/c++/15.2.0/bits/stl_vector.h **** 
  51:/usr/arm-none-eabi/include/c++/15.2.0/bits/stl_vector.h **** /** @file bits/stl_vector.h
  52:/usr/arm-none-eabi/include/c++/15.2.0/bits/stl_vector.h ****  *  This is an internal header file, included by other library headers.
  53:/usr/arm-none-eabi/include/c++/15.2.0/bits/stl_vector.h ****  *  Do not attempt to use it directly. @headername{vector}
  54:/usr/arm-none-eabi/include/c++/15.2.0/bits/stl_vector.h ****  */
  55:/usr/arm-none-eabi/include/c++/15.2.0/bits/stl_vector.h **** 
  56:/usr/arm-none-eabi/include/c++/15.2.0/bits/stl_vector.h **** #ifndef _STL_VECTOR_H
  57:/usr/arm-none-eabi/include/c++/15.2.0/bits/stl_vector.h **** #define _STL_VECTOR_H 1
  58:/usr/arm-none-eabi/include/c++/15.2.0/bits/stl_vector.h **** 
  59:/usr/arm-none-eabi/include/c++/15.2.0/bits/stl_vector.h **** #include <bits/stl_iterator_base_funcs.h>
  60:/usr/arm-none-eabi/include/c++/15.2.0/bits/stl_vector.h **** #include <bits/functexcept.h>
  61:/usr/arm-none-eabi/include/c++/15.2.0/bits/stl_vector.h **** #include <bits/concept_check.h>
  62:/usr/arm-none-eabi/include/c++/15.2.0/bits/stl_vector.h **** #if __cplusplus >= 201103L
  63:/usr/arm-none-eabi/include/c++/15.2.0/bits/stl_vector.h **** #include <initializer_list>
  64:/usr/arm-none-eabi/include/c++/15.2.0/bits/stl_vector.h **** #endif
  65:/usr/arm-none-eabi/include/c++/15.2.0/bits/stl_vector.h **** #if __cplusplus >= 202002L
  66:/usr/arm-none-eabi/include/c++/15.2.0/bits/stl_vector.h **** # include <compare>
  67:/usr/arm-none-eabi/include/c++/15.2.0/bits/stl_vector.h **** #endif
  68:/usr/arm-none-eabi/include/c++/15.2.0/bits/stl_vector.h **** #if __glibcxx_concepts // C++ >= C++20
  69:/usr/arm-none-eabi/include/c++/15.2.0/bits/stl_vector.h **** # include <bits/ranges_base.h>          // ranges::distance
  70:/usr/arm-none-eabi/include/c++/15.2.0/bits/stl_vector.h **** #endif
  71:/usr/arm-none-eabi/include/c++/15.2.0/bits/stl_vector.h **** #if __glibcxx_containers_ranges // C++ >= 23
  72:/usr/arm-none-eabi/include/c++/15.2.0/bits/stl_vector.h **** # include <bits/ranges_algobase.h>      // ranges::copy
  73:/usr/arm-none-eabi/include/c++/15.2.0/bits/stl_vector.h **** # include <bits/ranges_util.h>          // ranges::subrange
  74:/usr/arm-none-eabi/include/c++/15.2.0/bits/stl_vector.h **** #endif
  75:/usr/arm-none-eabi/include/c++/15.2.0/bits/stl_vector.h **** 
  76:/usr/arm-none-eabi/include/c++/15.2.0/bits/stl_vector.h **** #include <debug/assertions.h>
  77:/usr/arm-none-eabi/include/c++/15.2.0/bits/stl_vector.h **** 
  78:/usr/arm-none-eabi/include/c++/15.2.0/bits/stl_vector.h **** #if _GLIBCXX_SANITIZE_STD_ALLOCATOR && _GLIBCXX_SANITIZE_VECTOR
  79:/usr/arm-none-eabi/include/c++/15.2.0/bits/stl_vector.h **** extern "C" void
  80:/usr/arm-none-eabi/include/c++/15.2.0/bits/stl_vector.h **** __sanitizer_annotate_contiguous_container(const void*, const void*,
  81:/usr/arm-none-eabi/include/c++/15.2.0/bits/stl_vector.h **** 					  const void*, const void*);
  82:/usr/arm-none-eabi/include/c++/15.2.0/bits/stl_vector.h **** #endif
ARM GAS  /tmp/ccxXSPX2.s 			page 13


  83:/usr/arm-none-eabi/include/c++/15.2.0/bits/stl_vector.h **** 
  84:/usr/arm-none-eabi/include/c++/15.2.0/bits/stl_vector.h **** namespace std _GLIBCXX_VISIBILITY(default)
  85:/usr/arm-none-eabi/include/c++/15.2.0/bits/stl_vector.h **** {
  86:/usr/arm-none-eabi/include/c++/15.2.0/bits/stl_vector.h **** _GLIBCXX_BEGIN_NAMESPACE_VERSION
  87:/usr/arm-none-eabi/include/c++/15.2.0/bits/stl_vector.h **** _GLIBCXX_BEGIN_NAMESPACE_CONTAINER
  88:/usr/arm-none-eabi/include/c++/15.2.0/bits/stl_vector.h **** 
  89:/usr/arm-none-eabi/include/c++/15.2.0/bits/stl_vector.h ****   /// See bits/stl_deque.h's _Deque_base for an explanation.
  90:/usr/arm-none-eabi/include/c++/15.2.0/bits/stl_vector.h ****   template<typename _Tp, typename _Alloc>
  91:/usr/arm-none-eabi/include/c++/15.2.0/bits/stl_vector.h ****     struct _Vector_base
  92:/usr/arm-none-eabi/include/c++/15.2.0/bits/stl_vector.h ****     {
  93:/usr/arm-none-eabi/include/c++/15.2.0/bits/stl_vector.h ****       typedef typename __gnu_cxx::__alloc_traits<_Alloc>::template
  94:/usr/arm-none-eabi/include/c++/15.2.0/bits/stl_vector.h **** 	rebind<_Tp>::other _Tp_alloc_type;
  95:/usr/arm-none-eabi/include/c++/15.2.0/bits/stl_vector.h ****       typedef typename __gnu_cxx::__alloc_traits<_Tp_alloc_type>::pointer
  96:/usr/arm-none-eabi/include/c++/15.2.0/bits/stl_vector.h ****        	pointer;
  97:/usr/arm-none-eabi/include/c++/15.2.0/bits/stl_vector.h **** 
  98:/usr/arm-none-eabi/include/c++/15.2.0/bits/stl_vector.h ****       struct _Vector_impl_data
  99:/usr/arm-none-eabi/include/c++/15.2.0/bits/stl_vector.h ****       {
 100:/usr/arm-none-eabi/include/c++/15.2.0/bits/stl_vector.h **** 	pointer _M_start;
 101:/usr/arm-none-eabi/include/c++/15.2.0/bits/stl_vector.h **** 	pointer _M_finish;
 102:/usr/arm-none-eabi/include/c++/15.2.0/bits/stl_vector.h **** 	pointer _M_end_of_storage;
 103:/usr/arm-none-eabi/include/c++/15.2.0/bits/stl_vector.h **** 
 104:/usr/arm-none-eabi/include/c++/15.2.0/bits/stl_vector.h **** 	_GLIBCXX20_CONSTEXPR
 105:/usr/arm-none-eabi/include/c++/15.2.0/bits/stl_vector.h **** 	_Vector_impl_data() _GLIBCXX_NOEXCEPT
 106:/usr/arm-none-eabi/include/c++/15.2.0/bits/stl_vector.h **** 	: _M_start(), _M_finish(), _M_end_of_storage()
 107:/usr/arm-none-eabi/include/c++/15.2.0/bits/stl_vector.h **** 	{ }
 108:/usr/arm-none-eabi/include/c++/15.2.0/bits/stl_vector.h **** 
 109:/usr/arm-none-eabi/include/c++/15.2.0/bits/stl_vector.h **** #if __cplusplus >= 201103L
 110:/usr/arm-none-eabi/include/c++/15.2.0/bits/stl_vector.h **** 	_GLIBCXX20_CONSTEXPR
 111:/usr/arm-none-eabi/include/c++/15.2.0/bits/stl_vector.h **** 	_Vector_impl_data(_Vector_impl_data&& __x) noexcept
 112:/usr/arm-none-eabi/include/c++/15.2.0/bits/stl_vector.h **** 	: _M_start(__x._M_start), _M_finish(__x._M_finish),
 113:/usr/arm-none-eabi/include/c++/15.2.0/bits/stl_vector.h **** 	  _M_end_of_storage(__x._M_end_of_storage)
 114:/usr/arm-none-eabi/include/c++/15.2.0/bits/stl_vector.h **** 	{ __x._M_start = __x._M_finish = __x._M_end_of_storage = pointer(); }
 115:/usr/arm-none-eabi/include/c++/15.2.0/bits/stl_vector.h **** #endif
 116:/usr/arm-none-eabi/include/c++/15.2.0/bits/stl_vector.h **** 
 117:/usr/arm-none-eabi/include/c++/15.2.0/bits/stl_vector.h **** 	_GLIBCXX20_CONSTEXPR
 118:/usr/arm-none-eabi/include/c++/15.2.0/bits/stl_vector.h **** 	void
 119:/usr/arm-none-eabi/include/c++/15.2.0/bits/stl_vector.h **** 	_M_copy_data(_Vector_impl_data const& __x) _GLIBCXX_NOEXCEPT
 120:/usr/arm-none-eabi/include/c++/15.2.0/bits/stl_vector.h **** 	{
 121:/usr/arm-none-eabi/include/c++/15.2.0/bits/stl_vector.h **** 	  _M_start = __x._M_start;
 122:/usr/arm-none-eabi/include/c++/15.2.0/bits/stl_vector.h **** 	  _M_finish = __x._M_finish;
 123:/usr/arm-none-eabi/include/c++/15.2.0/bits/stl_vector.h **** 	  _M_end_of_storage = __x._M_end_of_storage;
 124:/usr/arm-none-eabi/include/c++/15.2.0/bits/stl_vector.h **** 	}
 125:/usr/arm-none-eabi/include/c++/15.2.0/bits/stl_vector.h **** 
 126:/usr/arm-none-eabi/include/c++/15.2.0/bits/stl_vector.h **** 	_GLIBCXX20_CONSTEXPR
 127:/usr/arm-none-eabi/include/c++/15.2.0/bits/stl_vector.h **** 	void
 128:/usr/arm-none-eabi/include/c++/15.2.0/bits/stl_vector.h **** 	_M_swap_data(_Vector_impl_data& __x) _GLIBCXX_NOEXCEPT
 129:/usr/arm-none-eabi/include/c++/15.2.0/bits/stl_vector.h **** 	{
 130:/usr/arm-none-eabi/include/c++/15.2.0/bits/stl_vector.h **** 	  // Do not use std::swap(_M_start, __x._M_start), etc as it loses
 131:/usr/arm-none-eabi/include/c++/15.2.0/bits/stl_vector.h **** 	  // information used by TBAA.
 132:/usr/arm-none-eabi/include/c++/15.2.0/bits/stl_vector.h **** 	  _Vector_impl_data __tmp;
 133:/usr/arm-none-eabi/include/c++/15.2.0/bits/stl_vector.h **** 	  __tmp._M_copy_data(*this);
 134:/usr/arm-none-eabi/include/c++/15.2.0/bits/stl_vector.h **** 	  _M_copy_data(__x);
 135:/usr/arm-none-eabi/include/c++/15.2.0/bits/stl_vector.h **** 	  __x._M_copy_data(__tmp);
 136:/usr/arm-none-eabi/include/c++/15.2.0/bits/stl_vector.h **** 	}
 137:/usr/arm-none-eabi/include/c++/15.2.0/bits/stl_vector.h ****       };
 138:/usr/arm-none-eabi/include/c++/15.2.0/bits/stl_vector.h **** 
 139:/usr/arm-none-eabi/include/c++/15.2.0/bits/stl_vector.h ****       struct _Vector_impl
ARM GAS  /tmp/ccxXSPX2.s 			page 14


 140:/usr/arm-none-eabi/include/c++/15.2.0/bits/stl_vector.h **** 	: public _Tp_alloc_type, public _Vector_impl_data
 141:/usr/arm-none-eabi/include/c++/15.2.0/bits/stl_vector.h ****       {
 142:/usr/arm-none-eabi/include/c++/15.2.0/bits/stl_vector.h **** 	_GLIBCXX20_CONSTEXPR
 143:/usr/arm-none-eabi/include/c++/15.2.0/bits/stl_vector.h **** 	_Vector_impl() _GLIBCXX_NOEXCEPT_IF(
 144:/usr/arm-none-eabi/include/c++/15.2.0/bits/stl_vector.h **** 	    is_nothrow_default_constructible<_Tp_alloc_type>::value)
 145:/usr/arm-none-eabi/include/c++/15.2.0/bits/stl_vector.h **** #if __cpp_lib_concepts
 146:/usr/arm-none-eabi/include/c++/15.2.0/bits/stl_vector.h **** 	requires is_default_constructible_v<_Tp_alloc_type>
 147:/usr/arm-none-eabi/include/c++/15.2.0/bits/stl_vector.h **** #endif
 148:/usr/arm-none-eabi/include/c++/15.2.0/bits/stl_vector.h **** 	: _Tp_alloc_type()
 149:/usr/arm-none-eabi/include/c++/15.2.0/bits/stl_vector.h **** 	{ }
 150:/usr/arm-none-eabi/include/c++/15.2.0/bits/stl_vector.h **** 
 151:/usr/arm-none-eabi/include/c++/15.2.0/bits/stl_vector.h **** 	_GLIBCXX20_CONSTEXPR
 152:/usr/arm-none-eabi/include/c++/15.2.0/bits/stl_vector.h **** 	_Vector_impl(_Tp_alloc_type const& __a) _GLIBCXX_NOEXCEPT
 153:/usr/arm-none-eabi/include/c++/15.2.0/bits/stl_vector.h **** 	: _Tp_alloc_type(__a)
 154:/usr/arm-none-eabi/include/c++/15.2.0/bits/stl_vector.h **** 	{ }
 155:/usr/arm-none-eabi/include/c++/15.2.0/bits/stl_vector.h **** 
 156:/usr/arm-none-eabi/include/c++/15.2.0/bits/stl_vector.h **** #if __cplusplus >= 201103L
 157:/usr/arm-none-eabi/include/c++/15.2.0/bits/stl_vector.h **** 	// Not defaulted, to enforce noexcept(true) even when
 158:/usr/arm-none-eabi/include/c++/15.2.0/bits/stl_vector.h **** 	// !is_nothrow_move_constructible<_Tp_alloc_type>.
 159:/usr/arm-none-eabi/include/c++/15.2.0/bits/stl_vector.h **** 	_GLIBCXX20_CONSTEXPR
 160:/usr/arm-none-eabi/include/c++/15.2.0/bits/stl_vector.h **** 	_Vector_impl(_Vector_impl&& __x) noexcept
 161:/usr/arm-none-eabi/include/c++/15.2.0/bits/stl_vector.h **** 	: _Tp_alloc_type(std::move(__x)), _Vector_impl_data(std::move(__x))
 162:/usr/arm-none-eabi/include/c++/15.2.0/bits/stl_vector.h **** 	{ }
 163:/usr/arm-none-eabi/include/c++/15.2.0/bits/stl_vector.h **** 
 164:/usr/arm-none-eabi/include/c++/15.2.0/bits/stl_vector.h **** 	_GLIBCXX20_CONSTEXPR
 165:/usr/arm-none-eabi/include/c++/15.2.0/bits/stl_vector.h **** 	_Vector_impl(_Tp_alloc_type&& __a) noexcept
 166:/usr/arm-none-eabi/include/c++/15.2.0/bits/stl_vector.h **** 	: _Tp_alloc_type(std::move(__a))
 167:/usr/arm-none-eabi/include/c++/15.2.0/bits/stl_vector.h **** 	{ }
 168:/usr/arm-none-eabi/include/c++/15.2.0/bits/stl_vector.h **** 
 169:/usr/arm-none-eabi/include/c++/15.2.0/bits/stl_vector.h **** 	_GLIBCXX20_CONSTEXPR
 170:/usr/arm-none-eabi/include/c++/15.2.0/bits/stl_vector.h **** 	_Vector_impl(_Tp_alloc_type&& __a, _Vector_impl&& __rv) noexcept
 171:/usr/arm-none-eabi/include/c++/15.2.0/bits/stl_vector.h **** 	: _Tp_alloc_type(std::move(__a)), _Vector_impl_data(std::move(__rv))
 172:/usr/arm-none-eabi/include/c++/15.2.0/bits/stl_vector.h **** 	{ }
 173:/usr/arm-none-eabi/include/c++/15.2.0/bits/stl_vector.h **** #endif
 174:/usr/arm-none-eabi/include/c++/15.2.0/bits/stl_vector.h **** 
 175:/usr/arm-none-eabi/include/c++/15.2.0/bits/stl_vector.h **** #if _GLIBCXX_SANITIZE_STD_ALLOCATOR && _GLIBCXX_SANITIZE_VECTOR
 176:/usr/arm-none-eabi/include/c++/15.2.0/bits/stl_vector.h **** 	template<typename = _Tp_alloc_type>
 177:/usr/arm-none-eabi/include/c++/15.2.0/bits/stl_vector.h **** 	  struct _Asan
 178:/usr/arm-none-eabi/include/c++/15.2.0/bits/stl_vector.h **** 	  {
 179:/usr/arm-none-eabi/include/c++/15.2.0/bits/stl_vector.h **** 	    typedef typename __gnu_cxx::__alloc_traits<_Tp_alloc_type>
 180:/usr/arm-none-eabi/include/c++/15.2.0/bits/stl_vector.h **** 	      ::size_type size_type;
 181:/usr/arm-none-eabi/include/c++/15.2.0/bits/stl_vector.h **** 
 182:/usr/arm-none-eabi/include/c++/15.2.0/bits/stl_vector.h **** 	    static _GLIBCXX20_CONSTEXPR void
 183:/usr/arm-none-eabi/include/c++/15.2.0/bits/stl_vector.h **** 	    _S_shrink(_Vector_impl&, size_type) { }
 184:/usr/arm-none-eabi/include/c++/15.2.0/bits/stl_vector.h **** 	    static _GLIBCXX20_CONSTEXPR void
 185:/usr/arm-none-eabi/include/c++/15.2.0/bits/stl_vector.h **** 	    _S_on_dealloc(_Vector_impl&) { }
 186:/usr/arm-none-eabi/include/c++/15.2.0/bits/stl_vector.h **** 
 187:/usr/arm-none-eabi/include/c++/15.2.0/bits/stl_vector.h **** 	    typedef _Vector_impl& _Reinit;
 188:/usr/arm-none-eabi/include/c++/15.2.0/bits/stl_vector.h **** 
 189:/usr/arm-none-eabi/include/c++/15.2.0/bits/stl_vector.h **** 	    struct _Grow
 190:/usr/arm-none-eabi/include/c++/15.2.0/bits/stl_vector.h **** 	    {
 191:/usr/arm-none-eabi/include/c++/15.2.0/bits/stl_vector.h **** 	      _GLIBCXX20_CONSTEXPR _Grow(_Vector_impl&, size_type) { }
 192:/usr/arm-none-eabi/include/c++/15.2.0/bits/stl_vector.h **** 	      _GLIBCXX20_CONSTEXPR void _M_grew(size_type) { }
 193:/usr/arm-none-eabi/include/c++/15.2.0/bits/stl_vector.h **** 	    };
 194:/usr/arm-none-eabi/include/c++/15.2.0/bits/stl_vector.h **** 	  };
 195:/usr/arm-none-eabi/include/c++/15.2.0/bits/stl_vector.h **** 
 196:/usr/arm-none-eabi/include/c++/15.2.0/bits/stl_vector.h **** 	// Enable ASan annotations for memory obtained from std::allocator.
ARM GAS  /tmp/ccxXSPX2.s 			page 15


 197:/usr/arm-none-eabi/include/c++/15.2.0/bits/stl_vector.h **** 	template<typename _Up>
 198:/usr/arm-none-eabi/include/c++/15.2.0/bits/stl_vector.h **** 	  struct _Asan<allocator<_Up> >
 199:/usr/arm-none-eabi/include/c++/15.2.0/bits/stl_vector.h **** 	  {
 200:/usr/arm-none-eabi/include/c++/15.2.0/bits/stl_vector.h **** 	    typedef typename __gnu_cxx::__alloc_traits<_Tp_alloc_type>
 201:/usr/arm-none-eabi/include/c++/15.2.0/bits/stl_vector.h **** 	      ::size_type size_type;
 202:/usr/arm-none-eabi/include/c++/15.2.0/bits/stl_vector.h **** 
 203:/usr/arm-none-eabi/include/c++/15.2.0/bits/stl_vector.h **** 	    // Adjust ASan annotation for [_M_start, _M_end_of_storage) to
 204:/usr/arm-none-eabi/include/c++/15.2.0/bits/stl_vector.h **** 	    // mark end of valid region as __curr instead of __prev.
 205:/usr/arm-none-eabi/include/c++/15.2.0/bits/stl_vector.h **** 	    static _GLIBCXX20_CONSTEXPR void
 206:/usr/arm-none-eabi/include/c++/15.2.0/bits/stl_vector.h **** 	    _S_adjust(_Vector_impl& __impl, pointer __prev, pointer __curr)
 207:/usr/arm-none-eabi/include/c++/15.2.0/bits/stl_vector.h **** 	    {
 208:/usr/arm-none-eabi/include/c++/15.2.0/bits/stl_vector.h **** #if __cpp_lib_is_constant_evaluated
 209:/usr/arm-none-eabi/include/c++/15.2.0/bits/stl_vector.h **** 	      if (std::is_constant_evaluated())
 210:/usr/arm-none-eabi/include/c++/15.2.0/bits/stl_vector.h **** 		return;
 211:/usr/arm-none-eabi/include/c++/15.2.0/bits/stl_vector.h **** #endif
 212:/usr/arm-none-eabi/include/c++/15.2.0/bits/stl_vector.h **** 	      __sanitizer_annotate_contiguous_container(__impl._M_start,
 213:/usr/arm-none-eabi/include/c++/15.2.0/bits/stl_vector.h **** 		  __impl._M_end_of_storage, __prev, __curr);
 214:/usr/arm-none-eabi/include/c++/15.2.0/bits/stl_vector.h **** 	    }
 215:/usr/arm-none-eabi/include/c++/15.2.0/bits/stl_vector.h **** 
 216:/usr/arm-none-eabi/include/c++/15.2.0/bits/stl_vector.h **** 	    static _GLIBCXX20_CONSTEXPR void
 217:/usr/arm-none-eabi/include/c++/15.2.0/bits/stl_vector.h **** 	    _S_grow(_Vector_impl& __impl, size_type __n)
 218:/usr/arm-none-eabi/include/c++/15.2.0/bits/stl_vector.h **** 	    { _S_adjust(__impl, __impl._M_finish, __impl._M_finish + __n); }
 219:/usr/arm-none-eabi/include/c++/15.2.0/bits/stl_vector.h **** 
 220:/usr/arm-none-eabi/include/c++/15.2.0/bits/stl_vector.h **** 	    static _GLIBCXX20_CONSTEXPR void
 221:/usr/arm-none-eabi/include/c++/15.2.0/bits/stl_vector.h **** 	    _S_shrink(_Vector_impl& __impl, size_type __n)
 222:/usr/arm-none-eabi/include/c++/15.2.0/bits/stl_vector.h **** 	    { _S_adjust(__impl, __impl._M_finish + __n, __impl._M_finish); }
 223:/usr/arm-none-eabi/include/c++/15.2.0/bits/stl_vector.h **** 
 224:/usr/arm-none-eabi/include/c++/15.2.0/bits/stl_vector.h **** 	    static _GLIBCXX20_CONSTEXPR void
 225:/usr/arm-none-eabi/include/c++/15.2.0/bits/stl_vector.h **** 	    _S_on_dealloc(_Vector_impl& __impl)
 226:/usr/arm-none-eabi/include/c++/15.2.0/bits/stl_vector.h **** 	    {
 227:/usr/arm-none-eabi/include/c++/15.2.0/bits/stl_vector.h **** 	      if (__impl._M_start)
 228:/usr/arm-none-eabi/include/c++/15.2.0/bits/stl_vector.h **** 		_S_adjust(__impl, __impl._M_finish, __impl._M_end_of_storage);
 229:/usr/arm-none-eabi/include/c++/15.2.0/bits/stl_vector.h **** 	    }
 230:/usr/arm-none-eabi/include/c++/15.2.0/bits/stl_vector.h **** 
 231:/usr/arm-none-eabi/include/c++/15.2.0/bits/stl_vector.h **** 	    // Used on reallocation to tell ASan unused capacity is invalid.
 232:/usr/arm-none-eabi/include/c++/15.2.0/bits/stl_vector.h **** 	    struct _Reinit
 233:/usr/arm-none-eabi/include/c++/15.2.0/bits/stl_vector.h **** 	    {
 234:/usr/arm-none-eabi/include/c++/15.2.0/bits/stl_vector.h **** 	      explicit _GLIBCXX20_CONSTEXPR
 235:/usr/arm-none-eabi/include/c++/15.2.0/bits/stl_vector.h **** 	      _Reinit(_Vector_impl& __impl) : _M_impl(__impl)
 236:/usr/arm-none-eabi/include/c++/15.2.0/bits/stl_vector.h **** 	      {
 237:/usr/arm-none-eabi/include/c++/15.2.0/bits/stl_vector.h **** 		// Mark unused capacity as valid again before deallocating it.
 238:/usr/arm-none-eabi/include/c++/15.2.0/bits/stl_vector.h **** 		_S_on_dealloc(_M_impl);
 239:/usr/arm-none-eabi/include/c++/15.2.0/bits/stl_vector.h **** 	      }
 240:/usr/arm-none-eabi/include/c++/15.2.0/bits/stl_vector.h **** 
 241:/usr/arm-none-eabi/include/c++/15.2.0/bits/stl_vector.h **** 	      _GLIBCXX20_CONSTEXPR
 242:/usr/arm-none-eabi/include/c++/15.2.0/bits/stl_vector.h **** 	      ~_Reinit()
 243:/usr/arm-none-eabi/include/c++/15.2.0/bits/stl_vector.h **** 	      {
 244:/usr/arm-none-eabi/include/c++/15.2.0/bits/stl_vector.h **** 		// Mark unused capacity as invalid after reallocation.
 245:/usr/arm-none-eabi/include/c++/15.2.0/bits/stl_vector.h **** 		if (_M_impl._M_start)
 246:/usr/arm-none-eabi/include/c++/15.2.0/bits/stl_vector.h **** 		  _S_adjust(_M_impl, _M_impl._M_end_of_storage,
 247:/usr/arm-none-eabi/include/c++/15.2.0/bits/stl_vector.h **** 			    _M_impl._M_finish);
 248:/usr/arm-none-eabi/include/c++/15.2.0/bits/stl_vector.h **** 	      }
 249:/usr/arm-none-eabi/include/c++/15.2.0/bits/stl_vector.h **** 
 250:/usr/arm-none-eabi/include/c++/15.2.0/bits/stl_vector.h **** 	      _Vector_impl& _M_impl;
 251:/usr/arm-none-eabi/include/c++/15.2.0/bits/stl_vector.h **** 
 252:/usr/arm-none-eabi/include/c++/15.2.0/bits/stl_vector.h **** #if __cplusplus >= 201103L
 253:/usr/arm-none-eabi/include/c++/15.2.0/bits/stl_vector.h **** 	      _Reinit(const _Reinit&) = delete;
ARM GAS  /tmp/ccxXSPX2.s 			page 16


 254:/usr/arm-none-eabi/include/c++/15.2.0/bits/stl_vector.h **** 	      _Reinit& operator=(const _Reinit&) = delete;
 255:/usr/arm-none-eabi/include/c++/15.2.0/bits/stl_vector.h **** #endif
 256:/usr/arm-none-eabi/include/c++/15.2.0/bits/stl_vector.h **** 	    };
 257:/usr/arm-none-eabi/include/c++/15.2.0/bits/stl_vector.h **** 
 258:/usr/arm-none-eabi/include/c++/15.2.0/bits/stl_vector.h **** 	    // Tell ASan when unused capacity is initialized to be valid.
 259:/usr/arm-none-eabi/include/c++/15.2.0/bits/stl_vector.h **** 	    struct _Grow
 260:/usr/arm-none-eabi/include/c++/15.2.0/bits/stl_vector.h **** 	    {
 261:/usr/arm-none-eabi/include/c++/15.2.0/bits/stl_vector.h **** 	      _GLIBCXX20_CONSTEXPR
 262:/usr/arm-none-eabi/include/c++/15.2.0/bits/stl_vector.h **** 	      _Grow(_Vector_impl& __impl, size_type __n)
 263:/usr/arm-none-eabi/include/c++/15.2.0/bits/stl_vector.h **** 	      : _M_impl(__impl), _M_n(__n)
 264:/usr/arm-none-eabi/include/c++/15.2.0/bits/stl_vector.h **** 	      { _S_grow(_M_impl, __n); }
 265:/usr/arm-none-eabi/include/c++/15.2.0/bits/stl_vector.h **** 
 266:/usr/arm-none-eabi/include/c++/15.2.0/bits/stl_vector.h **** 	      _GLIBCXX20_CONSTEXPR
 267:/usr/arm-none-eabi/include/c++/15.2.0/bits/stl_vector.h **** 	      ~_Grow() { if (_M_n) _S_shrink(_M_impl, _M_n); }
 268:/usr/arm-none-eabi/include/c++/15.2.0/bits/stl_vector.h **** 
 269:/usr/arm-none-eabi/include/c++/15.2.0/bits/stl_vector.h **** 	      _GLIBCXX20_CONSTEXPR
 270:/usr/arm-none-eabi/include/c++/15.2.0/bits/stl_vector.h **** 	      void _M_grew(size_type __n) { _M_n -= __n; }
 271:/usr/arm-none-eabi/include/c++/15.2.0/bits/stl_vector.h **** 
 272:/usr/arm-none-eabi/include/c++/15.2.0/bits/stl_vector.h **** #if __cplusplus >= 201103L
 273:/usr/arm-none-eabi/include/c++/15.2.0/bits/stl_vector.h **** 	      _Grow(const _Grow&) = delete;
 274:/usr/arm-none-eabi/include/c++/15.2.0/bits/stl_vector.h **** 	      _Grow& operator=(const _Grow&) = delete;
 275:/usr/arm-none-eabi/include/c++/15.2.0/bits/stl_vector.h **** #endif
 276:/usr/arm-none-eabi/include/c++/15.2.0/bits/stl_vector.h **** 	    private:
 277:/usr/arm-none-eabi/include/c++/15.2.0/bits/stl_vector.h **** 	      _Vector_impl& _M_impl;
 278:/usr/arm-none-eabi/include/c++/15.2.0/bits/stl_vector.h **** 	      size_type _M_n;
 279:/usr/arm-none-eabi/include/c++/15.2.0/bits/stl_vector.h **** 	    };
 280:/usr/arm-none-eabi/include/c++/15.2.0/bits/stl_vector.h **** 	  };
 281:/usr/arm-none-eabi/include/c++/15.2.0/bits/stl_vector.h **** 
 282:/usr/arm-none-eabi/include/c++/15.2.0/bits/stl_vector.h **** #define _GLIBCXX_ASAN_ANNOTATE_REINIT \
 283:/usr/arm-none-eabi/include/c++/15.2.0/bits/stl_vector.h ****   typename _Base::_Vector_impl::template _Asan<>::_Reinit const \
 284:/usr/arm-none-eabi/include/c++/15.2.0/bits/stl_vector.h **** 	__attribute__((__unused__)) __reinit_guard(this->_M_impl)
 285:/usr/arm-none-eabi/include/c++/15.2.0/bits/stl_vector.h **** #define _GLIBCXX_ASAN_ANNOTATE_GROW(n) \
 286:/usr/arm-none-eabi/include/c++/15.2.0/bits/stl_vector.h ****   typename _Base::_Vector_impl::template _Asan<>::_Grow \
 287:/usr/arm-none-eabi/include/c++/15.2.0/bits/stl_vector.h **** 	__attribute__((__unused__)) __grow_guard(this->_M_impl, (n))
 288:/usr/arm-none-eabi/include/c++/15.2.0/bits/stl_vector.h **** #define _GLIBCXX_ASAN_ANNOTATE_GREW(n) __grow_guard._M_grew(n)
 289:/usr/arm-none-eabi/include/c++/15.2.0/bits/stl_vector.h **** #define _GLIBCXX_ASAN_ANNOTATE_SHRINK(n) \
 290:/usr/arm-none-eabi/include/c++/15.2.0/bits/stl_vector.h ****   _Base::_Vector_impl::template _Asan<>::_S_shrink(this->_M_impl, n)
 291:/usr/arm-none-eabi/include/c++/15.2.0/bits/stl_vector.h **** #define _GLIBCXX_ASAN_ANNOTATE_BEFORE_DEALLOC \
 292:/usr/arm-none-eabi/include/c++/15.2.0/bits/stl_vector.h ****   _Base::_Vector_impl::template _Asan<>::_S_on_dealloc(this->_M_impl)
 293:/usr/arm-none-eabi/include/c++/15.2.0/bits/stl_vector.h **** #else // ! (_GLIBCXX_SANITIZE_STD_ALLOCATOR && _GLIBCXX_SANITIZE_VECTOR)
 294:/usr/arm-none-eabi/include/c++/15.2.0/bits/stl_vector.h **** #define _GLIBCXX_ASAN_ANNOTATE_REINIT
 295:/usr/arm-none-eabi/include/c++/15.2.0/bits/stl_vector.h **** #define _GLIBCXX_ASAN_ANNOTATE_GROW(n)
 296:/usr/arm-none-eabi/include/c++/15.2.0/bits/stl_vector.h **** #define _GLIBCXX_ASAN_ANNOTATE_GREW(n)
 297:/usr/arm-none-eabi/include/c++/15.2.0/bits/stl_vector.h **** #define _GLIBCXX_ASAN_ANNOTATE_SHRINK(n)
 298:/usr/arm-none-eabi/include/c++/15.2.0/bits/stl_vector.h **** #define _GLIBCXX_ASAN_ANNOTATE_BEFORE_DEALLOC
 299:/usr/arm-none-eabi/include/c++/15.2.0/bits/stl_vector.h **** #endif // _GLIBCXX_SANITIZE_STD_ALLOCATOR && _GLIBCXX_SANITIZE_VECTOR
 300:/usr/arm-none-eabi/include/c++/15.2.0/bits/stl_vector.h ****       };
 301:/usr/arm-none-eabi/include/c++/15.2.0/bits/stl_vector.h **** 
 302:/usr/arm-none-eabi/include/c++/15.2.0/bits/stl_vector.h ****     public:
 303:/usr/arm-none-eabi/include/c++/15.2.0/bits/stl_vector.h ****       typedef _Alloc allocator_type;
 304:/usr/arm-none-eabi/include/c++/15.2.0/bits/stl_vector.h **** 
 305:/usr/arm-none-eabi/include/c++/15.2.0/bits/stl_vector.h ****       _GLIBCXX20_CONSTEXPR
 306:/usr/arm-none-eabi/include/c++/15.2.0/bits/stl_vector.h ****       _Tp_alloc_type&
 307:/usr/arm-none-eabi/include/c++/15.2.0/bits/stl_vector.h ****       _M_get_Tp_allocator() _GLIBCXX_NOEXCEPT
 308:/usr/arm-none-eabi/include/c++/15.2.0/bits/stl_vector.h ****       { return this->_M_impl; }
 309:/usr/arm-none-eabi/include/c++/15.2.0/bits/stl_vector.h **** 
 310:/usr/arm-none-eabi/include/c++/15.2.0/bits/stl_vector.h ****       _GLIBCXX20_CONSTEXPR
ARM GAS  /tmp/ccxXSPX2.s 			page 17


 311:/usr/arm-none-eabi/include/c++/15.2.0/bits/stl_vector.h ****       const _Tp_alloc_type&
 312:/usr/arm-none-eabi/include/c++/15.2.0/bits/stl_vector.h ****       _M_get_Tp_allocator() const _GLIBCXX_NOEXCEPT
 313:/usr/arm-none-eabi/include/c++/15.2.0/bits/stl_vector.h ****       { return this->_M_impl; }
 314:/usr/arm-none-eabi/include/c++/15.2.0/bits/stl_vector.h **** 
 315:/usr/arm-none-eabi/include/c++/15.2.0/bits/stl_vector.h ****       _GLIBCXX20_CONSTEXPR
 316:/usr/arm-none-eabi/include/c++/15.2.0/bits/stl_vector.h ****       allocator_type
 317:/usr/arm-none-eabi/include/c++/15.2.0/bits/stl_vector.h ****       get_allocator() const _GLIBCXX_NOEXCEPT
 318:/usr/arm-none-eabi/include/c++/15.2.0/bits/stl_vector.h ****       { return allocator_type(_M_get_Tp_allocator()); }
 319:/usr/arm-none-eabi/include/c++/15.2.0/bits/stl_vector.h **** 
 320:/usr/arm-none-eabi/include/c++/15.2.0/bits/stl_vector.h **** #if __cplusplus >= 201103L
 321:/usr/arm-none-eabi/include/c++/15.2.0/bits/stl_vector.h ****       _Vector_base() = default;
 322:/usr/arm-none-eabi/include/c++/15.2.0/bits/stl_vector.h **** #else
 323:/usr/arm-none-eabi/include/c++/15.2.0/bits/stl_vector.h ****       _Vector_base() { }
 324:/usr/arm-none-eabi/include/c++/15.2.0/bits/stl_vector.h **** #endif
 325:/usr/arm-none-eabi/include/c++/15.2.0/bits/stl_vector.h **** 
 326:/usr/arm-none-eabi/include/c++/15.2.0/bits/stl_vector.h ****       _GLIBCXX20_CONSTEXPR
 327:/usr/arm-none-eabi/include/c++/15.2.0/bits/stl_vector.h ****       _Vector_base(const allocator_type& __a) _GLIBCXX_NOEXCEPT
 328:/usr/arm-none-eabi/include/c++/15.2.0/bits/stl_vector.h ****       : _M_impl(__a) { }
 329:/usr/arm-none-eabi/include/c++/15.2.0/bits/stl_vector.h **** 
 330:/usr/arm-none-eabi/include/c++/15.2.0/bits/stl_vector.h ****       // Kept for ABI compatibility.
 331:/usr/arm-none-eabi/include/c++/15.2.0/bits/stl_vector.h **** #if !_GLIBCXX_INLINE_VERSION
 332:/usr/arm-none-eabi/include/c++/15.2.0/bits/stl_vector.h ****       _GLIBCXX20_CONSTEXPR
 333:/usr/arm-none-eabi/include/c++/15.2.0/bits/stl_vector.h ****       _Vector_base(size_t __n)
 334:/usr/arm-none-eabi/include/c++/15.2.0/bits/stl_vector.h ****       : _M_impl()
 335:/usr/arm-none-eabi/include/c++/15.2.0/bits/stl_vector.h ****       { _M_create_storage(__n); }
 336:/usr/arm-none-eabi/include/c++/15.2.0/bits/stl_vector.h **** #endif
 337:/usr/arm-none-eabi/include/c++/15.2.0/bits/stl_vector.h **** 
 338:/usr/arm-none-eabi/include/c++/15.2.0/bits/stl_vector.h ****       _GLIBCXX20_CONSTEXPR
 339:/usr/arm-none-eabi/include/c++/15.2.0/bits/stl_vector.h ****       _Vector_base(size_t __n, const allocator_type& __a)
 340:/usr/arm-none-eabi/include/c++/15.2.0/bits/stl_vector.h ****       : _M_impl(__a)
 341:/usr/arm-none-eabi/include/c++/15.2.0/bits/stl_vector.h ****       { _M_create_storage(__n); }
 342:/usr/arm-none-eabi/include/c++/15.2.0/bits/stl_vector.h **** 
 343:/usr/arm-none-eabi/include/c++/15.2.0/bits/stl_vector.h **** #if __cplusplus >= 201103L
 344:/usr/arm-none-eabi/include/c++/15.2.0/bits/stl_vector.h ****       _Vector_base(_Vector_base&&) = default;
 345:/usr/arm-none-eabi/include/c++/15.2.0/bits/stl_vector.h **** 
 346:/usr/arm-none-eabi/include/c++/15.2.0/bits/stl_vector.h ****       // Kept for ABI compatibility.
 347:/usr/arm-none-eabi/include/c++/15.2.0/bits/stl_vector.h **** # if !_GLIBCXX_INLINE_VERSION
 348:/usr/arm-none-eabi/include/c++/15.2.0/bits/stl_vector.h ****       _GLIBCXX20_CONSTEXPR
 349:/usr/arm-none-eabi/include/c++/15.2.0/bits/stl_vector.h ****       _Vector_base(_Tp_alloc_type&& __a) noexcept
 350:/usr/arm-none-eabi/include/c++/15.2.0/bits/stl_vector.h ****       : _M_impl(std::move(__a)) { }
 351:/usr/arm-none-eabi/include/c++/15.2.0/bits/stl_vector.h **** 
 352:/usr/arm-none-eabi/include/c++/15.2.0/bits/stl_vector.h ****       _GLIBCXX20_CONSTEXPR
 353:/usr/arm-none-eabi/include/c++/15.2.0/bits/stl_vector.h ****       _Vector_base(_Vector_base&& __x, const allocator_type& __a)
 354:/usr/arm-none-eabi/include/c++/15.2.0/bits/stl_vector.h ****       : _M_impl(__a)
 355:/usr/arm-none-eabi/include/c++/15.2.0/bits/stl_vector.h ****       {
 356:/usr/arm-none-eabi/include/c++/15.2.0/bits/stl_vector.h **** 	if (__x.get_allocator() == __a)
 357:/usr/arm-none-eabi/include/c++/15.2.0/bits/stl_vector.h **** 	  this->_M_impl._M_swap_data(__x._M_impl);
 358:/usr/arm-none-eabi/include/c++/15.2.0/bits/stl_vector.h **** 	else
 359:/usr/arm-none-eabi/include/c++/15.2.0/bits/stl_vector.h **** 	  {
 360:/usr/arm-none-eabi/include/c++/15.2.0/bits/stl_vector.h **** 	    size_t __n = __x._M_impl._M_finish - __x._M_impl._M_start;
 361:/usr/arm-none-eabi/include/c++/15.2.0/bits/stl_vector.h **** 	    _M_create_storage(__n);
 362:/usr/arm-none-eabi/include/c++/15.2.0/bits/stl_vector.h **** 	  }
 363:/usr/arm-none-eabi/include/c++/15.2.0/bits/stl_vector.h ****       }
 364:/usr/arm-none-eabi/include/c++/15.2.0/bits/stl_vector.h **** # endif
 365:/usr/arm-none-eabi/include/c++/15.2.0/bits/stl_vector.h **** 
 366:/usr/arm-none-eabi/include/c++/15.2.0/bits/stl_vector.h ****       _GLIBCXX20_CONSTEXPR
 367:/usr/arm-none-eabi/include/c++/15.2.0/bits/stl_vector.h ****       _Vector_base(const allocator_type& __a, _Vector_base&& __x)
ARM GAS  /tmp/ccxXSPX2.s 			page 18


 368:/usr/arm-none-eabi/include/c++/15.2.0/bits/stl_vector.h ****       : _M_impl(_Tp_alloc_type(__a), std::move(__x._M_impl))
 369:/usr/arm-none-eabi/include/c++/15.2.0/bits/stl_vector.h ****       { }
 370:/usr/arm-none-eabi/include/c++/15.2.0/bits/stl_vector.h **** #endif
 371:/usr/arm-none-eabi/include/c++/15.2.0/bits/stl_vector.h **** 
 372:/usr/arm-none-eabi/include/c++/15.2.0/bits/stl_vector.h ****       _GLIBCXX20_CONSTEXPR
 373:/usr/arm-none-eabi/include/c++/15.2.0/bits/stl_vector.h ****       ~_Vector_base() _GLIBCXX_NOEXCEPT
 374:/usr/arm-none-eabi/include/c++/15.2.0/bits/stl_vector.h ****       {
 375:/usr/arm-none-eabi/include/c++/15.2.0/bits/stl_vector.h **** 	_M_deallocate(_M_impl._M_start,
 376:/usr/arm-none-eabi/include/c++/15.2.0/bits/stl_vector.h **** 		      _M_impl._M_end_of_storage - _M_impl._M_start);
 377:/usr/arm-none-eabi/include/c++/15.2.0/bits/stl_vector.h ****       }
 378:/usr/arm-none-eabi/include/c++/15.2.0/bits/stl_vector.h **** 
 379:/usr/arm-none-eabi/include/c++/15.2.0/bits/stl_vector.h ****     public:
 380:/usr/arm-none-eabi/include/c++/15.2.0/bits/stl_vector.h ****       _Vector_impl _M_impl;
 381:/usr/arm-none-eabi/include/c++/15.2.0/bits/stl_vector.h **** 
 382:/usr/arm-none-eabi/include/c++/15.2.0/bits/stl_vector.h ****       _GLIBCXX20_CONSTEXPR
 383:/usr/arm-none-eabi/include/c++/15.2.0/bits/stl_vector.h ****       pointer
 384:/usr/arm-none-eabi/include/c++/15.2.0/bits/stl_vector.h ****       _M_allocate(size_t __n)
 385:/usr/arm-none-eabi/include/c++/15.2.0/bits/stl_vector.h ****       {
 386:/usr/arm-none-eabi/include/c++/15.2.0/bits/stl_vector.h **** 	typedef __gnu_cxx::__alloc_traits<_Tp_alloc_type> _Tr;
 387:/usr/arm-none-eabi/include/c++/15.2.0/bits/stl_vector.h **** 	return __n != 0 ? _Tr::allocate(_M_impl, __n) : pointer();
 388:/usr/arm-none-eabi/include/c++/15.2.0/bits/stl_vector.h ****       }
 389:/usr/arm-none-eabi/include/c++/15.2.0/bits/stl_vector.h **** 
 390:/usr/arm-none-eabi/include/c++/15.2.0/bits/stl_vector.h ****       _GLIBCXX20_CONSTEXPR
 391:/usr/arm-none-eabi/include/c++/15.2.0/bits/stl_vector.h ****       void
 392:/usr/arm-none-eabi/include/c++/15.2.0/bits/stl_vector.h ****       _M_deallocate(pointer __p, size_t __n)
 393:/usr/arm-none-eabi/include/c++/15.2.0/bits/stl_vector.h ****       {
 394:/usr/arm-none-eabi/include/c++/15.2.0/bits/stl_vector.h **** 	typedef __gnu_cxx::__alloc_traits<_Tp_alloc_type> _Tr;
 395:/usr/arm-none-eabi/include/c++/15.2.0/bits/stl_vector.h **** 	if (__p)
 396:/usr/arm-none-eabi/include/c++/15.2.0/bits/stl_vector.h **** 	  _Tr::deallocate(_M_impl, __p, __n);
 397:/usr/arm-none-eabi/include/c++/15.2.0/bits/stl_vector.h ****       }
 398:/usr/arm-none-eabi/include/c++/15.2.0/bits/stl_vector.h **** 
 399:/usr/arm-none-eabi/include/c++/15.2.0/bits/stl_vector.h ****     protected:
 400:/usr/arm-none-eabi/include/c++/15.2.0/bits/stl_vector.h **** 
 401:/usr/arm-none-eabi/include/c++/15.2.0/bits/stl_vector.h ****       _GLIBCXX20_CONSTEXPR
 402:/usr/arm-none-eabi/include/c++/15.2.0/bits/stl_vector.h ****       void
 403:/usr/arm-none-eabi/include/c++/15.2.0/bits/stl_vector.h ****       _M_create_storage(size_t __n)
 404:/usr/arm-none-eabi/include/c++/15.2.0/bits/stl_vector.h ****       {
 405:/usr/arm-none-eabi/include/c++/15.2.0/bits/stl_vector.h **** 	this->_M_impl._M_start = this->_M_allocate(__n);
 406:/usr/arm-none-eabi/include/c++/15.2.0/bits/stl_vector.h **** 	this->_M_impl._M_finish = this->_M_impl._M_start;
 407:/usr/arm-none-eabi/include/c++/15.2.0/bits/stl_vector.h **** 	this->_M_impl._M_end_of_storage = this->_M_impl._M_start + __n;
 408:/usr/arm-none-eabi/include/c++/15.2.0/bits/stl_vector.h ****       }
 409:/usr/arm-none-eabi/include/c++/15.2.0/bits/stl_vector.h **** 
 410:/usr/arm-none-eabi/include/c++/15.2.0/bits/stl_vector.h **** #if __glibcxx_containers_ranges // C++ >= 23
 411:/usr/arm-none-eabi/include/c++/15.2.0/bits/stl_vector.h ****       // Called by insert_range, and indirectly by assign_range, append_range.
 412:/usr/arm-none-eabi/include/c++/15.2.0/bits/stl_vector.h ****       // Initializes new elements in storage at __ptr and updates __ptr to
 413:/usr/arm-none-eabi/include/c++/15.2.0/bits/stl_vector.h ****       // point after the last new element.
 414:/usr/arm-none-eabi/include/c++/15.2.0/bits/stl_vector.h ****       // Provides strong exception safety guarantee.
 415:/usr/arm-none-eabi/include/c++/15.2.0/bits/stl_vector.h ****       // Requires [ptr, ptr+distance(rg)) is a valid range.
 416:/usr/arm-none-eabi/include/c++/15.2.0/bits/stl_vector.h ****       template<ranges::input_range _Rg>
 417:/usr/arm-none-eabi/include/c++/15.2.0/bits/stl_vector.h **** 	constexpr void
 418:/usr/arm-none-eabi/include/c++/15.2.0/bits/stl_vector.h **** 	_M_append_range_to(_Rg&& __rg, pointer& __ptr)
 419:/usr/arm-none-eabi/include/c++/15.2.0/bits/stl_vector.h **** 	{
 420:/usr/arm-none-eabi/include/c++/15.2.0/bits/stl_vector.h **** 	  __ptr = std::__uninitialized_copy_a(ranges::begin(__rg),
 421:/usr/arm-none-eabi/include/c++/15.2.0/bits/stl_vector.h **** 					      ranges::end(__rg),
 422:/usr/arm-none-eabi/include/c++/15.2.0/bits/stl_vector.h **** 					      __ptr, _M_get_Tp_allocator());
 423:/usr/arm-none-eabi/include/c++/15.2.0/bits/stl_vector.h **** 	}
 424:/usr/arm-none-eabi/include/c++/15.2.0/bits/stl_vector.h **** 
ARM GAS  /tmp/ccxXSPX2.s 			page 19


 425:/usr/arm-none-eabi/include/c++/15.2.0/bits/stl_vector.h ****       // Called by assign_range, append_range, insert_range.
 426:/usr/arm-none-eabi/include/c++/15.2.0/bits/stl_vector.h ****       // Requires capacity() >= size()+distance(rg).
 427:/usr/arm-none-eabi/include/c++/15.2.0/bits/stl_vector.h ****       template<ranges::input_range _Rg>
 428:/usr/arm-none-eabi/include/c++/15.2.0/bits/stl_vector.h **** 	constexpr void
 429:/usr/arm-none-eabi/include/c++/15.2.0/bits/stl_vector.h **** 	_M_append_range(_Rg&& __rg)
 430:/usr/arm-none-eabi/include/c++/15.2.0/bits/stl_vector.h **** 	{ _M_append_range_to(std::forward<_Rg>(__rg), _M_impl._M_finish); }
 431:/usr/arm-none-eabi/include/c++/15.2.0/bits/stl_vector.h **** #endif
 432:/usr/arm-none-eabi/include/c++/15.2.0/bits/stl_vector.h ****     };
 433:/usr/arm-none-eabi/include/c++/15.2.0/bits/stl_vector.h **** 
 434:/usr/arm-none-eabi/include/c++/15.2.0/bits/stl_vector.h ****   /**
 435:/usr/arm-none-eabi/include/c++/15.2.0/bits/stl_vector.h ****    *  @brief A standard container which offers fixed time access to
 436:/usr/arm-none-eabi/include/c++/15.2.0/bits/stl_vector.h ****    *  individual elements in any order.
 437:/usr/arm-none-eabi/include/c++/15.2.0/bits/stl_vector.h ****    *
 438:/usr/arm-none-eabi/include/c++/15.2.0/bits/stl_vector.h ****    *  @ingroup sequences
 439:/usr/arm-none-eabi/include/c++/15.2.0/bits/stl_vector.h ****    *  @headerfile vector
 440:/usr/arm-none-eabi/include/c++/15.2.0/bits/stl_vector.h ****    *  @since C++98
 441:/usr/arm-none-eabi/include/c++/15.2.0/bits/stl_vector.h ****    *
 442:/usr/arm-none-eabi/include/c++/15.2.0/bits/stl_vector.h ****    *  @tparam _Tp  Type of element.
 443:/usr/arm-none-eabi/include/c++/15.2.0/bits/stl_vector.h ****    *  @tparam _Alloc  Allocator type, defaults to allocator<_Tp>.
 444:/usr/arm-none-eabi/include/c++/15.2.0/bits/stl_vector.h ****    *
 445:/usr/arm-none-eabi/include/c++/15.2.0/bits/stl_vector.h ****    *  Meets the requirements of a <a href="tables.html#65">container</a>, a
 446:/usr/arm-none-eabi/include/c++/15.2.0/bits/stl_vector.h ****    *  <a href="tables.html#66">reversible container</a>, and a
 447:/usr/arm-none-eabi/include/c++/15.2.0/bits/stl_vector.h ****    *  <a href="tables.html#67">sequence</a>, including the
 448:/usr/arm-none-eabi/include/c++/15.2.0/bits/stl_vector.h ****    *  <a href="tables.html#68">optional sequence requirements</a> with the
 449:/usr/arm-none-eabi/include/c++/15.2.0/bits/stl_vector.h ****    *  %exception of @c push_front and @c pop_front.
 450:/usr/arm-none-eabi/include/c++/15.2.0/bits/stl_vector.h ****    *
 451:/usr/arm-none-eabi/include/c++/15.2.0/bits/stl_vector.h ****    *  In some terminology a %vector can be described as a dynamic
 452:/usr/arm-none-eabi/include/c++/15.2.0/bits/stl_vector.h ****    *  C-style array, it offers fast and efficient access to individual
 453:/usr/arm-none-eabi/include/c++/15.2.0/bits/stl_vector.h ****    *  elements in any order and saves the user from worrying about
 454:/usr/arm-none-eabi/include/c++/15.2.0/bits/stl_vector.h ****    *  memory and size allocation.  Subscripting ( @c [] ) access is
 455:/usr/arm-none-eabi/include/c++/15.2.0/bits/stl_vector.h ****    *  also provided as with C-style arrays.
 456:/usr/arm-none-eabi/include/c++/15.2.0/bits/stl_vector.h ****   */
 457:/usr/arm-none-eabi/include/c++/15.2.0/bits/stl_vector.h ****   template<typename _Tp, typename _Alloc = std::allocator<_Tp> >
 458:/usr/arm-none-eabi/include/c++/15.2.0/bits/stl_vector.h ****     class vector : protected _Vector_base<_Tp, _Alloc>
 459:/usr/arm-none-eabi/include/c++/15.2.0/bits/stl_vector.h ****     {
 460:/usr/arm-none-eabi/include/c++/15.2.0/bits/stl_vector.h **** #ifdef _GLIBCXX_CONCEPT_CHECKS
 461:/usr/arm-none-eabi/include/c++/15.2.0/bits/stl_vector.h ****       // Concept requirements.
 462:/usr/arm-none-eabi/include/c++/15.2.0/bits/stl_vector.h ****       typedef typename _Alloc::value_type		_Alloc_value_type;
 463:/usr/arm-none-eabi/include/c++/15.2.0/bits/stl_vector.h **** # if __cplusplus < 201103L
 464:/usr/arm-none-eabi/include/c++/15.2.0/bits/stl_vector.h ****       __glibcxx_class_requires(_Tp, _SGIAssignableConcept)
 465:/usr/arm-none-eabi/include/c++/15.2.0/bits/stl_vector.h **** # endif
 466:/usr/arm-none-eabi/include/c++/15.2.0/bits/stl_vector.h ****       __glibcxx_class_requires2(_Tp, _Alloc_value_type, _SameTypeConcept)
 467:/usr/arm-none-eabi/include/c++/15.2.0/bits/stl_vector.h **** #endif
 468:/usr/arm-none-eabi/include/c++/15.2.0/bits/stl_vector.h **** 
 469:/usr/arm-none-eabi/include/c++/15.2.0/bits/stl_vector.h **** #if __cplusplus >= 201103L
 470:/usr/arm-none-eabi/include/c++/15.2.0/bits/stl_vector.h ****       static_assert(is_same<typename remove_cv<_Tp>::type, _Tp>::value,
 471:/usr/arm-none-eabi/include/c++/15.2.0/bits/stl_vector.h **** 	  "std::vector must have a non-const, non-volatile value_type");
 472:/usr/arm-none-eabi/include/c++/15.2.0/bits/stl_vector.h **** # if __cplusplus > 201703L || defined __STRICT_ANSI__
 473:/usr/arm-none-eabi/include/c++/15.2.0/bits/stl_vector.h ****       static_assert(is_same<typename _Alloc::value_type, _Tp>::value,
 474:/usr/arm-none-eabi/include/c++/15.2.0/bits/stl_vector.h **** 	  "std::vector must have the same value_type as its allocator");
 475:/usr/arm-none-eabi/include/c++/15.2.0/bits/stl_vector.h **** # endif
 476:/usr/arm-none-eabi/include/c++/15.2.0/bits/stl_vector.h **** #endif
 477:/usr/arm-none-eabi/include/c++/15.2.0/bits/stl_vector.h **** 
 478:/usr/arm-none-eabi/include/c++/15.2.0/bits/stl_vector.h ****       typedef _Vector_base<_Tp, _Alloc>			_Base;
 479:/usr/arm-none-eabi/include/c++/15.2.0/bits/stl_vector.h ****       typedef typename _Base::_Tp_alloc_type		_Tp_alloc_type;
 480:/usr/arm-none-eabi/include/c++/15.2.0/bits/stl_vector.h ****       typedef __gnu_cxx::__alloc_traits<_Tp_alloc_type>	_Alloc_traits;
 481:/usr/arm-none-eabi/include/c++/15.2.0/bits/stl_vector.h **** 
ARM GAS  /tmp/ccxXSPX2.s 			page 20


 482:/usr/arm-none-eabi/include/c++/15.2.0/bits/stl_vector.h ****     public:
 483:/usr/arm-none-eabi/include/c++/15.2.0/bits/stl_vector.h ****       typedef _Tp					value_type;
 484:/usr/arm-none-eabi/include/c++/15.2.0/bits/stl_vector.h ****       typedef typename _Base::pointer			pointer;
 485:/usr/arm-none-eabi/include/c++/15.2.0/bits/stl_vector.h ****       typedef typename _Alloc_traits::const_pointer	const_pointer;
 486:/usr/arm-none-eabi/include/c++/15.2.0/bits/stl_vector.h ****       typedef typename _Alloc_traits::reference		reference;
 487:/usr/arm-none-eabi/include/c++/15.2.0/bits/stl_vector.h ****       typedef typename _Alloc_traits::const_reference	const_reference;
 488:/usr/arm-none-eabi/include/c++/15.2.0/bits/stl_vector.h ****       typedef __gnu_cxx::__normal_iterator<pointer, vector> iterator;
 489:/usr/arm-none-eabi/include/c++/15.2.0/bits/stl_vector.h ****       typedef __gnu_cxx::__normal_iterator<const_pointer, vector>
 490:/usr/arm-none-eabi/include/c++/15.2.0/bits/stl_vector.h ****       const_iterator;
 491:/usr/arm-none-eabi/include/c++/15.2.0/bits/stl_vector.h ****       typedef std::reverse_iterator<const_iterator>	const_reverse_iterator;
 492:/usr/arm-none-eabi/include/c++/15.2.0/bits/stl_vector.h ****       typedef std::reverse_iterator<iterator>		reverse_iterator;
 493:/usr/arm-none-eabi/include/c++/15.2.0/bits/stl_vector.h ****       typedef size_t					size_type;
 494:/usr/arm-none-eabi/include/c++/15.2.0/bits/stl_vector.h ****       typedef ptrdiff_t					difference_type;
 495:/usr/arm-none-eabi/include/c++/15.2.0/bits/stl_vector.h ****       typedef _Alloc					allocator_type;
 496:/usr/arm-none-eabi/include/c++/15.2.0/bits/stl_vector.h **** 
 497:/usr/arm-none-eabi/include/c++/15.2.0/bits/stl_vector.h ****     private:
 498:/usr/arm-none-eabi/include/c++/15.2.0/bits/stl_vector.h **** #if __cplusplus >= 201103L
 499:/usr/arm-none-eabi/include/c++/15.2.0/bits/stl_vector.h ****       static constexpr bool
 500:/usr/arm-none-eabi/include/c++/15.2.0/bits/stl_vector.h ****       _S_nothrow_relocate(true_type)
 501:/usr/arm-none-eabi/include/c++/15.2.0/bits/stl_vector.h ****       {
 502:/usr/arm-none-eabi/include/c++/15.2.0/bits/stl_vector.h **** 	return noexcept(std::__relocate_a(std::declval<pointer>(),
 503:/usr/arm-none-eabi/include/c++/15.2.0/bits/stl_vector.h **** 					  std::declval<pointer>(),
 504:/usr/arm-none-eabi/include/c++/15.2.0/bits/stl_vector.h **** 					  std::declval<pointer>(),
 505:/usr/arm-none-eabi/include/c++/15.2.0/bits/stl_vector.h **** 					  std::declval<_Tp_alloc_type&>()));
 506:/usr/arm-none-eabi/include/c++/15.2.0/bits/stl_vector.h ****       }
 507:/usr/arm-none-eabi/include/c++/15.2.0/bits/stl_vector.h **** 
 508:/usr/arm-none-eabi/include/c++/15.2.0/bits/stl_vector.h ****       static constexpr bool
 509:/usr/arm-none-eabi/include/c++/15.2.0/bits/stl_vector.h ****       _S_nothrow_relocate(false_type)
 510:/usr/arm-none-eabi/include/c++/15.2.0/bits/stl_vector.h ****       { return false; }
 511:/usr/arm-none-eabi/include/c++/15.2.0/bits/stl_vector.h **** 
 512:/usr/arm-none-eabi/include/c++/15.2.0/bits/stl_vector.h ****       static constexpr bool
 513:/usr/arm-none-eabi/include/c++/15.2.0/bits/stl_vector.h ****       _S_use_relocate()
 514:/usr/arm-none-eabi/include/c++/15.2.0/bits/stl_vector.h ****       {
 515:/usr/arm-none-eabi/include/c++/15.2.0/bits/stl_vector.h **** 	// Instantiating std::__relocate_a might cause an error outside the
 516:/usr/arm-none-eabi/include/c++/15.2.0/bits/stl_vector.h **** 	// immediate context (in __relocate_object_a's noexcept-specifier),
 517:/usr/arm-none-eabi/include/c++/15.2.0/bits/stl_vector.h **** 	// so only do it if we know the type can be move-inserted into *this.
 518:/usr/arm-none-eabi/include/c++/15.2.0/bits/stl_vector.h **** 	return _S_nothrow_relocate(__is_move_insertable<_Tp_alloc_type>{});
 519:/usr/arm-none-eabi/include/c++/15.2.0/bits/stl_vector.h ****       }
 520:/usr/arm-none-eabi/include/c++/15.2.0/bits/stl_vector.h **** 
 521:/usr/arm-none-eabi/include/c++/15.2.0/bits/stl_vector.h ****       static pointer
 522:/usr/arm-none-eabi/include/c++/15.2.0/bits/stl_vector.h ****       _S_do_relocate(pointer __first, pointer __last, pointer __result,
 523:/usr/arm-none-eabi/include/c++/15.2.0/bits/stl_vector.h **** 		     _Tp_alloc_type& __alloc, true_type) noexcept
 524:/usr/arm-none-eabi/include/c++/15.2.0/bits/stl_vector.h ****       {
 525:/usr/arm-none-eabi/include/c++/15.2.0/bits/stl_vector.h **** 	return std::__relocate_a(__first, __last, __result, __alloc);
 526:/usr/arm-none-eabi/include/c++/15.2.0/bits/stl_vector.h ****       }
 527:/usr/arm-none-eabi/include/c++/15.2.0/bits/stl_vector.h **** 
 528:/usr/arm-none-eabi/include/c++/15.2.0/bits/stl_vector.h ****       static pointer
 529:/usr/arm-none-eabi/include/c++/15.2.0/bits/stl_vector.h ****       _S_do_relocate(pointer, pointer, pointer __result,
 530:/usr/arm-none-eabi/include/c++/15.2.0/bits/stl_vector.h **** 		     _Tp_alloc_type&, false_type) noexcept
 531:/usr/arm-none-eabi/include/c++/15.2.0/bits/stl_vector.h ****       { return __result; }
 532:/usr/arm-none-eabi/include/c++/15.2.0/bits/stl_vector.h **** 
 533:/usr/arm-none-eabi/include/c++/15.2.0/bits/stl_vector.h ****       static _GLIBCXX20_CONSTEXPR pointer
 534:/usr/arm-none-eabi/include/c++/15.2.0/bits/stl_vector.h ****       _S_relocate(pointer __first, pointer __last, pointer __result,
 535:/usr/arm-none-eabi/include/c++/15.2.0/bits/stl_vector.h **** 		  _Tp_alloc_type& __alloc) noexcept
 536:/usr/arm-none-eabi/include/c++/15.2.0/bits/stl_vector.h ****       {
 537:/usr/arm-none-eabi/include/c++/15.2.0/bits/stl_vector.h **** #if __cpp_if_constexpr
 538:/usr/arm-none-eabi/include/c++/15.2.0/bits/stl_vector.h **** 	// All callers have already checked _S_use_relocate() so just do it.
ARM GAS  /tmp/ccxXSPX2.s 			page 21


 539:/usr/arm-none-eabi/include/c++/15.2.0/bits/stl_vector.h **** 	return std::__relocate_a(__first, __last, __result, __alloc);
 540:/usr/arm-none-eabi/include/c++/15.2.0/bits/stl_vector.h **** #else
 541:/usr/arm-none-eabi/include/c++/15.2.0/bits/stl_vector.h **** 	using __do_it = __bool_constant<_S_use_relocate()>;
 542:/usr/arm-none-eabi/include/c++/15.2.0/bits/stl_vector.h **** 	return _S_do_relocate(__first, __last, __result, __alloc, __do_it{});
 543:/usr/arm-none-eabi/include/c++/15.2.0/bits/stl_vector.h **** #endif
 544:/usr/arm-none-eabi/include/c++/15.2.0/bits/stl_vector.h ****       }
 545:/usr/arm-none-eabi/include/c++/15.2.0/bits/stl_vector.h **** #endif // C++11
 546:/usr/arm-none-eabi/include/c++/15.2.0/bits/stl_vector.h **** 
 547:/usr/arm-none-eabi/include/c++/15.2.0/bits/stl_vector.h ****     protected:
 548:/usr/arm-none-eabi/include/c++/15.2.0/bits/stl_vector.h ****       using _Base::_M_allocate;
 549:/usr/arm-none-eabi/include/c++/15.2.0/bits/stl_vector.h ****       using _Base::_M_deallocate;
 550:/usr/arm-none-eabi/include/c++/15.2.0/bits/stl_vector.h ****       using _Base::_M_impl;
 551:/usr/arm-none-eabi/include/c++/15.2.0/bits/stl_vector.h ****       using _Base::_M_get_Tp_allocator;
 552:/usr/arm-none-eabi/include/c++/15.2.0/bits/stl_vector.h **** 
 553:/usr/arm-none-eabi/include/c++/15.2.0/bits/stl_vector.h ****     public:
 554:/usr/arm-none-eabi/include/c++/15.2.0/bits/stl_vector.h ****       // [23.2.4.1] construct/copy/destroy
 555:/usr/arm-none-eabi/include/c++/15.2.0/bits/stl_vector.h ****       // (assign() and get_allocator() are also listed in this section)
 556:/usr/arm-none-eabi/include/c++/15.2.0/bits/stl_vector.h **** 
 557:/usr/arm-none-eabi/include/c++/15.2.0/bits/stl_vector.h ****       /**
 558:/usr/arm-none-eabi/include/c++/15.2.0/bits/stl_vector.h ****        *  @brief  Creates a %vector with no elements.
 559:/usr/arm-none-eabi/include/c++/15.2.0/bits/stl_vector.h ****        */
 560:/usr/arm-none-eabi/include/c++/15.2.0/bits/stl_vector.h **** #if __cplusplus >= 201103L
 561:/usr/arm-none-eabi/include/c++/15.2.0/bits/stl_vector.h ****       vector() = default;
 562:/usr/arm-none-eabi/include/c++/15.2.0/bits/stl_vector.h **** #else
 563:/usr/arm-none-eabi/include/c++/15.2.0/bits/stl_vector.h ****       vector() { }
 564:/usr/arm-none-eabi/include/c++/15.2.0/bits/stl_vector.h **** #endif
 565:/usr/arm-none-eabi/include/c++/15.2.0/bits/stl_vector.h **** 
 566:/usr/arm-none-eabi/include/c++/15.2.0/bits/stl_vector.h ****       /**
 567:/usr/arm-none-eabi/include/c++/15.2.0/bits/stl_vector.h ****        *  @brief  Creates a %vector with no elements.
 568:/usr/arm-none-eabi/include/c++/15.2.0/bits/stl_vector.h ****        *  @param  __a  An allocator object.
 569:/usr/arm-none-eabi/include/c++/15.2.0/bits/stl_vector.h ****        */
 570:/usr/arm-none-eabi/include/c++/15.2.0/bits/stl_vector.h ****       explicit
 571:/usr/arm-none-eabi/include/c++/15.2.0/bits/stl_vector.h ****       _GLIBCXX20_CONSTEXPR
 572:/usr/arm-none-eabi/include/c++/15.2.0/bits/stl_vector.h ****       vector(const allocator_type& __a) _GLIBCXX_NOEXCEPT
 573:/usr/arm-none-eabi/include/c++/15.2.0/bits/stl_vector.h ****       : _Base(__a) { }
 574:/usr/arm-none-eabi/include/c++/15.2.0/bits/stl_vector.h **** 
 575:/usr/arm-none-eabi/include/c++/15.2.0/bits/stl_vector.h **** #if __cplusplus >= 201103L
 576:/usr/arm-none-eabi/include/c++/15.2.0/bits/stl_vector.h ****       /**
 577:/usr/arm-none-eabi/include/c++/15.2.0/bits/stl_vector.h ****        *  @brief  Creates a %vector with default constructed elements.
 578:/usr/arm-none-eabi/include/c++/15.2.0/bits/stl_vector.h ****        *  @param  __n  The number of elements to initially create.
 579:/usr/arm-none-eabi/include/c++/15.2.0/bits/stl_vector.h ****        *  @param  __a  An allocator.
 580:/usr/arm-none-eabi/include/c++/15.2.0/bits/stl_vector.h ****        *
 581:/usr/arm-none-eabi/include/c++/15.2.0/bits/stl_vector.h ****        *  This constructor fills the %vector with @a __n default
 582:/usr/arm-none-eabi/include/c++/15.2.0/bits/stl_vector.h ****        *  constructed elements.
 583:/usr/arm-none-eabi/include/c++/15.2.0/bits/stl_vector.h ****        */
 584:/usr/arm-none-eabi/include/c++/15.2.0/bits/stl_vector.h ****       explicit
 585:/usr/arm-none-eabi/include/c++/15.2.0/bits/stl_vector.h ****       _GLIBCXX20_CONSTEXPR
 586:/usr/arm-none-eabi/include/c++/15.2.0/bits/stl_vector.h ****       vector(size_type __n, const allocator_type& __a = allocator_type())
 587:/usr/arm-none-eabi/include/c++/15.2.0/bits/stl_vector.h ****       : _Base(_S_check_init_len(__n, __a), __a)
 588:/usr/arm-none-eabi/include/c++/15.2.0/bits/stl_vector.h ****       { _M_default_initialize(__n); }
 589:/usr/arm-none-eabi/include/c++/15.2.0/bits/stl_vector.h **** 
 590:/usr/arm-none-eabi/include/c++/15.2.0/bits/stl_vector.h ****       /**
 591:/usr/arm-none-eabi/include/c++/15.2.0/bits/stl_vector.h ****        *  @brief  Creates a %vector with copies of an exemplar element.
 592:/usr/arm-none-eabi/include/c++/15.2.0/bits/stl_vector.h ****        *  @param  __n  The number of elements to initially create.
 593:/usr/arm-none-eabi/include/c++/15.2.0/bits/stl_vector.h ****        *  @param  __value  An element to copy.
 594:/usr/arm-none-eabi/include/c++/15.2.0/bits/stl_vector.h ****        *  @param  __a  An allocator.
 595:/usr/arm-none-eabi/include/c++/15.2.0/bits/stl_vector.h ****        *
ARM GAS  /tmp/ccxXSPX2.s 			page 22


 596:/usr/arm-none-eabi/include/c++/15.2.0/bits/stl_vector.h ****        *  This constructor fills the %vector with @a __n copies of @a __value.
 597:/usr/arm-none-eabi/include/c++/15.2.0/bits/stl_vector.h ****        */
 598:/usr/arm-none-eabi/include/c++/15.2.0/bits/stl_vector.h ****       _GLIBCXX20_CONSTEXPR
 599:/usr/arm-none-eabi/include/c++/15.2.0/bits/stl_vector.h ****       vector(size_type __n, const value_type& __value,
 600:/usr/arm-none-eabi/include/c++/15.2.0/bits/stl_vector.h **** 	     const allocator_type& __a = allocator_type())
 601:/usr/arm-none-eabi/include/c++/15.2.0/bits/stl_vector.h ****       : _Base(_S_check_init_len(__n, __a), __a)
 602:/usr/arm-none-eabi/include/c++/15.2.0/bits/stl_vector.h ****       { _M_fill_initialize(__n, __value); }
 603:/usr/arm-none-eabi/include/c++/15.2.0/bits/stl_vector.h **** #else
 604:/usr/arm-none-eabi/include/c++/15.2.0/bits/stl_vector.h ****       /**
 605:/usr/arm-none-eabi/include/c++/15.2.0/bits/stl_vector.h ****        *  @brief  Creates a %vector with copies of an exemplar element.
 606:/usr/arm-none-eabi/include/c++/15.2.0/bits/stl_vector.h ****        *  @param  __n  The number of elements to initially create.
 607:/usr/arm-none-eabi/include/c++/15.2.0/bits/stl_vector.h ****        *  @param  __value  An element to copy.
 608:/usr/arm-none-eabi/include/c++/15.2.0/bits/stl_vector.h ****        *  @param  __a  An allocator.
 609:/usr/arm-none-eabi/include/c++/15.2.0/bits/stl_vector.h ****        *
 610:/usr/arm-none-eabi/include/c++/15.2.0/bits/stl_vector.h ****        *  This constructor fills the %vector with @a __n copies of @a __value.
 611:/usr/arm-none-eabi/include/c++/15.2.0/bits/stl_vector.h ****        */
 612:/usr/arm-none-eabi/include/c++/15.2.0/bits/stl_vector.h ****       explicit
 613:/usr/arm-none-eabi/include/c++/15.2.0/bits/stl_vector.h ****       vector(size_type __n, const value_type& __value = value_type(),
 614:/usr/arm-none-eabi/include/c++/15.2.0/bits/stl_vector.h **** 	     const allocator_type& __a = allocator_type())
 615:/usr/arm-none-eabi/include/c++/15.2.0/bits/stl_vector.h ****       : _Base(_S_check_init_len(__n, __a), __a)
 616:/usr/arm-none-eabi/include/c++/15.2.0/bits/stl_vector.h ****       { _M_fill_initialize(__n, __value); }
 617:/usr/arm-none-eabi/include/c++/15.2.0/bits/stl_vector.h **** #endif
 618:/usr/arm-none-eabi/include/c++/15.2.0/bits/stl_vector.h **** 
 619:/usr/arm-none-eabi/include/c++/15.2.0/bits/stl_vector.h ****       /**
 620:/usr/arm-none-eabi/include/c++/15.2.0/bits/stl_vector.h ****        *  @brief  %Vector copy constructor.
 621:/usr/arm-none-eabi/include/c++/15.2.0/bits/stl_vector.h ****        *  @param  __x  A %vector of identical element and allocator types.
 622:/usr/arm-none-eabi/include/c++/15.2.0/bits/stl_vector.h ****        *
 623:/usr/arm-none-eabi/include/c++/15.2.0/bits/stl_vector.h ****        *  All the elements of @a __x are copied, but any unused capacity in
 624:/usr/arm-none-eabi/include/c++/15.2.0/bits/stl_vector.h ****        *  @a __x  will not be copied
 625:/usr/arm-none-eabi/include/c++/15.2.0/bits/stl_vector.h ****        *  (i.e. capacity() == size() in the new %vector).
 626:/usr/arm-none-eabi/include/c++/15.2.0/bits/stl_vector.h ****        *
 627:/usr/arm-none-eabi/include/c++/15.2.0/bits/stl_vector.h ****        *  The newly-created %vector uses a copy of the allocator object used
 628:/usr/arm-none-eabi/include/c++/15.2.0/bits/stl_vector.h ****        *  by @a __x (unless the allocator traits dictate a different object).
 629:/usr/arm-none-eabi/include/c++/15.2.0/bits/stl_vector.h ****        */
 630:/usr/arm-none-eabi/include/c++/15.2.0/bits/stl_vector.h ****       _GLIBCXX20_CONSTEXPR
 631:/usr/arm-none-eabi/include/c++/15.2.0/bits/stl_vector.h ****       vector(const vector& __x)
 632:/usr/arm-none-eabi/include/c++/15.2.0/bits/stl_vector.h ****       : _Base(__x.size(),
 633:/usr/arm-none-eabi/include/c++/15.2.0/bits/stl_vector.h **** 	_Alloc_traits::_S_select_on_copy(__x._M_get_Tp_allocator()))
 634:/usr/arm-none-eabi/include/c++/15.2.0/bits/stl_vector.h ****       {
 635:/usr/arm-none-eabi/include/c++/15.2.0/bits/stl_vector.h **** 	this->_M_impl._M_finish =
 636:/usr/arm-none-eabi/include/c++/15.2.0/bits/stl_vector.h **** 	  std::__uninitialized_copy_a(__x.begin(), __x.end(),
 637:/usr/arm-none-eabi/include/c++/15.2.0/bits/stl_vector.h **** 				      this->_M_impl._M_start,
 638:/usr/arm-none-eabi/include/c++/15.2.0/bits/stl_vector.h **** 				      _M_get_Tp_allocator());
 639:/usr/arm-none-eabi/include/c++/15.2.0/bits/stl_vector.h ****       }
 640:/usr/arm-none-eabi/include/c++/15.2.0/bits/stl_vector.h **** 
 641:/usr/arm-none-eabi/include/c++/15.2.0/bits/stl_vector.h **** #if __cplusplus >= 201103L
 642:/usr/arm-none-eabi/include/c++/15.2.0/bits/stl_vector.h ****       /**
 643:/usr/arm-none-eabi/include/c++/15.2.0/bits/stl_vector.h ****        *  @brief  %Vector move constructor.
 644:/usr/arm-none-eabi/include/c++/15.2.0/bits/stl_vector.h ****        *
 645:/usr/arm-none-eabi/include/c++/15.2.0/bits/stl_vector.h ****        *  The newly-created %vector contains the exact contents of the
 646:/usr/arm-none-eabi/include/c++/15.2.0/bits/stl_vector.h ****        *  moved instance.
 647:/usr/arm-none-eabi/include/c++/15.2.0/bits/stl_vector.h ****        *  The contents of the moved instance are a valid, but unspecified
 648:/usr/arm-none-eabi/include/c++/15.2.0/bits/stl_vector.h ****        *  %vector.
 649:/usr/arm-none-eabi/include/c++/15.2.0/bits/stl_vector.h ****        */
 650:/usr/arm-none-eabi/include/c++/15.2.0/bits/stl_vector.h ****       vector(vector&&) noexcept = default;
 651:/usr/arm-none-eabi/include/c++/15.2.0/bits/stl_vector.h **** 
 652:/usr/arm-none-eabi/include/c++/15.2.0/bits/stl_vector.h ****       /// Copy constructor with alternative allocator
ARM GAS  /tmp/ccxXSPX2.s 			page 23


 653:/usr/arm-none-eabi/include/c++/15.2.0/bits/stl_vector.h ****       _GLIBCXX20_CONSTEXPR
 654:/usr/arm-none-eabi/include/c++/15.2.0/bits/stl_vector.h ****       vector(const vector& __x, const __type_identity_t<allocator_type>& __a)
 655:/usr/arm-none-eabi/include/c++/15.2.0/bits/stl_vector.h ****       : _Base(__x.size(), __a)
 656:/usr/arm-none-eabi/include/c++/15.2.0/bits/stl_vector.h ****       {
 657:/usr/arm-none-eabi/include/c++/15.2.0/bits/stl_vector.h **** 	this->_M_impl._M_finish =
 658:/usr/arm-none-eabi/include/c++/15.2.0/bits/stl_vector.h **** 	  std::__uninitialized_copy_a(__x.begin(), __x.end(),
 659:/usr/arm-none-eabi/include/c++/15.2.0/bits/stl_vector.h **** 				      this->_M_impl._M_start,
 660:/usr/arm-none-eabi/include/c++/15.2.0/bits/stl_vector.h **** 				      _M_get_Tp_allocator());
 661:/usr/arm-none-eabi/include/c++/15.2.0/bits/stl_vector.h ****       }
 662:/usr/arm-none-eabi/include/c++/15.2.0/bits/stl_vector.h **** 
 663:/usr/arm-none-eabi/include/c++/15.2.0/bits/stl_vector.h ****     private:
 664:/usr/arm-none-eabi/include/c++/15.2.0/bits/stl_vector.h ****       _GLIBCXX20_CONSTEXPR
 665:/usr/arm-none-eabi/include/c++/15.2.0/bits/stl_vector.h ****       vector(vector&& __rv, const allocator_type& __m, true_type) noexcept
 666:/usr/arm-none-eabi/include/c++/15.2.0/bits/stl_vector.h ****       : _Base(__m, std::move(__rv))
 667:/usr/arm-none-eabi/include/c++/15.2.0/bits/stl_vector.h ****       { }
 668:/usr/arm-none-eabi/include/c++/15.2.0/bits/stl_vector.h **** 
 669:/usr/arm-none-eabi/include/c++/15.2.0/bits/stl_vector.h ****       _GLIBCXX20_CONSTEXPR
 670:/usr/arm-none-eabi/include/c++/15.2.0/bits/stl_vector.h ****       vector(vector&& __rv, const allocator_type& __m, false_type)
 671:/usr/arm-none-eabi/include/c++/15.2.0/bits/stl_vector.h ****       : _Base(__m)
 672:/usr/arm-none-eabi/include/c++/15.2.0/bits/stl_vector.h ****       {
 673:/usr/arm-none-eabi/include/c++/15.2.0/bits/stl_vector.h **** 	if (__rv.get_allocator() == __m)
 674:/usr/arm-none-eabi/include/c++/15.2.0/bits/stl_vector.h **** 	  this->_M_impl._M_swap_data(__rv._M_impl);
 675:/usr/arm-none-eabi/include/c++/15.2.0/bits/stl_vector.h **** 	else if (!__rv.empty())
 676:/usr/arm-none-eabi/include/c++/15.2.0/bits/stl_vector.h **** 	  {
 677:/usr/arm-none-eabi/include/c++/15.2.0/bits/stl_vector.h **** 	    this->_M_create_storage(__rv.size());
 678:/usr/arm-none-eabi/include/c++/15.2.0/bits/stl_vector.h **** 	    this->_M_impl._M_finish =
 679:/usr/arm-none-eabi/include/c++/15.2.0/bits/stl_vector.h **** 	      std::__uninitialized_move_a(__rv.begin(), __rv.end(),
 680:/usr/arm-none-eabi/include/c++/15.2.0/bits/stl_vector.h **** 					  this->_M_impl._M_start,
 681:/usr/arm-none-eabi/include/c++/15.2.0/bits/stl_vector.h **** 					  _M_get_Tp_allocator());
 682:/usr/arm-none-eabi/include/c++/15.2.0/bits/stl_vector.h **** 	    __rv.clear();
 683:/usr/arm-none-eabi/include/c++/15.2.0/bits/stl_vector.h **** 	  }
 684:/usr/arm-none-eabi/include/c++/15.2.0/bits/stl_vector.h ****       }
 685:/usr/arm-none-eabi/include/c++/15.2.0/bits/stl_vector.h **** 
 686:/usr/arm-none-eabi/include/c++/15.2.0/bits/stl_vector.h ****     public:
 687:/usr/arm-none-eabi/include/c++/15.2.0/bits/stl_vector.h ****       /// Move constructor with alternative allocator
 688:/usr/arm-none-eabi/include/c++/15.2.0/bits/stl_vector.h ****       _GLIBCXX20_CONSTEXPR
 689:/usr/arm-none-eabi/include/c++/15.2.0/bits/stl_vector.h ****       vector(vector&& __rv, const __type_identity_t<allocator_type>& __m)
 690:/usr/arm-none-eabi/include/c++/15.2.0/bits/stl_vector.h ****       noexcept( noexcept(
 691:/usr/arm-none-eabi/include/c++/15.2.0/bits/stl_vector.h **** 	vector(std::declval<vector&&>(), std::declval<const allocator_type&>(),
 692:/usr/arm-none-eabi/include/c++/15.2.0/bits/stl_vector.h **** 	       std::declval<typename _Alloc_traits::is_always_equal>())) )
 693:/usr/arm-none-eabi/include/c++/15.2.0/bits/stl_vector.h ****       : vector(std::move(__rv), __m, typename _Alloc_traits::is_always_equal{})
 694:/usr/arm-none-eabi/include/c++/15.2.0/bits/stl_vector.h ****       { }
 695:/usr/arm-none-eabi/include/c++/15.2.0/bits/stl_vector.h **** 
 696:/usr/arm-none-eabi/include/c++/15.2.0/bits/stl_vector.h ****       /**
 697:/usr/arm-none-eabi/include/c++/15.2.0/bits/stl_vector.h ****        *  @brief  Builds a %vector from an initializer list.
 698:/usr/arm-none-eabi/include/c++/15.2.0/bits/stl_vector.h ****        *  @param  __l  An initializer_list.
 699:/usr/arm-none-eabi/include/c++/15.2.0/bits/stl_vector.h ****        *  @param  __a  An allocator.
 700:/usr/arm-none-eabi/include/c++/15.2.0/bits/stl_vector.h ****        *
 701:/usr/arm-none-eabi/include/c++/15.2.0/bits/stl_vector.h ****        *  Create a %vector consisting of copies of the elements in the
 702:/usr/arm-none-eabi/include/c++/15.2.0/bits/stl_vector.h ****        *  initializer_list @a __l.
 703:/usr/arm-none-eabi/include/c++/15.2.0/bits/stl_vector.h ****        *
 704:/usr/arm-none-eabi/include/c++/15.2.0/bits/stl_vector.h ****        *  This will call the element type's copy constructor N times
 705:/usr/arm-none-eabi/include/c++/15.2.0/bits/stl_vector.h ****        *  (where N is @a __l.size()) and do no memory reallocation.
 706:/usr/arm-none-eabi/include/c++/15.2.0/bits/stl_vector.h ****        */
 707:/usr/arm-none-eabi/include/c++/15.2.0/bits/stl_vector.h ****       _GLIBCXX20_CONSTEXPR
 708:/usr/arm-none-eabi/include/c++/15.2.0/bits/stl_vector.h ****       vector(initializer_list<value_type> __l,
 709:/usr/arm-none-eabi/include/c++/15.2.0/bits/stl_vector.h **** 	     const allocator_type& __a = allocator_type())
ARM GAS  /tmp/ccxXSPX2.s 			page 24


 710:/usr/arm-none-eabi/include/c++/15.2.0/bits/stl_vector.h ****       : _Base(__a)
 711:/usr/arm-none-eabi/include/c++/15.2.0/bits/stl_vector.h ****       {
 712:/usr/arm-none-eabi/include/c++/15.2.0/bits/stl_vector.h **** 	_M_range_initialize_n(__l.begin(), __l.end(), __l.size());
 713:/usr/arm-none-eabi/include/c++/15.2.0/bits/stl_vector.h ****       }
 714:/usr/arm-none-eabi/include/c++/15.2.0/bits/stl_vector.h **** #endif
 715:/usr/arm-none-eabi/include/c++/15.2.0/bits/stl_vector.h **** 
 716:/usr/arm-none-eabi/include/c++/15.2.0/bits/stl_vector.h ****       /**
 717:/usr/arm-none-eabi/include/c++/15.2.0/bits/stl_vector.h ****        *  @brief  Builds a %vector from a range.
 718:/usr/arm-none-eabi/include/c++/15.2.0/bits/stl_vector.h ****        *  @param  __first  An input iterator.
 719:/usr/arm-none-eabi/include/c++/15.2.0/bits/stl_vector.h ****        *  @param  __last  An input iterator.
 720:/usr/arm-none-eabi/include/c++/15.2.0/bits/stl_vector.h ****        *  @param  __a  An allocator.
 721:/usr/arm-none-eabi/include/c++/15.2.0/bits/stl_vector.h ****        *
 722:/usr/arm-none-eabi/include/c++/15.2.0/bits/stl_vector.h ****        *  Create a %vector consisting of copies of the elements from
 723:/usr/arm-none-eabi/include/c++/15.2.0/bits/stl_vector.h ****        *  [first,last).
 724:/usr/arm-none-eabi/include/c++/15.2.0/bits/stl_vector.h ****        *
 725:/usr/arm-none-eabi/include/c++/15.2.0/bits/stl_vector.h ****        *  If the iterators are forward, bidirectional, or
 726:/usr/arm-none-eabi/include/c++/15.2.0/bits/stl_vector.h ****        *  random-access, then this will call the elements' copy
 727:/usr/arm-none-eabi/include/c++/15.2.0/bits/stl_vector.h ****        *  constructor N times (where N is distance(first,last)) and do
 728:/usr/arm-none-eabi/include/c++/15.2.0/bits/stl_vector.h ****        *  no memory reallocation.  But if only input iterators are
 729:/usr/arm-none-eabi/include/c++/15.2.0/bits/stl_vector.h ****        *  used, then this will do at most 2N calls to the copy
 730:/usr/arm-none-eabi/include/c++/15.2.0/bits/stl_vector.h ****        *  constructor, and logN memory reallocations.
 731:/usr/arm-none-eabi/include/c++/15.2.0/bits/stl_vector.h ****        */
 732:/usr/arm-none-eabi/include/c++/15.2.0/bits/stl_vector.h **** #if __cplusplus >= 201103L
 733:/usr/arm-none-eabi/include/c++/15.2.0/bits/stl_vector.h ****       template<typename _InputIterator,
 734:/usr/arm-none-eabi/include/c++/15.2.0/bits/stl_vector.h **** 	       typename = std::_RequireInputIter<_InputIterator>>
 735:/usr/arm-none-eabi/include/c++/15.2.0/bits/stl_vector.h **** 	_GLIBCXX20_CONSTEXPR
 736:/usr/arm-none-eabi/include/c++/15.2.0/bits/stl_vector.h **** 	vector(_InputIterator __first, _InputIterator __last,
 737:/usr/arm-none-eabi/include/c++/15.2.0/bits/stl_vector.h **** 	       const allocator_type& __a = allocator_type())
 738:/usr/arm-none-eabi/include/c++/15.2.0/bits/stl_vector.h **** 	: _Base(__a)
 739:/usr/arm-none-eabi/include/c++/15.2.0/bits/stl_vector.h **** 	{
 740:/usr/arm-none-eabi/include/c++/15.2.0/bits/stl_vector.h **** #if __glibcxx_concepts // C++ >= C++20
 741:/usr/arm-none-eabi/include/c++/15.2.0/bits/stl_vector.h **** 	  if constexpr (sized_sentinel_for<_InputIterator, _InputIterator>
 742:/usr/arm-none-eabi/include/c++/15.2.0/bits/stl_vector.h **** 			  || forward_iterator<_InputIterator>)
 743:/usr/arm-none-eabi/include/c++/15.2.0/bits/stl_vector.h **** 	    {
 744:/usr/arm-none-eabi/include/c++/15.2.0/bits/stl_vector.h **** 	      const auto __n
 745:/usr/arm-none-eabi/include/c++/15.2.0/bits/stl_vector.h **** 		= static_cast<size_type>(ranges::distance(__first, __last));
 746:/usr/arm-none-eabi/include/c++/15.2.0/bits/stl_vector.h **** 	      _M_range_initialize_n(__first, __last, __n);
 747:/usr/arm-none-eabi/include/c++/15.2.0/bits/stl_vector.h **** 	      return;
 748:/usr/arm-none-eabi/include/c++/15.2.0/bits/stl_vector.h **** 	    }
 749:/usr/arm-none-eabi/include/c++/15.2.0/bits/stl_vector.h **** 	  else
 750:/usr/arm-none-eabi/include/c++/15.2.0/bits/stl_vector.h **** #endif
 751:/usr/arm-none-eabi/include/c++/15.2.0/bits/stl_vector.h **** 	  _M_range_initialize(__first, __last,
 752:/usr/arm-none-eabi/include/c++/15.2.0/bits/stl_vector.h **** 			      std::__iterator_category(__first));
 753:/usr/arm-none-eabi/include/c++/15.2.0/bits/stl_vector.h **** 	}
 754:/usr/arm-none-eabi/include/c++/15.2.0/bits/stl_vector.h **** #else
 755:/usr/arm-none-eabi/include/c++/15.2.0/bits/stl_vector.h ****       template<typename _InputIterator>
 756:/usr/arm-none-eabi/include/c++/15.2.0/bits/stl_vector.h **** 	vector(_InputIterator __first, _InputIterator __last,
 757:/usr/arm-none-eabi/include/c++/15.2.0/bits/stl_vector.h **** 	       const allocator_type& __a = allocator_type())
 758:/usr/arm-none-eabi/include/c++/15.2.0/bits/stl_vector.h **** 	: _Base(__a)
 759:/usr/arm-none-eabi/include/c++/15.2.0/bits/stl_vector.h **** 	{
 760:/usr/arm-none-eabi/include/c++/15.2.0/bits/stl_vector.h **** 	  // Check whether it's an integral type.  If so, it's not an iterator.
 761:/usr/arm-none-eabi/include/c++/15.2.0/bits/stl_vector.h **** 	  typedef typename std::__is_integer<_InputIterator>::__type _Integral;
 762:/usr/arm-none-eabi/include/c++/15.2.0/bits/stl_vector.h **** 	  _M_initialize_dispatch(__first, __last, _Integral());
 763:/usr/arm-none-eabi/include/c++/15.2.0/bits/stl_vector.h **** 	}
 764:/usr/arm-none-eabi/include/c++/15.2.0/bits/stl_vector.h **** #endif
 765:/usr/arm-none-eabi/include/c++/15.2.0/bits/stl_vector.h **** 
 766:/usr/arm-none-eabi/include/c++/15.2.0/bits/stl_vector.h **** #if __glibcxx_containers_ranges // C++ >= 23
ARM GAS  /tmp/ccxXSPX2.s 			page 25


 767:/usr/arm-none-eabi/include/c++/15.2.0/bits/stl_vector.h ****       /**
 768:/usr/arm-none-eabi/include/c++/15.2.0/bits/stl_vector.h ****        * @brief Construct a vector from a range.
 769:/usr/arm-none-eabi/include/c++/15.2.0/bits/stl_vector.h ****        * @param __rg A range of values that are convertible to `bool`.
 770:/usr/arm-none-eabi/include/c++/15.2.0/bits/stl_vector.h ****        * @since C++23
 771:/usr/arm-none-eabi/include/c++/15.2.0/bits/stl_vector.h ****        */
 772:/usr/arm-none-eabi/include/c++/15.2.0/bits/stl_vector.h ****       template<__detail::__container_compatible_range<_Tp> _Rg>
 773:/usr/arm-none-eabi/include/c++/15.2.0/bits/stl_vector.h **** 	constexpr
 774:/usr/arm-none-eabi/include/c++/15.2.0/bits/stl_vector.h **** 	vector(from_range_t, _Rg&& __rg, const _Alloc& __a = _Alloc())
 775:/usr/arm-none-eabi/include/c++/15.2.0/bits/stl_vector.h **** 	: vector(__a)
 776:/usr/arm-none-eabi/include/c++/15.2.0/bits/stl_vector.h **** 	{
 777:/usr/arm-none-eabi/include/c++/15.2.0/bits/stl_vector.h **** 	  if constexpr (ranges::forward_range<_Rg> || ranges::sized_range<_Rg>)
 778:/usr/arm-none-eabi/include/c++/15.2.0/bits/stl_vector.h **** 	    {
 779:/usr/arm-none-eabi/include/c++/15.2.0/bits/stl_vector.h **** 	      const auto __n = static_cast<size_type>(ranges::distance(__rg));
 780:/usr/arm-none-eabi/include/c++/15.2.0/bits/stl_vector.h **** 	      _M_range_initialize_n(ranges::begin(__rg), ranges::end(__rg),
 781:/usr/arm-none-eabi/include/c++/15.2.0/bits/stl_vector.h **** 				    __n);
 782:/usr/arm-none-eabi/include/c++/15.2.0/bits/stl_vector.h **** 	    }
 783:/usr/arm-none-eabi/include/c++/15.2.0/bits/stl_vector.h **** 	  else
 784:/usr/arm-none-eabi/include/c++/15.2.0/bits/stl_vector.h **** 	    {
 785:/usr/arm-none-eabi/include/c++/15.2.0/bits/stl_vector.h **** 	      auto __first = ranges::begin(__rg);
 786:/usr/arm-none-eabi/include/c++/15.2.0/bits/stl_vector.h **** 	      const auto __last = ranges::end(__rg);
 787:/usr/arm-none-eabi/include/c++/15.2.0/bits/stl_vector.h **** 	      for (; __first != __last; ++__first)
 788:/usr/arm-none-eabi/include/c++/15.2.0/bits/stl_vector.h **** 		emplace_back(*__first);
 789:/usr/arm-none-eabi/include/c++/15.2.0/bits/stl_vector.h **** 	    }
 790:/usr/arm-none-eabi/include/c++/15.2.0/bits/stl_vector.h **** 	}
 791:/usr/arm-none-eabi/include/c++/15.2.0/bits/stl_vector.h **** #endif
 792:/usr/arm-none-eabi/include/c++/15.2.0/bits/stl_vector.h **** 
 793:/usr/arm-none-eabi/include/c++/15.2.0/bits/stl_vector.h ****       /**
 794:/usr/arm-none-eabi/include/c++/15.2.0/bits/stl_vector.h ****        *  The dtor only erases the elements, and note that if the
 795:/usr/arm-none-eabi/include/c++/15.2.0/bits/stl_vector.h ****        *  elements themselves are pointers, the pointed-to memory is
 796:/usr/arm-none-eabi/include/c++/15.2.0/bits/stl_vector.h ****        *  not touched in any way.  Managing the pointer is the user's
 797:/usr/arm-none-eabi/include/c++/15.2.0/bits/stl_vector.h ****        *  responsibility.
 798:/usr/arm-none-eabi/include/c++/15.2.0/bits/stl_vector.h ****        */
 799:/usr/arm-none-eabi/include/c++/15.2.0/bits/stl_vector.h ****       _GLIBCXX20_CONSTEXPR
 800:/usr/arm-none-eabi/include/c++/15.2.0/bits/stl_vector.h ****       ~vector() _GLIBCXX_NOEXCEPT
 268              		.loc 6 800 7 view .LVU62
 269              	.LBB971:
 270              	.LBI971:
 307:/usr/arm-none-eabi/include/c++/15.2.0/bits/stl_vector.h ****       { return this->_M_impl; }
 271              		.loc 6 307 7 view .LVU63
 307:/usr/arm-none-eabi/include/c++/15.2.0/bits/stl_vector.h ****       { return this->_M_impl; }
 272              		.loc 6 307 7 is_stmt 0 view .LVU64
 273              	.LBE971:
 274              	.LBB972:
 275              	.LBI972:
 276              		.file 7 "/usr/arm-none-eabi/include/c++/15.2.0/bits/alloc_traits.h"
   1:/usr/arm-none-eabi/include/c++/15.2.0/bits/alloc_traits.h **** // Allocator traits -*- C++ -*-
   2:/usr/arm-none-eabi/include/c++/15.2.0/bits/alloc_traits.h **** 
   3:/usr/arm-none-eabi/include/c++/15.2.0/bits/alloc_traits.h **** // Copyright (C) 2011-2025 Free Software Foundation, Inc.
   4:/usr/arm-none-eabi/include/c++/15.2.0/bits/alloc_traits.h **** //
   5:/usr/arm-none-eabi/include/c++/15.2.0/bits/alloc_traits.h **** // This file is part of the GNU ISO C++ Library.  This library is free
   6:/usr/arm-none-eabi/include/c++/15.2.0/bits/alloc_traits.h **** // software; you can redistribute it and/or modify it under the
   7:/usr/arm-none-eabi/include/c++/15.2.0/bits/alloc_traits.h **** // terms of the GNU General Public License as published by the
   8:/usr/arm-none-eabi/include/c++/15.2.0/bits/alloc_traits.h **** // Free Software Foundation; either version 3, or (at your option)
   9:/usr/arm-none-eabi/include/c++/15.2.0/bits/alloc_traits.h **** // any later version.
  10:/usr/arm-none-eabi/include/c++/15.2.0/bits/alloc_traits.h **** 
  11:/usr/arm-none-eabi/include/c++/15.2.0/bits/alloc_traits.h **** // This library is distributed in the hope that it will be useful,
  12:/usr/arm-none-eabi/include/c++/15.2.0/bits/alloc_traits.h **** // but WITHOUT ANY WARRANTY; without even the implied warranty of
ARM GAS  /tmp/ccxXSPX2.s 			page 26


  13:/usr/arm-none-eabi/include/c++/15.2.0/bits/alloc_traits.h **** // MERCHANTABILITY or FITNESS FOR A PARTICULAR PURPOSE.  See the
  14:/usr/arm-none-eabi/include/c++/15.2.0/bits/alloc_traits.h **** // GNU General Public License for more details.
  15:/usr/arm-none-eabi/include/c++/15.2.0/bits/alloc_traits.h **** 
  16:/usr/arm-none-eabi/include/c++/15.2.0/bits/alloc_traits.h **** // Under Section 7 of GPL version 3, you are granted additional
  17:/usr/arm-none-eabi/include/c++/15.2.0/bits/alloc_traits.h **** // permissions described in the GCC Runtime Library Exception, version
  18:/usr/arm-none-eabi/include/c++/15.2.0/bits/alloc_traits.h **** // 3.1, as published by the Free Software Foundation.
  19:/usr/arm-none-eabi/include/c++/15.2.0/bits/alloc_traits.h **** 
  20:/usr/arm-none-eabi/include/c++/15.2.0/bits/alloc_traits.h **** // You should have received a copy of the GNU General Public License and
  21:/usr/arm-none-eabi/include/c++/15.2.0/bits/alloc_traits.h **** // a copy of the GCC Runtime Library Exception along with this program;
  22:/usr/arm-none-eabi/include/c++/15.2.0/bits/alloc_traits.h **** // see the files COPYING3 and COPYING.RUNTIME respectively.  If not, see
  23:/usr/arm-none-eabi/include/c++/15.2.0/bits/alloc_traits.h **** // <http://www.gnu.org/licenses/>.
  24:/usr/arm-none-eabi/include/c++/15.2.0/bits/alloc_traits.h **** 
  25:/usr/arm-none-eabi/include/c++/15.2.0/bits/alloc_traits.h **** /** @file bits/alloc_traits.h
  26:/usr/arm-none-eabi/include/c++/15.2.0/bits/alloc_traits.h ****  *  This is an internal header file, included by other library headers.
  27:/usr/arm-none-eabi/include/c++/15.2.0/bits/alloc_traits.h ****  *  Do not attempt to use it directly. @headername{memory}
  28:/usr/arm-none-eabi/include/c++/15.2.0/bits/alloc_traits.h ****  */
  29:/usr/arm-none-eabi/include/c++/15.2.0/bits/alloc_traits.h **** 
  30:/usr/arm-none-eabi/include/c++/15.2.0/bits/alloc_traits.h **** #ifndef _ALLOC_TRAITS_H
  31:/usr/arm-none-eabi/include/c++/15.2.0/bits/alloc_traits.h **** #define _ALLOC_TRAITS_H 1
  32:/usr/arm-none-eabi/include/c++/15.2.0/bits/alloc_traits.h **** 
  33:/usr/arm-none-eabi/include/c++/15.2.0/bits/alloc_traits.h **** #include <bits/stl_construct.h>
  34:/usr/arm-none-eabi/include/c++/15.2.0/bits/alloc_traits.h **** #include <bits/memoryfwd.h>
  35:/usr/arm-none-eabi/include/c++/15.2.0/bits/alloc_traits.h **** #if __cplusplus >= 201103L
  36:/usr/arm-none-eabi/include/c++/15.2.0/bits/alloc_traits.h **** # include <bits/ptr_traits.h>
  37:/usr/arm-none-eabi/include/c++/15.2.0/bits/alloc_traits.h **** # include <ext/numeric_traits.h>
  38:/usr/arm-none-eabi/include/c++/15.2.0/bits/alloc_traits.h **** # if _GLIBCXX_HOSTED
  39:/usr/arm-none-eabi/include/c++/15.2.0/bits/alloc_traits.h **** #  include <bits/allocator.h>
  40:/usr/arm-none-eabi/include/c++/15.2.0/bits/alloc_traits.h **** # endif
  41:/usr/arm-none-eabi/include/c++/15.2.0/bits/alloc_traits.h **** # if __cpp_exceptions
  42:/usr/arm-none-eabi/include/c++/15.2.0/bits/alloc_traits.h **** #  include <bits/stl_iterator.h> // __make_move_if_noexcept_iterator
  43:/usr/arm-none-eabi/include/c++/15.2.0/bits/alloc_traits.h **** # endif
  44:/usr/arm-none-eabi/include/c++/15.2.0/bits/alloc_traits.h **** #endif
  45:/usr/arm-none-eabi/include/c++/15.2.0/bits/alloc_traits.h **** 
  46:/usr/arm-none-eabi/include/c++/15.2.0/bits/alloc_traits.h **** namespace std _GLIBCXX_VISIBILITY(default)
  47:/usr/arm-none-eabi/include/c++/15.2.0/bits/alloc_traits.h **** {
  48:/usr/arm-none-eabi/include/c++/15.2.0/bits/alloc_traits.h **** _GLIBCXX_BEGIN_NAMESPACE_VERSION
  49:/usr/arm-none-eabi/include/c++/15.2.0/bits/alloc_traits.h **** 
  50:/usr/arm-none-eabi/include/c++/15.2.0/bits/alloc_traits.h **** #if __cplusplus >= 201103L
  51:/usr/arm-none-eabi/include/c++/15.2.0/bits/alloc_traits.h **** 
  52:/usr/arm-none-eabi/include/c++/15.2.0/bits/alloc_traits.h **** #pragma GCC diagnostic push
  53:/usr/arm-none-eabi/include/c++/15.2.0/bits/alloc_traits.h **** #pragma GCC diagnostic ignored "-Wc++14-extensions" // for variable templates
  54:/usr/arm-none-eabi/include/c++/15.2.0/bits/alloc_traits.h **** #pragma GCC diagnostic ignored "-Wc++17-extensions" // for if-constexpr
  55:/usr/arm-none-eabi/include/c++/15.2.0/bits/alloc_traits.h **** 
  56:/usr/arm-none-eabi/include/c++/15.2.0/bits/alloc_traits.h ****   /// @cond undocumented
  57:/usr/arm-none-eabi/include/c++/15.2.0/bits/alloc_traits.h ****   struct __allocator_traits_base
  58:/usr/arm-none-eabi/include/c++/15.2.0/bits/alloc_traits.h ****   {
  59:/usr/arm-none-eabi/include/c++/15.2.0/bits/alloc_traits.h **** #if __cpp_concepts
  60:/usr/arm-none-eabi/include/c++/15.2.0/bits/alloc_traits.h ****     template<typename _Tp, typename _Up>
  61:/usr/arm-none-eabi/include/c++/15.2.0/bits/alloc_traits.h **** #else
  62:/usr/arm-none-eabi/include/c++/15.2.0/bits/alloc_traits.h ****     template<typename _Tp, typename _Up, typename = void>
  63:/usr/arm-none-eabi/include/c++/15.2.0/bits/alloc_traits.h **** #endif
  64:/usr/arm-none-eabi/include/c++/15.2.0/bits/alloc_traits.h ****       struct __rebind : __replace_first_arg<_Tp, _Up>
  65:/usr/arm-none-eabi/include/c++/15.2.0/bits/alloc_traits.h ****       {
  66:/usr/arm-none-eabi/include/c++/15.2.0/bits/alloc_traits.h **** 	static_assert(is_same<
  67:/usr/arm-none-eabi/include/c++/15.2.0/bits/alloc_traits.h **** 	  typename __replace_first_arg<_Tp, typename _Tp::value_type>::type,
  68:/usr/arm-none-eabi/include/c++/15.2.0/bits/alloc_traits.h **** 			_Tp>::value,
  69:/usr/arm-none-eabi/include/c++/15.2.0/bits/alloc_traits.h **** 	  "allocator_traits<A>::rebind_alloc<A::value_type> must be A");
ARM GAS  /tmp/ccxXSPX2.s 			page 27


  70:/usr/arm-none-eabi/include/c++/15.2.0/bits/alloc_traits.h ****       };
  71:/usr/arm-none-eabi/include/c++/15.2.0/bits/alloc_traits.h **** 
  72:/usr/arm-none-eabi/include/c++/15.2.0/bits/alloc_traits.h ****     template<typename _Tp, typename _Up>
  73:/usr/arm-none-eabi/include/c++/15.2.0/bits/alloc_traits.h **** #if __cpp_concepts
  74:/usr/arm-none-eabi/include/c++/15.2.0/bits/alloc_traits.h ****       requires requires { typename _Tp::template rebind<_Up>::other; }
  75:/usr/arm-none-eabi/include/c++/15.2.0/bits/alloc_traits.h ****       struct __rebind<_Tp, _Up>
  76:/usr/arm-none-eabi/include/c++/15.2.0/bits/alloc_traits.h **** #else
  77:/usr/arm-none-eabi/include/c++/15.2.0/bits/alloc_traits.h ****       struct __rebind<_Tp, _Up,
  78:/usr/arm-none-eabi/include/c++/15.2.0/bits/alloc_traits.h **** 		      __void_t<typename _Tp::template rebind<_Up>::other>>
  79:/usr/arm-none-eabi/include/c++/15.2.0/bits/alloc_traits.h **** #endif
  80:/usr/arm-none-eabi/include/c++/15.2.0/bits/alloc_traits.h ****       {
  81:/usr/arm-none-eabi/include/c++/15.2.0/bits/alloc_traits.h **** 	using type = typename _Tp::template rebind<_Up>::other;
  82:/usr/arm-none-eabi/include/c++/15.2.0/bits/alloc_traits.h **** 
  83:/usr/arm-none-eabi/include/c++/15.2.0/bits/alloc_traits.h **** 	static_assert(is_same<
  84:/usr/arm-none-eabi/include/c++/15.2.0/bits/alloc_traits.h **** 	  typename _Tp::template rebind<typename _Tp::value_type>::other,
  85:/usr/arm-none-eabi/include/c++/15.2.0/bits/alloc_traits.h **** 			_Tp>::value,
  86:/usr/arm-none-eabi/include/c++/15.2.0/bits/alloc_traits.h **** 	  "allocator_traits<A>::rebind_alloc<A::value_type> must be A");
  87:/usr/arm-none-eabi/include/c++/15.2.0/bits/alloc_traits.h ****       };
  88:/usr/arm-none-eabi/include/c++/15.2.0/bits/alloc_traits.h **** 
  89:/usr/arm-none-eabi/include/c++/15.2.0/bits/alloc_traits.h ****   protected:
  90:/usr/arm-none-eabi/include/c++/15.2.0/bits/alloc_traits.h ****     template<typename _Tp>
  91:/usr/arm-none-eabi/include/c++/15.2.0/bits/alloc_traits.h ****       using __pointer = typename _Tp::pointer;
  92:/usr/arm-none-eabi/include/c++/15.2.0/bits/alloc_traits.h ****     template<typename _Tp>
  93:/usr/arm-none-eabi/include/c++/15.2.0/bits/alloc_traits.h ****       using __c_pointer = typename _Tp::const_pointer;
  94:/usr/arm-none-eabi/include/c++/15.2.0/bits/alloc_traits.h ****     template<typename _Tp>
  95:/usr/arm-none-eabi/include/c++/15.2.0/bits/alloc_traits.h ****       using __v_pointer = typename _Tp::void_pointer;
  96:/usr/arm-none-eabi/include/c++/15.2.0/bits/alloc_traits.h ****     template<typename _Tp>
  97:/usr/arm-none-eabi/include/c++/15.2.0/bits/alloc_traits.h ****       using __cv_pointer = typename _Tp::const_void_pointer;
  98:/usr/arm-none-eabi/include/c++/15.2.0/bits/alloc_traits.h ****     template<typename _Tp>
  99:/usr/arm-none-eabi/include/c++/15.2.0/bits/alloc_traits.h ****       using __pocca = typename _Tp::propagate_on_container_copy_assignment;
 100:/usr/arm-none-eabi/include/c++/15.2.0/bits/alloc_traits.h ****     template<typename _Tp>
 101:/usr/arm-none-eabi/include/c++/15.2.0/bits/alloc_traits.h ****       using __pocma = typename _Tp::propagate_on_container_move_assignment;
 102:/usr/arm-none-eabi/include/c++/15.2.0/bits/alloc_traits.h ****     template<typename _Tp>
 103:/usr/arm-none-eabi/include/c++/15.2.0/bits/alloc_traits.h ****       using __pocs = typename _Tp::propagate_on_container_swap;
 104:/usr/arm-none-eabi/include/c++/15.2.0/bits/alloc_traits.h ****     template<typename _Tp>
 105:/usr/arm-none-eabi/include/c++/15.2.0/bits/alloc_traits.h ****       using __equal = __type_identity<typename _Tp::is_always_equal>;
 106:/usr/arm-none-eabi/include/c++/15.2.0/bits/alloc_traits.h **** 
 107:/usr/arm-none-eabi/include/c++/15.2.0/bits/alloc_traits.h ****     // __has_allocate_hint is true if a.allocate(n, hint) is well-formed.
 108:/usr/arm-none-eabi/include/c++/15.2.0/bits/alloc_traits.h **** #if __cpp_concepts
 109:/usr/arm-none-eabi/include/c++/15.2.0/bits/alloc_traits.h ****     template<typename _Alloc, typename _Sz, typename _Vp>
 110:/usr/arm-none-eabi/include/c++/15.2.0/bits/alloc_traits.h ****       static constexpr bool __has_allocate_hint
 111:/usr/arm-none-eabi/include/c++/15.2.0/bits/alloc_traits.h **** 	= requires (_Alloc& __a, _Sz __n, _Vp __hint) {
 112:/usr/arm-none-eabi/include/c++/15.2.0/bits/alloc_traits.h **** 	__a.allocate(__n, __hint);
 113:/usr/arm-none-eabi/include/c++/15.2.0/bits/alloc_traits.h ****       };
 114:/usr/arm-none-eabi/include/c++/15.2.0/bits/alloc_traits.h **** #else
 115:/usr/arm-none-eabi/include/c++/15.2.0/bits/alloc_traits.h ****     template<typename _Alloc, typename _Sz, typename _Vp>
 116:/usr/arm-none-eabi/include/c++/15.2.0/bits/alloc_traits.h ****       using __allocate_hint_t
 117:/usr/arm-none-eabi/include/c++/15.2.0/bits/alloc_traits.h **** 	= decltype(std::declval<_Alloc&>()
 118:/usr/arm-none-eabi/include/c++/15.2.0/bits/alloc_traits.h **** 		     .allocate(std::declval<_Sz>(), std::declval<_Vp>()));
 119:/usr/arm-none-eabi/include/c++/15.2.0/bits/alloc_traits.h ****     template<typename _Alloc, typename _Sz, typename _Vp, typename = void>
 120:/usr/arm-none-eabi/include/c++/15.2.0/bits/alloc_traits.h ****       static constexpr bool __has_allocate_hint = false;
 121:/usr/arm-none-eabi/include/c++/15.2.0/bits/alloc_traits.h ****     template<typename _Alloc, typename _Sz, typename _Vp>
 122:/usr/arm-none-eabi/include/c++/15.2.0/bits/alloc_traits.h ****       static constexpr bool
 123:/usr/arm-none-eabi/include/c++/15.2.0/bits/alloc_traits.h ****       __has_allocate_hint<_Alloc, _Sz, _Vp,
 124:/usr/arm-none-eabi/include/c++/15.2.0/bits/alloc_traits.h **** 			  __void_t<__allocate_hint_t<_Alloc, _Sz, _Vp>>>
 125:/usr/arm-none-eabi/include/c++/15.2.0/bits/alloc_traits.h **** 	= true;
 126:/usr/arm-none-eabi/include/c++/15.2.0/bits/alloc_traits.h **** #endif
ARM GAS  /tmp/ccxXSPX2.s 			page 28


 127:/usr/arm-none-eabi/include/c++/15.2.0/bits/alloc_traits.h **** 
 128:/usr/arm-none-eabi/include/c++/15.2.0/bits/alloc_traits.h ****     // __has_construct is true if a.construct(p, args...) is well-formed.
 129:/usr/arm-none-eabi/include/c++/15.2.0/bits/alloc_traits.h ****     // __can_construct is true if either __has_construct is true, or if
 130:/usr/arm-none-eabi/include/c++/15.2.0/bits/alloc_traits.h ****     // a placement new-expression for T(args...) is well-formed. We use this
 131:/usr/arm-none-eabi/include/c++/15.2.0/bits/alloc_traits.h ****     // to constrain allocator_traits::construct, as a libstdc++ extension.
 132:/usr/arm-none-eabi/include/c++/15.2.0/bits/alloc_traits.h **** #if __cpp_concepts
 133:/usr/arm-none-eabi/include/c++/15.2.0/bits/alloc_traits.h ****     template<typename _Alloc, typename _Tp, typename... _Args>
 134:/usr/arm-none-eabi/include/c++/15.2.0/bits/alloc_traits.h ****       static constexpr bool __has_construct
 135:/usr/arm-none-eabi/include/c++/15.2.0/bits/alloc_traits.h **** 	= requires (_Alloc& __a, _Tp* __p, _Args&&... __args) {
 136:/usr/arm-none-eabi/include/c++/15.2.0/bits/alloc_traits.h **** 	  __a.construct(__p, std::forward<_Args>(__args)...);
 137:/usr/arm-none-eabi/include/c++/15.2.0/bits/alloc_traits.h **** 	};
 138:/usr/arm-none-eabi/include/c++/15.2.0/bits/alloc_traits.h ****     template<typename _Tp, typename... _Args>
 139:/usr/arm-none-eabi/include/c++/15.2.0/bits/alloc_traits.h ****       static constexpr bool __can_construct_at
 140:/usr/arm-none-eabi/include/c++/15.2.0/bits/alloc_traits.h **** 	= requires (_Tp* __p, _Args&&... __args) {
 141:/usr/arm-none-eabi/include/c++/15.2.0/bits/alloc_traits.h **** #if __cpp_constexpr_dynamic_alloc
 142:/usr/arm-none-eabi/include/c++/15.2.0/bits/alloc_traits.h **** 	  std::construct_at(__p, std::forward<_Args>(__args)...);
 143:/usr/arm-none-eabi/include/c++/15.2.0/bits/alloc_traits.h **** #else
 144:/usr/arm-none-eabi/include/c++/15.2.0/bits/alloc_traits.h **** 	  ::new((void*)__p) _Tp(std::forward<_Args>(__args)...);
 145:/usr/arm-none-eabi/include/c++/15.2.0/bits/alloc_traits.h **** #endif
 146:/usr/arm-none-eabi/include/c++/15.2.0/bits/alloc_traits.h **** 	};
 147:/usr/arm-none-eabi/include/c++/15.2.0/bits/alloc_traits.h ****     template<typename _Alloc, typename _Tp, typename... _Args>
 148:/usr/arm-none-eabi/include/c++/15.2.0/bits/alloc_traits.h ****       static constexpr bool __can_construct
 149:/usr/arm-none-eabi/include/c++/15.2.0/bits/alloc_traits.h **** 	= __has_construct<_Alloc, _Tp, _Args...>
 150:/usr/arm-none-eabi/include/c++/15.2.0/bits/alloc_traits.h **** 	    || __can_construct_at<_Tp, _Args...>;
 151:/usr/arm-none-eabi/include/c++/15.2.0/bits/alloc_traits.h **** #else
 152:/usr/arm-none-eabi/include/c++/15.2.0/bits/alloc_traits.h ****     template<typename _Alloc, typename _Tp, typename... _Args>
 153:/usr/arm-none-eabi/include/c++/15.2.0/bits/alloc_traits.h ****       using __construct_t
 154:/usr/arm-none-eabi/include/c++/15.2.0/bits/alloc_traits.h **** 	= decltype(std::declval<_Alloc&>().construct(std::declval<_Tp*>(),
 155:/usr/arm-none-eabi/include/c++/15.2.0/bits/alloc_traits.h **** 						     std::declval<_Args>()...));
 156:/usr/arm-none-eabi/include/c++/15.2.0/bits/alloc_traits.h ****     template<typename _Alloc, typename _Tp, typename, typename... _Args>
 157:/usr/arm-none-eabi/include/c++/15.2.0/bits/alloc_traits.h ****       static constexpr bool __has_construct_impl = false;
 158:/usr/arm-none-eabi/include/c++/15.2.0/bits/alloc_traits.h ****     template<typename _Alloc, typename _Tp, typename... _Args>
 159:/usr/arm-none-eabi/include/c++/15.2.0/bits/alloc_traits.h ****       static constexpr bool
 160:/usr/arm-none-eabi/include/c++/15.2.0/bits/alloc_traits.h ****       __has_construct_impl<_Alloc, _Tp,
 161:/usr/arm-none-eabi/include/c++/15.2.0/bits/alloc_traits.h **** 			   __void_t<__construct_t<_Alloc, _Tp, _Args...>>,
 162:/usr/arm-none-eabi/include/c++/15.2.0/bits/alloc_traits.h **** 			   _Args...>
 163:/usr/arm-none-eabi/include/c++/15.2.0/bits/alloc_traits.h **** 	= true;
 164:/usr/arm-none-eabi/include/c++/15.2.0/bits/alloc_traits.h ****     template<typename _Alloc, typename _Tp, typename... _Args>
 165:/usr/arm-none-eabi/include/c++/15.2.0/bits/alloc_traits.h ****       static constexpr bool __has_construct
 166:/usr/arm-none-eabi/include/c++/15.2.0/bits/alloc_traits.h **** 	= __has_construct_impl<_Alloc, _Tp, void, _Args...>;
 167:/usr/arm-none-eabi/include/c++/15.2.0/bits/alloc_traits.h ****     template<typename _Tp, typename... _Args>
 168:/usr/arm-none-eabi/include/c++/15.2.0/bits/alloc_traits.h ****       using __new_expr_t
 169:/usr/arm-none-eabi/include/c++/15.2.0/bits/alloc_traits.h **** 	= decltype(::new((void*)0) _Tp(std::declval<_Args>()...));
 170:/usr/arm-none-eabi/include/c++/15.2.0/bits/alloc_traits.h ****     template<typename _Tp, typename, typename... _Args>
 171:/usr/arm-none-eabi/include/c++/15.2.0/bits/alloc_traits.h ****       static constexpr bool __has_new_expr = false;
 172:/usr/arm-none-eabi/include/c++/15.2.0/bits/alloc_traits.h ****     template<typename _Tp, typename... _Args>
 173:/usr/arm-none-eabi/include/c++/15.2.0/bits/alloc_traits.h ****       static constexpr bool
 174:/usr/arm-none-eabi/include/c++/15.2.0/bits/alloc_traits.h ****       __has_new_expr<_Tp, __void_t<__new_expr_t<_Tp, _Args...>>, _Args...>
 175:/usr/arm-none-eabi/include/c++/15.2.0/bits/alloc_traits.h **** 	= true;
 176:/usr/arm-none-eabi/include/c++/15.2.0/bits/alloc_traits.h ****     template<typename _Alloc, typename _Tp, typename... _Args>
 177:/usr/arm-none-eabi/include/c++/15.2.0/bits/alloc_traits.h ****       static constexpr bool __can_construct
 178:/usr/arm-none-eabi/include/c++/15.2.0/bits/alloc_traits.h **** 	= __has_construct<_Alloc, _Tp, _Args...>
 179:/usr/arm-none-eabi/include/c++/15.2.0/bits/alloc_traits.h **** 	    || __has_new_expr<_Tp, void, _Args...>;
 180:/usr/arm-none-eabi/include/c++/15.2.0/bits/alloc_traits.h **** #endif
 181:/usr/arm-none-eabi/include/c++/15.2.0/bits/alloc_traits.h **** 
 182:/usr/arm-none-eabi/include/c++/15.2.0/bits/alloc_traits.h ****     // __has_destroy is true if a.destroy(p) is well-formed.
 183:/usr/arm-none-eabi/include/c++/15.2.0/bits/alloc_traits.h **** #if __cpp_concepts
ARM GAS  /tmp/ccxXSPX2.s 			page 29


 184:/usr/arm-none-eabi/include/c++/15.2.0/bits/alloc_traits.h ****     template<typename _Alloc, typename _Tp>
 185:/usr/arm-none-eabi/include/c++/15.2.0/bits/alloc_traits.h ****       static constexpr bool __has_destroy = requires (_Alloc& __a, _Tp* __p) {
 186:/usr/arm-none-eabi/include/c++/15.2.0/bits/alloc_traits.h **** 	__a.destroy(__p);
 187:/usr/arm-none-eabi/include/c++/15.2.0/bits/alloc_traits.h ****       };
 188:/usr/arm-none-eabi/include/c++/15.2.0/bits/alloc_traits.h **** #else
 189:/usr/arm-none-eabi/include/c++/15.2.0/bits/alloc_traits.h ****     template<typename _Alloc, typename _Tp>
 190:/usr/arm-none-eabi/include/c++/15.2.0/bits/alloc_traits.h ****       using __destroy_t
 191:/usr/arm-none-eabi/include/c++/15.2.0/bits/alloc_traits.h **** 	= decltype(std::declval<_Alloc&>().destroy(std::declval<_Tp*>()));
 192:/usr/arm-none-eabi/include/c++/15.2.0/bits/alloc_traits.h ****     template<typename _Alloc, typename _Tp, typename = void>
 193:/usr/arm-none-eabi/include/c++/15.2.0/bits/alloc_traits.h ****       static constexpr bool __has_destroy = false;
 194:/usr/arm-none-eabi/include/c++/15.2.0/bits/alloc_traits.h ****     template<typename _Alloc, typename _Tp>
 195:/usr/arm-none-eabi/include/c++/15.2.0/bits/alloc_traits.h ****       static constexpr bool __has_destroy<_Alloc, _Tp,
 196:/usr/arm-none-eabi/include/c++/15.2.0/bits/alloc_traits.h **** 					  __void_t<__destroy_t<_Alloc, _Tp>>>
 197:/usr/arm-none-eabi/include/c++/15.2.0/bits/alloc_traits.h **** 	= true;
 198:/usr/arm-none-eabi/include/c++/15.2.0/bits/alloc_traits.h **** #endif
 199:/usr/arm-none-eabi/include/c++/15.2.0/bits/alloc_traits.h **** 
 200:/usr/arm-none-eabi/include/c++/15.2.0/bits/alloc_traits.h ****     // __has_max_size is true if a.max_size() is well-formed.
 201:/usr/arm-none-eabi/include/c++/15.2.0/bits/alloc_traits.h **** #if __cpp_concepts
 202:/usr/arm-none-eabi/include/c++/15.2.0/bits/alloc_traits.h ****     template<typename _Alloc>
 203:/usr/arm-none-eabi/include/c++/15.2.0/bits/alloc_traits.h ****       static constexpr bool __has_max_size = requires (const _Alloc& __a) {
 204:/usr/arm-none-eabi/include/c++/15.2.0/bits/alloc_traits.h **** 	__a.max_size();
 205:/usr/arm-none-eabi/include/c++/15.2.0/bits/alloc_traits.h ****       };
 206:/usr/arm-none-eabi/include/c++/15.2.0/bits/alloc_traits.h **** #else
 207:/usr/arm-none-eabi/include/c++/15.2.0/bits/alloc_traits.h ****     template<typename _Alloc>
 208:/usr/arm-none-eabi/include/c++/15.2.0/bits/alloc_traits.h ****       using __max_size_t = decltype(std::declval<const _Alloc&>().max_size());
 209:/usr/arm-none-eabi/include/c++/15.2.0/bits/alloc_traits.h ****     template<typename _Alloc, typename = void>
 210:/usr/arm-none-eabi/include/c++/15.2.0/bits/alloc_traits.h ****       static constexpr bool __has_max_size = false;
 211:/usr/arm-none-eabi/include/c++/15.2.0/bits/alloc_traits.h ****     template<typename _Alloc>
 212:/usr/arm-none-eabi/include/c++/15.2.0/bits/alloc_traits.h ****       static constexpr bool __has_max_size<_Alloc,
 213:/usr/arm-none-eabi/include/c++/15.2.0/bits/alloc_traits.h **** 					   __void_t<__max_size_t<_Alloc>>>
 214:/usr/arm-none-eabi/include/c++/15.2.0/bits/alloc_traits.h **** 	= true;
 215:/usr/arm-none-eabi/include/c++/15.2.0/bits/alloc_traits.h **** #endif
 216:/usr/arm-none-eabi/include/c++/15.2.0/bits/alloc_traits.h **** 
 217:/usr/arm-none-eabi/include/c++/15.2.0/bits/alloc_traits.h ****     // __has_soccc is true if a.select_on_container_copy_construction()
 218:/usr/arm-none-eabi/include/c++/15.2.0/bits/alloc_traits.h ****     // is well-formed.
 219:/usr/arm-none-eabi/include/c++/15.2.0/bits/alloc_traits.h **** #if __cpp_concepts
 220:/usr/arm-none-eabi/include/c++/15.2.0/bits/alloc_traits.h ****     template<typename _Alloc>
 221:/usr/arm-none-eabi/include/c++/15.2.0/bits/alloc_traits.h ****       static constexpr bool __has_soccc = requires (const _Alloc& __a) {
 222:/usr/arm-none-eabi/include/c++/15.2.0/bits/alloc_traits.h **** 	__a.select_on_container_copy_construction();
 223:/usr/arm-none-eabi/include/c++/15.2.0/bits/alloc_traits.h ****       };
 224:/usr/arm-none-eabi/include/c++/15.2.0/bits/alloc_traits.h **** #else
 225:/usr/arm-none-eabi/include/c++/15.2.0/bits/alloc_traits.h ****     template<typename _Alloc>
 226:/usr/arm-none-eabi/include/c++/15.2.0/bits/alloc_traits.h ****       using __soccc_t
 227:/usr/arm-none-eabi/include/c++/15.2.0/bits/alloc_traits.h **** 	= decltype(std::declval<const _Alloc&>()
 228:/usr/arm-none-eabi/include/c++/15.2.0/bits/alloc_traits.h **** 		     .select_on_container_copy_construction());
 229:/usr/arm-none-eabi/include/c++/15.2.0/bits/alloc_traits.h ****     template<typename _Alloc, typename = void>
 230:/usr/arm-none-eabi/include/c++/15.2.0/bits/alloc_traits.h ****       static constexpr bool __has_soccc = false;
 231:/usr/arm-none-eabi/include/c++/15.2.0/bits/alloc_traits.h ****     template<typename _Alloc>
 232:/usr/arm-none-eabi/include/c++/15.2.0/bits/alloc_traits.h ****       static constexpr bool __has_soccc<_Alloc, __void_t<__soccc_t<_Alloc>>>
 233:/usr/arm-none-eabi/include/c++/15.2.0/bits/alloc_traits.h **** 	= true;
 234:/usr/arm-none-eabi/include/c++/15.2.0/bits/alloc_traits.h **** #endif
 235:/usr/arm-none-eabi/include/c++/15.2.0/bits/alloc_traits.h ****   };
 236:/usr/arm-none-eabi/include/c++/15.2.0/bits/alloc_traits.h **** 
 237:/usr/arm-none-eabi/include/c++/15.2.0/bits/alloc_traits.h ****   template<typename _Alloc, typename _Up>
 238:/usr/arm-none-eabi/include/c++/15.2.0/bits/alloc_traits.h ****     using __alloc_rebind
 239:/usr/arm-none-eabi/include/c++/15.2.0/bits/alloc_traits.h ****       = typename __allocator_traits_base::template __rebind<_Alloc, _Up>::type;
 240:/usr/arm-none-eabi/include/c++/15.2.0/bits/alloc_traits.h ****   /// @endcond
ARM GAS  /tmp/ccxXSPX2.s 			page 30


 241:/usr/arm-none-eabi/include/c++/15.2.0/bits/alloc_traits.h **** 
 242:/usr/arm-none-eabi/include/c++/15.2.0/bits/alloc_traits.h ****   /**
 243:/usr/arm-none-eabi/include/c++/15.2.0/bits/alloc_traits.h ****    * @brief  Uniform interface to all allocator types.
 244:/usr/arm-none-eabi/include/c++/15.2.0/bits/alloc_traits.h ****    * @headerfile memory
 245:/usr/arm-none-eabi/include/c++/15.2.0/bits/alloc_traits.h ****    * @ingroup allocators
 246:/usr/arm-none-eabi/include/c++/15.2.0/bits/alloc_traits.h ****    * @since C++11
 247:/usr/arm-none-eabi/include/c++/15.2.0/bits/alloc_traits.h ****   */
 248:/usr/arm-none-eabi/include/c++/15.2.0/bits/alloc_traits.h ****   template<typename _Alloc>
 249:/usr/arm-none-eabi/include/c++/15.2.0/bits/alloc_traits.h ****     struct allocator_traits : __allocator_traits_base
 250:/usr/arm-none-eabi/include/c++/15.2.0/bits/alloc_traits.h ****     {
 251:/usr/arm-none-eabi/include/c++/15.2.0/bits/alloc_traits.h ****       /// The allocator type
 252:/usr/arm-none-eabi/include/c++/15.2.0/bits/alloc_traits.h ****       typedef _Alloc allocator_type;
 253:/usr/arm-none-eabi/include/c++/15.2.0/bits/alloc_traits.h ****       /// The allocated type
 254:/usr/arm-none-eabi/include/c++/15.2.0/bits/alloc_traits.h ****       typedef typename _Alloc::value_type value_type;
 255:/usr/arm-none-eabi/include/c++/15.2.0/bits/alloc_traits.h **** 
 256:/usr/arm-none-eabi/include/c++/15.2.0/bits/alloc_traits.h ****       /**
 257:/usr/arm-none-eabi/include/c++/15.2.0/bits/alloc_traits.h ****        * @brief   The allocator's pointer type.
 258:/usr/arm-none-eabi/include/c++/15.2.0/bits/alloc_traits.h ****        *
 259:/usr/arm-none-eabi/include/c++/15.2.0/bits/alloc_traits.h ****        * @c Alloc::pointer if that type exists, otherwise @c value_type*
 260:/usr/arm-none-eabi/include/c++/15.2.0/bits/alloc_traits.h ****       */
 261:/usr/arm-none-eabi/include/c++/15.2.0/bits/alloc_traits.h ****       using pointer = __detected_or_t<value_type*, __pointer, _Alloc>;
 262:/usr/arm-none-eabi/include/c++/15.2.0/bits/alloc_traits.h **** 
 263:/usr/arm-none-eabi/include/c++/15.2.0/bits/alloc_traits.h ****     private:
 264:/usr/arm-none-eabi/include/c++/15.2.0/bits/alloc_traits.h ****       // Select _Func<_Alloc> or pointer_traits<pointer>::rebind<_Tp>
 265:/usr/arm-none-eabi/include/c++/15.2.0/bits/alloc_traits.h ****       template<template<typename> class _Func, typename _Tp, typename = void>
 266:/usr/arm-none-eabi/include/c++/15.2.0/bits/alloc_traits.h **** 	struct _Ptr
 267:/usr/arm-none-eabi/include/c++/15.2.0/bits/alloc_traits.h **** 	{
 268:/usr/arm-none-eabi/include/c++/15.2.0/bits/alloc_traits.h **** 	  using type = typename pointer_traits<pointer>::template rebind<_Tp>;
 269:/usr/arm-none-eabi/include/c++/15.2.0/bits/alloc_traits.h **** 	};
 270:/usr/arm-none-eabi/include/c++/15.2.0/bits/alloc_traits.h **** 
 271:/usr/arm-none-eabi/include/c++/15.2.0/bits/alloc_traits.h ****       template<template<typename> class _Func, typename _Tp>
 272:/usr/arm-none-eabi/include/c++/15.2.0/bits/alloc_traits.h **** 	struct _Ptr<_Func, _Tp, __void_t<_Func<_Alloc>>>
 273:/usr/arm-none-eabi/include/c++/15.2.0/bits/alloc_traits.h **** 	{
 274:/usr/arm-none-eabi/include/c++/15.2.0/bits/alloc_traits.h **** 	  using type = _Func<_Alloc>;
 275:/usr/arm-none-eabi/include/c++/15.2.0/bits/alloc_traits.h **** 	};
 276:/usr/arm-none-eabi/include/c++/15.2.0/bits/alloc_traits.h **** 
 277:/usr/arm-none-eabi/include/c++/15.2.0/bits/alloc_traits.h ****       // Select _A2::difference_type or pointer_traits<_Ptr>::difference_type
 278:/usr/arm-none-eabi/include/c++/15.2.0/bits/alloc_traits.h ****       template<typename _A2, typename _PtrT, typename = void>
 279:/usr/arm-none-eabi/include/c++/15.2.0/bits/alloc_traits.h **** 	struct _Diff
 280:/usr/arm-none-eabi/include/c++/15.2.0/bits/alloc_traits.h **** 	{ using type = typename pointer_traits<_PtrT>::difference_type; };
 281:/usr/arm-none-eabi/include/c++/15.2.0/bits/alloc_traits.h **** 
 282:/usr/arm-none-eabi/include/c++/15.2.0/bits/alloc_traits.h ****       template<typename _A2, typename _PtrT>
 283:/usr/arm-none-eabi/include/c++/15.2.0/bits/alloc_traits.h **** 	struct _Diff<_A2, _PtrT, __void_t<typename _A2::difference_type>>
 284:/usr/arm-none-eabi/include/c++/15.2.0/bits/alloc_traits.h **** 	{ using type = typename _A2::difference_type; };
 285:/usr/arm-none-eabi/include/c++/15.2.0/bits/alloc_traits.h **** 
 286:/usr/arm-none-eabi/include/c++/15.2.0/bits/alloc_traits.h ****       // Select _A2::size_type or make_unsigned<_DiffT>::type
 287:/usr/arm-none-eabi/include/c++/15.2.0/bits/alloc_traits.h ****       template<typename _A2, typename _DiffT, typename = void>
 288:/usr/arm-none-eabi/include/c++/15.2.0/bits/alloc_traits.h **** 	struct _Size : make_unsigned<_DiffT> { };
 289:/usr/arm-none-eabi/include/c++/15.2.0/bits/alloc_traits.h **** 
 290:/usr/arm-none-eabi/include/c++/15.2.0/bits/alloc_traits.h ****       template<typename _A2, typename _DiffT>
 291:/usr/arm-none-eabi/include/c++/15.2.0/bits/alloc_traits.h **** 	struct _Size<_A2, _DiffT, __void_t<typename _A2::size_type>>
 292:/usr/arm-none-eabi/include/c++/15.2.0/bits/alloc_traits.h **** 	{ using type = typename _A2::size_type; };
 293:/usr/arm-none-eabi/include/c++/15.2.0/bits/alloc_traits.h **** 
 294:/usr/arm-none-eabi/include/c++/15.2.0/bits/alloc_traits.h ****     public:
 295:/usr/arm-none-eabi/include/c++/15.2.0/bits/alloc_traits.h ****       /**
 296:/usr/arm-none-eabi/include/c++/15.2.0/bits/alloc_traits.h ****        * @brief   The allocator's const pointer type.
 297:/usr/arm-none-eabi/include/c++/15.2.0/bits/alloc_traits.h ****        *
ARM GAS  /tmp/ccxXSPX2.s 			page 31


 298:/usr/arm-none-eabi/include/c++/15.2.0/bits/alloc_traits.h ****        * @c Alloc::const_pointer if that type exists, otherwise
 299:/usr/arm-none-eabi/include/c++/15.2.0/bits/alloc_traits.h ****        * <tt> pointer_traits<pointer>::rebind<const value_type> </tt>
 300:/usr/arm-none-eabi/include/c++/15.2.0/bits/alloc_traits.h ****       */
 301:/usr/arm-none-eabi/include/c++/15.2.0/bits/alloc_traits.h ****       using const_pointer = typename _Ptr<__c_pointer, const value_type>::type;
 302:/usr/arm-none-eabi/include/c++/15.2.0/bits/alloc_traits.h **** 
 303:/usr/arm-none-eabi/include/c++/15.2.0/bits/alloc_traits.h ****       /**
 304:/usr/arm-none-eabi/include/c++/15.2.0/bits/alloc_traits.h ****        * @brief   The allocator's void pointer type.
 305:/usr/arm-none-eabi/include/c++/15.2.0/bits/alloc_traits.h ****        *
 306:/usr/arm-none-eabi/include/c++/15.2.0/bits/alloc_traits.h ****        * @c Alloc::void_pointer if that type exists, otherwise
 307:/usr/arm-none-eabi/include/c++/15.2.0/bits/alloc_traits.h ****        * <tt> pointer_traits<pointer>::rebind<void> </tt>
 308:/usr/arm-none-eabi/include/c++/15.2.0/bits/alloc_traits.h ****       */
 309:/usr/arm-none-eabi/include/c++/15.2.0/bits/alloc_traits.h ****       using void_pointer = typename _Ptr<__v_pointer, void>::type;
 310:/usr/arm-none-eabi/include/c++/15.2.0/bits/alloc_traits.h **** 
 311:/usr/arm-none-eabi/include/c++/15.2.0/bits/alloc_traits.h ****       /**
 312:/usr/arm-none-eabi/include/c++/15.2.0/bits/alloc_traits.h ****        * @brief   The allocator's const void pointer type.
 313:/usr/arm-none-eabi/include/c++/15.2.0/bits/alloc_traits.h ****        *
 314:/usr/arm-none-eabi/include/c++/15.2.0/bits/alloc_traits.h ****        * @c Alloc::const_void_pointer if that type exists, otherwise
 315:/usr/arm-none-eabi/include/c++/15.2.0/bits/alloc_traits.h ****        * <tt> pointer_traits<pointer>::rebind<const void> </tt>
 316:/usr/arm-none-eabi/include/c++/15.2.0/bits/alloc_traits.h ****       */
 317:/usr/arm-none-eabi/include/c++/15.2.0/bits/alloc_traits.h ****       using const_void_pointer = typename _Ptr<__cv_pointer, const void>::type;
 318:/usr/arm-none-eabi/include/c++/15.2.0/bits/alloc_traits.h **** 
 319:/usr/arm-none-eabi/include/c++/15.2.0/bits/alloc_traits.h ****       /**
 320:/usr/arm-none-eabi/include/c++/15.2.0/bits/alloc_traits.h ****        * @brief   The allocator's difference type
 321:/usr/arm-none-eabi/include/c++/15.2.0/bits/alloc_traits.h ****        *
 322:/usr/arm-none-eabi/include/c++/15.2.0/bits/alloc_traits.h ****        * @c Alloc::difference_type if that type exists, otherwise
 323:/usr/arm-none-eabi/include/c++/15.2.0/bits/alloc_traits.h ****        * <tt> pointer_traits<pointer>::difference_type </tt>
 324:/usr/arm-none-eabi/include/c++/15.2.0/bits/alloc_traits.h ****       */
 325:/usr/arm-none-eabi/include/c++/15.2.0/bits/alloc_traits.h ****       using difference_type = typename _Diff<_Alloc, pointer>::type;
 326:/usr/arm-none-eabi/include/c++/15.2.0/bits/alloc_traits.h **** 
 327:/usr/arm-none-eabi/include/c++/15.2.0/bits/alloc_traits.h ****       /**
 328:/usr/arm-none-eabi/include/c++/15.2.0/bits/alloc_traits.h ****        * @brief   The allocator's size type
 329:/usr/arm-none-eabi/include/c++/15.2.0/bits/alloc_traits.h ****        *
 330:/usr/arm-none-eabi/include/c++/15.2.0/bits/alloc_traits.h ****        * @c Alloc::size_type if that type exists, otherwise
 331:/usr/arm-none-eabi/include/c++/15.2.0/bits/alloc_traits.h ****        * <tt> make_unsigned<difference_type>::type </tt>
 332:/usr/arm-none-eabi/include/c++/15.2.0/bits/alloc_traits.h ****       */
 333:/usr/arm-none-eabi/include/c++/15.2.0/bits/alloc_traits.h ****       using size_type = typename _Size<_Alloc, difference_type>::type;
 334:/usr/arm-none-eabi/include/c++/15.2.0/bits/alloc_traits.h **** 
 335:/usr/arm-none-eabi/include/c++/15.2.0/bits/alloc_traits.h ****       /**
 336:/usr/arm-none-eabi/include/c++/15.2.0/bits/alloc_traits.h ****        * @brief   How the allocator is propagated on copy assignment
 337:/usr/arm-none-eabi/include/c++/15.2.0/bits/alloc_traits.h ****        *
 338:/usr/arm-none-eabi/include/c++/15.2.0/bits/alloc_traits.h ****        * @c Alloc::propagate_on_container_copy_assignment if that type exists,
 339:/usr/arm-none-eabi/include/c++/15.2.0/bits/alloc_traits.h ****        * otherwise @c false_type
 340:/usr/arm-none-eabi/include/c++/15.2.0/bits/alloc_traits.h ****       */
 341:/usr/arm-none-eabi/include/c++/15.2.0/bits/alloc_traits.h ****       using propagate_on_container_copy_assignment
 342:/usr/arm-none-eabi/include/c++/15.2.0/bits/alloc_traits.h **** 	= __detected_or_t<false_type, __pocca, _Alloc>;
 343:/usr/arm-none-eabi/include/c++/15.2.0/bits/alloc_traits.h **** 
 344:/usr/arm-none-eabi/include/c++/15.2.0/bits/alloc_traits.h ****       /**
 345:/usr/arm-none-eabi/include/c++/15.2.0/bits/alloc_traits.h ****        * @brief   How the allocator is propagated on move assignment
 346:/usr/arm-none-eabi/include/c++/15.2.0/bits/alloc_traits.h ****        *
 347:/usr/arm-none-eabi/include/c++/15.2.0/bits/alloc_traits.h ****        * @c Alloc::propagate_on_container_move_assignment if that type exists,
 348:/usr/arm-none-eabi/include/c++/15.2.0/bits/alloc_traits.h ****        * otherwise @c false_type
 349:/usr/arm-none-eabi/include/c++/15.2.0/bits/alloc_traits.h ****       */
 350:/usr/arm-none-eabi/include/c++/15.2.0/bits/alloc_traits.h ****       using propagate_on_container_move_assignment
 351:/usr/arm-none-eabi/include/c++/15.2.0/bits/alloc_traits.h **** 	= __detected_or_t<false_type, __pocma, _Alloc>;
 352:/usr/arm-none-eabi/include/c++/15.2.0/bits/alloc_traits.h **** 
 353:/usr/arm-none-eabi/include/c++/15.2.0/bits/alloc_traits.h ****       /**
 354:/usr/arm-none-eabi/include/c++/15.2.0/bits/alloc_traits.h ****        * @brief   How the allocator is propagated on swap
ARM GAS  /tmp/ccxXSPX2.s 			page 32


 355:/usr/arm-none-eabi/include/c++/15.2.0/bits/alloc_traits.h ****        *
 356:/usr/arm-none-eabi/include/c++/15.2.0/bits/alloc_traits.h ****        * @c Alloc::propagate_on_container_swap if that type exists,
 357:/usr/arm-none-eabi/include/c++/15.2.0/bits/alloc_traits.h ****        * otherwise @c false_type
 358:/usr/arm-none-eabi/include/c++/15.2.0/bits/alloc_traits.h ****       */
 359:/usr/arm-none-eabi/include/c++/15.2.0/bits/alloc_traits.h ****       using propagate_on_container_swap
 360:/usr/arm-none-eabi/include/c++/15.2.0/bits/alloc_traits.h **** 	= __detected_or_t<false_type, __pocs, _Alloc>;
 361:/usr/arm-none-eabi/include/c++/15.2.0/bits/alloc_traits.h **** 
 362:/usr/arm-none-eabi/include/c++/15.2.0/bits/alloc_traits.h ****       /**
 363:/usr/arm-none-eabi/include/c++/15.2.0/bits/alloc_traits.h ****        * @brief   Whether all instances of the allocator type compare equal.
 364:/usr/arm-none-eabi/include/c++/15.2.0/bits/alloc_traits.h ****        *
 365:/usr/arm-none-eabi/include/c++/15.2.0/bits/alloc_traits.h ****        * @c Alloc::is_always_equal if that type exists,
 366:/usr/arm-none-eabi/include/c++/15.2.0/bits/alloc_traits.h ****        * otherwise @c is_empty<Alloc>::type
 367:/usr/arm-none-eabi/include/c++/15.2.0/bits/alloc_traits.h ****       */
 368:/usr/arm-none-eabi/include/c++/15.2.0/bits/alloc_traits.h ****       using is_always_equal
 369:/usr/arm-none-eabi/include/c++/15.2.0/bits/alloc_traits.h **** 	= typename __detected_or_t<is_empty<_Alloc>, __equal, _Alloc>::type;
 370:/usr/arm-none-eabi/include/c++/15.2.0/bits/alloc_traits.h **** 
 371:/usr/arm-none-eabi/include/c++/15.2.0/bits/alloc_traits.h ****       template<typename _Tp>
 372:/usr/arm-none-eabi/include/c++/15.2.0/bits/alloc_traits.h **** 	using rebind_alloc = __alloc_rebind<_Alloc, _Tp>;
 373:/usr/arm-none-eabi/include/c++/15.2.0/bits/alloc_traits.h ****       template<typename _Tp>
 374:/usr/arm-none-eabi/include/c++/15.2.0/bits/alloc_traits.h **** 	using rebind_traits = allocator_traits<rebind_alloc<_Tp>>;
 375:/usr/arm-none-eabi/include/c++/15.2.0/bits/alloc_traits.h **** 
 376:/usr/arm-none-eabi/include/c++/15.2.0/bits/alloc_traits.h ****       /**
 377:/usr/arm-none-eabi/include/c++/15.2.0/bits/alloc_traits.h ****        *  @brief  Allocate memory.
 378:/usr/arm-none-eabi/include/c++/15.2.0/bits/alloc_traits.h ****        *  @param  __a  An allocator.
 379:/usr/arm-none-eabi/include/c++/15.2.0/bits/alloc_traits.h ****        *  @param  __n  The number of objects to allocate space for.
 380:/usr/arm-none-eabi/include/c++/15.2.0/bits/alloc_traits.h ****        *
 381:/usr/arm-none-eabi/include/c++/15.2.0/bits/alloc_traits.h ****        *  Calls @c a.allocate(n)
 382:/usr/arm-none-eabi/include/c++/15.2.0/bits/alloc_traits.h ****       */
 383:/usr/arm-none-eabi/include/c++/15.2.0/bits/alloc_traits.h ****       _GLIBCXX_NODISCARD static _GLIBCXX20_CONSTEXPR pointer
 384:/usr/arm-none-eabi/include/c++/15.2.0/bits/alloc_traits.h ****       allocate(_Alloc& __a, size_type __n)
 385:/usr/arm-none-eabi/include/c++/15.2.0/bits/alloc_traits.h ****       { return __a.allocate(__n); }
 386:/usr/arm-none-eabi/include/c++/15.2.0/bits/alloc_traits.h **** 
 387:/usr/arm-none-eabi/include/c++/15.2.0/bits/alloc_traits.h ****       /**
 388:/usr/arm-none-eabi/include/c++/15.2.0/bits/alloc_traits.h ****        *  @brief  Allocate memory.
 389:/usr/arm-none-eabi/include/c++/15.2.0/bits/alloc_traits.h ****        *  @param  __a  An allocator.
 390:/usr/arm-none-eabi/include/c++/15.2.0/bits/alloc_traits.h ****        *  @param  __n  The number of objects to allocate space for.
 391:/usr/arm-none-eabi/include/c++/15.2.0/bits/alloc_traits.h ****        *  @param  __hint Aid to locality.
 392:/usr/arm-none-eabi/include/c++/15.2.0/bits/alloc_traits.h ****        *  @return Memory of suitable size and alignment for @a n objects
 393:/usr/arm-none-eabi/include/c++/15.2.0/bits/alloc_traits.h ****        *          of type @c value_type
 394:/usr/arm-none-eabi/include/c++/15.2.0/bits/alloc_traits.h ****        *
 395:/usr/arm-none-eabi/include/c++/15.2.0/bits/alloc_traits.h ****        *  Returns <tt> a.allocate(n, hint) </tt> if that expression is
 396:/usr/arm-none-eabi/include/c++/15.2.0/bits/alloc_traits.h ****        *  well-formed, otherwise returns @c a.allocate(n)
 397:/usr/arm-none-eabi/include/c++/15.2.0/bits/alloc_traits.h ****       */
 398:/usr/arm-none-eabi/include/c++/15.2.0/bits/alloc_traits.h ****       _GLIBCXX_NODISCARD static _GLIBCXX20_CONSTEXPR pointer
 399:/usr/arm-none-eabi/include/c++/15.2.0/bits/alloc_traits.h ****       allocate(_Alloc& __a, size_type __n, const_void_pointer __hint)
 400:/usr/arm-none-eabi/include/c++/15.2.0/bits/alloc_traits.h ****       {
 401:/usr/arm-none-eabi/include/c++/15.2.0/bits/alloc_traits.h **** 	if constexpr (__has_allocate_hint<_Alloc, size_type, const_void_pointer>)
 402:/usr/arm-none-eabi/include/c++/15.2.0/bits/alloc_traits.h **** 	  return __a.allocate(__n, __hint);
 403:/usr/arm-none-eabi/include/c++/15.2.0/bits/alloc_traits.h **** 	else
 404:/usr/arm-none-eabi/include/c++/15.2.0/bits/alloc_traits.h **** 	  return __a.allocate(__n);
 405:/usr/arm-none-eabi/include/c++/15.2.0/bits/alloc_traits.h ****       }
 406:/usr/arm-none-eabi/include/c++/15.2.0/bits/alloc_traits.h **** 
 407:/usr/arm-none-eabi/include/c++/15.2.0/bits/alloc_traits.h ****       /**
 408:/usr/arm-none-eabi/include/c++/15.2.0/bits/alloc_traits.h ****        *  @brief  Deallocate memory.
 409:/usr/arm-none-eabi/include/c++/15.2.0/bits/alloc_traits.h ****        *  @param  __a  An allocator.
 410:/usr/arm-none-eabi/include/c++/15.2.0/bits/alloc_traits.h ****        *  @param  __p  Pointer to the memory to deallocate.
 411:/usr/arm-none-eabi/include/c++/15.2.0/bits/alloc_traits.h ****        *  @param  __n  The number of objects space was allocated for.
ARM GAS  /tmp/ccxXSPX2.s 			page 33


 412:/usr/arm-none-eabi/include/c++/15.2.0/bits/alloc_traits.h ****        *
 413:/usr/arm-none-eabi/include/c++/15.2.0/bits/alloc_traits.h ****        *  Calls <tt> a.deallocate(p, n) </tt>
 414:/usr/arm-none-eabi/include/c++/15.2.0/bits/alloc_traits.h ****       */
 415:/usr/arm-none-eabi/include/c++/15.2.0/bits/alloc_traits.h ****       static _GLIBCXX20_CONSTEXPR void
 416:/usr/arm-none-eabi/include/c++/15.2.0/bits/alloc_traits.h ****       deallocate(_Alloc& __a, pointer __p, size_type __n)
 417:/usr/arm-none-eabi/include/c++/15.2.0/bits/alloc_traits.h ****       { __a.deallocate(__p, __n); }
 418:/usr/arm-none-eabi/include/c++/15.2.0/bits/alloc_traits.h **** 
 419:/usr/arm-none-eabi/include/c++/15.2.0/bits/alloc_traits.h ****       /**
 420:/usr/arm-none-eabi/include/c++/15.2.0/bits/alloc_traits.h ****        *  @brief  Construct an object of type `_Tp`
 421:/usr/arm-none-eabi/include/c++/15.2.0/bits/alloc_traits.h ****        *  @param  __a  An allocator.
 422:/usr/arm-none-eabi/include/c++/15.2.0/bits/alloc_traits.h ****        *  @param  __p  Pointer to memory of suitable size and alignment for Tp
 423:/usr/arm-none-eabi/include/c++/15.2.0/bits/alloc_traits.h ****        *  @param  __args Constructor arguments.
 424:/usr/arm-none-eabi/include/c++/15.2.0/bits/alloc_traits.h ****        *
 425:/usr/arm-none-eabi/include/c++/15.2.0/bits/alloc_traits.h ****        *  Calls <tt> __a.construct(__p, std::forward<Args>(__args)...) </tt>
 426:/usr/arm-none-eabi/include/c++/15.2.0/bits/alloc_traits.h ****        *  if that expression is well-formed, otherwise uses placement-new
 427:/usr/arm-none-eabi/include/c++/15.2.0/bits/alloc_traits.h ****        *  to construct an object of type @a _Tp at location @a __p from the
 428:/usr/arm-none-eabi/include/c++/15.2.0/bits/alloc_traits.h ****        *  arguments @a __args...
 429:/usr/arm-none-eabi/include/c++/15.2.0/bits/alloc_traits.h ****       */
 430:/usr/arm-none-eabi/include/c++/15.2.0/bits/alloc_traits.h ****       template<typename _Tp, typename... _Args>
 431:/usr/arm-none-eabi/include/c++/15.2.0/bits/alloc_traits.h **** #if __cpp_concepts && __cpp_constexpr_dynamic_alloc
 432:/usr/arm-none-eabi/include/c++/15.2.0/bits/alloc_traits.h **** 	requires __can_construct<_Alloc, _Tp, _Args...>
 433:/usr/arm-none-eabi/include/c++/15.2.0/bits/alloc_traits.h **** 	static constexpr void
 434:/usr/arm-none-eabi/include/c++/15.2.0/bits/alloc_traits.h **** #else
 435:/usr/arm-none-eabi/include/c++/15.2.0/bits/alloc_traits.h **** 	static __enable_if_t<__can_construct<_Alloc, _Tp, _Args...>>
 436:/usr/arm-none-eabi/include/c++/15.2.0/bits/alloc_traits.h **** #endif
 437:/usr/arm-none-eabi/include/c++/15.2.0/bits/alloc_traits.h **** 	construct(_Alloc& __a, _Tp* __p, _Args&&... __args)
 438:/usr/arm-none-eabi/include/c++/15.2.0/bits/alloc_traits.h **** 	noexcept(_S_nothrow_construct<_Tp, _Args...>())
 439:/usr/arm-none-eabi/include/c++/15.2.0/bits/alloc_traits.h **** 	{
 440:/usr/arm-none-eabi/include/c++/15.2.0/bits/alloc_traits.h **** 	  if constexpr (__has_construct<_Alloc, _Tp, _Args...>)
 441:/usr/arm-none-eabi/include/c++/15.2.0/bits/alloc_traits.h **** 	    __a.construct(__p, std::forward<_Args>(__args)...);
 442:/usr/arm-none-eabi/include/c++/15.2.0/bits/alloc_traits.h **** 	  else
 443:/usr/arm-none-eabi/include/c++/15.2.0/bits/alloc_traits.h **** 	    std::_Construct(__p, std::forward<_Args>(__args)...);
 444:/usr/arm-none-eabi/include/c++/15.2.0/bits/alloc_traits.h **** 	}
 445:/usr/arm-none-eabi/include/c++/15.2.0/bits/alloc_traits.h **** 
 446:/usr/arm-none-eabi/include/c++/15.2.0/bits/alloc_traits.h ****       /**
 447:/usr/arm-none-eabi/include/c++/15.2.0/bits/alloc_traits.h ****        *  @brief  Destroy an object of type @a _Tp
 448:/usr/arm-none-eabi/include/c++/15.2.0/bits/alloc_traits.h ****        *  @param  __a  An allocator.
 449:/usr/arm-none-eabi/include/c++/15.2.0/bits/alloc_traits.h ****        *  @param  __p  Pointer to the object to destroy
 450:/usr/arm-none-eabi/include/c++/15.2.0/bits/alloc_traits.h ****        *
 451:/usr/arm-none-eabi/include/c++/15.2.0/bits/alloc_traits.h ****        *  Calls @c __a.destroy(__p) if that expression is well-formed,
 452:/usr/arm-none-eabi/include/c++/15.2.0/bits/alloc_traits.h ****        *  otherwise calls @c __p->~_Tp()
 453:/usr/arm-none-eabi/include/c++/15.2.0/bits/alloc_traits.h ****       */
 454:/usr/arm-none-eabi/include/c++/15.2.0/bits/alloc_traits.h ****       template<typename _Tp>
 455:/usr/arm-none-eabi/include/c++/15.2.0/bits/alloc_traits.h **** 	static _GLIBCXX20_CONSTEXPR void
 456:/usr/arm-none-eabi/include/c++/15.2.0/bits/alloc_traits.h **** 	destroy(_Alloc& __a, _Tp* __p)
 457:/usr/arm-none-eabi/include/c++/15.2.0/bits/alloc_traits.h **** 	noexcept(_S_nothrow_destroy<_Tp>())
 458:/usr/arm-none-eabi/include/c++/15.2.0/bits/alloc_traits.h **** 	{
 459:/usr/arm-none-eabi/include/c++/15.2.0/bits/alloc_traits.h **** 	  if constexpr (__has_destroy<_Alloc, _Tp>)
 460:/usr/arm-none-eabi/include/c++/15.2.0/bits/alloc_traits.h **** 	    __a.destroy(__p);
 461:/usr/arm-none-eabi/include/c++/15.2.0/bits/alloc_traits.h **** 	  else
 462:/usr/arm-none-eabi/include/c++/15.2.0/bits/alloc_traits.h **** 	    std::_Destroy(__p);
 463:/usr/arm-none-eabi/include/c++/15.2.0/bits/alloc_traits.h **** 	}
 464:/usr/arm-none-eabi/include/c++/15.2.0/bits/alloc_traits.h **** 
 465:/usr/arm-none-eabi/include/c++/15.2.0/bits/alloc_traits.h ****       /**
 466:/usr/arm-none-eabi/include/c++/15.2.0/bits/alloc_traits.h ****        *  @brief  The maximum supported allocation size
 467:/usr/arm-none-eabi/include/c++/15.2.0/bits/alloc_traits.h ****        *  @param  __a  An allocator.
 468:/usr/arm-none-eabi/include/c++/15.2.0/bits/alloc_traits.h ****        *  @return @c __a.max_size() or @c numeric_limits<size_type>::max()
ARM GAS  /tmp/ccxXSPX2.s 			page 34


 469:/usr/arm-none-eabi/include/c++/15.2.0/bits/alloc_traits.h ****        *
 470:/usr/arm-none-eabi/include/c++/15.2.0/bits/alloc_traits.h ****        *  Returns @c __a.max_size() if that expression is well-formed,
 471:/usr/arm-none-eabi/include/c++/15.2.0/bits/alloc_traits.h ****        *  otherwise returns @c numeric_limits<size_type>::max()
 472:/usr/arm-none-eabi/include/c++/15.2.0/bits/alloc_traits.h ****       */
 473:/usr/arm-none-eabi/include/c++/15.2.0/bits/alloc_traits.h ****       static _GLIBCXX20_CONSTEXPR size_type
 474:/usr/arm-none-eabi/include/c++/15.2.0/bits/alloc_traits.h ****       max_size(const _Alloc& __a) noexcept
 475:/usr/arm-none-eabi/include/c++/15.2.0/bits/alloc_traits.h ****       {
 476:/usr/arm-none-eabi/include/c++/15.2.0/bits/alloc_traits.h **** 	if constexpr (__has_max_size<_Alloc>)
 477:/usr/arm-none-eabi/include/c++/15.2.0/bits/alloc_traits.h **** 	  return __a.max_size();
 478:/usr/arm-none-eabi/include/c++/15.2.0/bits/alloc_traits.h **** 	else
 479:/usr/arm-none-eabi/include/c++/15.2.0/bits/alloc_traits.h **** 	  // _GLIBCXX_RESOLVE_LIB_DEFECTS
 480:/usr/arm-none-eabi/include/c++/15.2.0/bits/alloc_traits.h **** 	  // 2466. allocator_traits::max_size() default behavior is incorrect
 481:/usr/arm-none-eabi/include/c++/15.2.0/bits/alloc_traits.h **** 	  return __gnu_cxx::__numeric_traits<size_type>::__max
 482:/usr/arm-none-eabi/include/c++/15.2.0/bits/alloc_traits.h **** 	    / sizeof(value_type);
 483:/usr/arm-none-eabi/include/c++/15.2.0/bits/alloc_traits.h ****       }
 484:/usr/arm-none-eabi/include/c++/15.2.0/bits/alloc_traits.h **** 
 485:/usr/arm-none-eabi/include/c++/15.2.0/bits/alloc_traits.h ****       /**
 486:/usr/arm-none-eabi/include/c++/15.2.0/bits/alloc_traits.h ****        *  @brief  Obtain an allocator to use when copying a container.
 487:/usr/arm-none-eabi/include/c++/15.2.0/bits/alloc_traits.h ****        *  @param  __rhs  An allocator.
 488:/usr/arm-none-eabi/include/c++/15.2.0/bits/alloc_traits.h ****        *  @return @c __rhs.select_on_container_copy_construction() or @a __rhs
 489:/usr/arm-none-eabi/include/c++/15.2.0/bits/alloc_traits.h ****        *
 490:/usr/arm-none-eabi/include/c++/15.2.0/bits/alloc_traits.h ****        *  Returns @c __rhs.select_on_container_copy_construction() if that
 491:/usr/arm-none-eabi/include/c++/15.2.0/bits/alloc_traits.h ****        *  expression is well-formed, otherwise returns @a __rhs
 492:/usr/arm-none-eabi/include/c++/15.2.0/bits/alloc_traits.h ****       */
 493:/usr/arm-none-eabi/include/c++/15.2.0/bits/alloc_traits.h ****       static _GLIBCXX20_CONSTEXPR _Alloc
 494:/usr/arm-none-eabi/include/c++/15.2.0/bits/alloc_traits.h ****       select_on_container_copy_construction(const _Alloc& __rhs)
 495:/usr/arm-none-eabi/include/c++/15.2.0/bits/alloc_traits.h ****       {
 496:/usr/arm-none-eabi/include/c++/15.2.0/bits/alloc_traits.h **** 	if constexpr (__has_soccc<_Alloc>)
 497:/usr/arm-none-eabi/include/c++/15.2.0/bits/alloc_traits.h **** 	  return __rhs.select_on_container_copy_construction();
 498:/usr/arm-none-eabi/include/c++/15.2.0/bits/alloc_traits.h **** 	else
 499:/usr/arm-none-eabi/include/c++/15.2.0/bits/alloc_traits.h **** 	  return __rhs;
 500:/usr/arm-none-eabi/include/c++/15.2.0/bits/alloc_traits.h ****       }
 501:/usr/arm-none-eabi/include/c++/15.2.0/bits/alloc_traits.h **** 
 502:/usr/arm-none-eabi/include/c++/15.2.0/bits/alloc_traits.h ****     private:
 503:/usr/arm-none-eabi/include/c++/15.2.0/bits/alloc_traits.h **** #if __cpp_constexpr >= 201304 // >= C++14
 504:/usr/arm-none-eabi/include/c++/15.2.0/bits/alloc_traits.h ****       template<typename _Tp, typename... _Args>
 505:/usr/arm-none-eabi/include/c++/15.2.0/bits/alloc_traits.h **** 	static constexpr bool
 506:/usr/arm-none-eabi/include/c++/15.2.0/bits/alloc_traits.h **** 	_S_nothrow_construct(_Alloc* __a = nullptr, _Tp* __p = nullptr)
 507:/usr/arm-none-eabi/include/c++/15.2.0/bits/alloc_traits.h **** 	{
 508:/usr/arm-none-eabi/include/c++/15.2.0/bits/alloc_traits.h **** 	  if constexpr (__has_construct<_Alloc, _Tp, _Args...>)
 509:/usr/arm-none-eabi/include/c++/15.2.0/bits/alloc_traits.h **** 	    return noexcept(__a->construct(__p, std::declval<_Args>()...));
 510:/usr/arm-none-eabi/include/c++/15.2.0/bits/alloc_traits.h **** 	  else
 511:/usr/arm-none-eabi/include/c++/15.2.0/bits/alloc_traits.h **** 	    return __is_nothrow_new_constructible<_Tp, _Args...>;
 512:/usr/arm-none-eabi/include/c++/15.2.0/bits/alloc_traits.h **** 	}
 513:/usr/arm-none-eabi/include/c++/15.2.0/bits/alloc_traits.h **** 
 514:/usr/arm-none-eabi/include/c++/15.2.0/bits/alloc_traits.h ****       template<typename _Tp>
 515:/usr/arm-none-eabi/include/c++/15.2.0/bits/alloc_traits.h **** 	static constexpr bool
 516:/usr/arm-none-eabi/include/c++/15.2.0/bits/alloc_traits.h **** 	_S_nothrow_destroy(_Alloc* __a = nullptr, _Tp* __p = nullptr)
 517:/usr/arm-none-eabi/include/c++/15.2.0/bits/alloc_traits.h **** 	{
 518:/usr/arm-none-eabi/include/c++/15.2.0/bits/alloc_traits.h **** 	  if constexpr (__has_destroy<_Alloc, _Tp>)
 519:/usr/arm-none-eabi/include/c++/15.2.0/bits/alloc_traits.h **** 	    return noexcept(__a->destroy(__p));
 520:/usr/arm-none-eabi/include/c++/15.2.0/bits/alloc_traits.h **** 	  else
 521:/usr/arm-none-eabi/include/c++/15.2.0/bits/alloc_traits.h **** 	    return is_nothrow_destructible<_Tp>::value;
 522:/usr/arm-none-eabi/include/c++/15.2.0/bits/alloc_traits.h **** 	}
 523:/usr/arm-none-eabi/include/c++/15.2.0/bits/alloc_traits.h **** #else
 524:/usr/arm-none-eabi/include/c++/15.2.0/bits/alloc_traits.h ****       template<typename _Tp, typename... _Args>
 525:/usr/arm-none-eabi/include/c++/15.2.0/bits/alloc_traits.h **** 	static constexpr
ARM GAS  /tmp/ccxXSPX2.s 			page 35


 526:/usr/arm-none-eabi/include/c++/15.2.0/bits/alloc_traits.h **** 	__enable_if_t<__has_construct<_Alloc, _Tp, _Args...>, bool>
 527:/usr/arm-none-eabi/include/c++/15.2.0/bits/alloc_traits.h **** 	_S_nothrow_construct(_Alloc* __a = nullptr, _Tp* __p = nullptr)
 528:/usr/arm-none-eabi/include/c++/15.2.0/bits/alloc_traits.h **** 	{ return noexcept(__a->construct(__p, std::declval<_Args>()...)); }
 529:/usr/arm-none-eabi/include/c++/15.2.0/bits/alloc_traits.h **** 
 530:/usr/arm-none-eabi/include/c++/15.2.0/bits/alloc_traits.h ****       template<typename _Tp, typename... _Args>
 531:/usr/arm-none-eabi/include/c++/15.2.0/bits/alloc_traits.h **** 	static constexpr
 532:/usr/arm-none-eabi/include/c++/15.2.0/bits/alloc_traits.h **** 	__enable_if_t<!__has_construct<_Alloc, _Tp, _Args...>, bool>
 533:/usr/arm-none-eabi/include/c++/15.2.0/bits/alloc_traits.h **** 	_S_nothrow_construct(_Alloc* = nullptr, _Tp* __p = nullptr)
 534:/usr/arm-none-eabi/include/c++/15.2.0/bits/alloc_traits.h **** 	{ return __is_nothrow_new_constructible<_Tp, _Args...>; }
 535:/usr/arm-none-eabi/include/c++/15.2.0/bits/alloc_traits.h **** 
 536:/usr/arm-none-eabi/include/c++/15.2.0/bits/alloc_traits.h ****       template<typename _Tp>
 537:/usr/arm-none-eabi/include/c++/15.2.0/bits/alloc_traits.h **** 	static constexpr
 538:/usr/arm-none-eabi/include/c++/15.2.0/bits/alloc_traits.h **** 	__enable_if_t<__has_destroy<_Alloc, _Tp>, bool>
 539:/usr/arm-none-eabi/include/c++/15.2.0/bits/alloc_traits.h **** 	_S_nothrow_destroy(_Alloc* __a = nullptr, _Tp* __p = nullptr)
 540:/usr/arm-none-eabi/include/c++/15.2.0/bits/alloc_traits.h **** 	{ return noexcept(__a->destroy(__p)); }
 541:/usr/arm-none-eabi/include/c++/15.2.0/bits/alloc_traits.h **** 
 542:/usr/arm-none-eabi/include/c++/15.2.0/bits/alloc_traits.h ****       template<typename _Tp>
 543:/usr/arm-none-eabi/include/c++/15.2.0/bits/alloc_traits.h **** 	static constexpr
 544:/usr/arm-none-eabi/include/c++/15.2.0/bits/alloc_traits.h **** 	__enable_if_t<!__has_destroy<_Alloc, _Tp>, bool>
 545:/usr/arm-none-eabi/include/c++/15.2.0/bits/alloc_traits.h **** 	_S_nothrow_destroy(_Alloc* = nullptr, _Tp* __p = nullptr)
 546:/usr/arm-none-eabi/include/c++/15.2.0/bits/alloc_traits.h **** 	{ return is_nothrow_destructible<_Tp>::value; }
 547:/usr/arm-none-eabi/include/c++/15.2.0/bits/alloc_traits.h **** #endif
 548:/usr/arm-none-eabi/include/c++/15.2.0/bits/alloc_traits.h ****     };
 549:/usr/arm-none-eabi/include/c++/15.2.0/bits/alloc_traits.h **** #pragma GCC diagnostic pop
 550:/usr/arm-none-eabi/include/c++/15.2.0/bits/alloc_traits.h **** 
 551:/usr/arm-none-eabi/include/c++/15.2.0/bits/alloc_traits.h **** #if _GLIBCXX_HOSTED
 552:/usr/arm-none-eabi/include/c++/15.2.0/bits/alloc_traits.h ****   /**
 553:/usr/arm-none-eabi/include/c++/15.2.0/bits/alloc_traits.h ****    * @brief  Partial specialization for `std::allocator`
 554:/usr/arm-none-eabi/include/c++/15.2.0/bits/alloc_traits.h ****    * @headerfile memory
 555:/usr/arm-none-eabi/include/c++/15.2.0/bits/alloc_traits.h ****    * @ingroup allocators
 556:/usr/arm-none-eabi/include/c++/15.2.0/bits/alloc_traits.h ****    * @since C++11
 557:/usr/arm-none-eabi/include/c++/15.2.0/bits/alloc_traits.h ****    * @see std::allocator_traits
 558:/usr/arm-none-eabi/include/c++/15.2.0/bits/alloc_traits.h ****   */
 559:/usr/arm-none-eabi/include/c++/15.2.0/bits/alloc_traits.h ****   template<typename _Tp>
 560:/usr/arm-none-eabi/include/c++/15.2.0/bits/alloc_traits.h ****     struct allocator_traits<allocator<_Tp>>
 561:/usr/arm-none-eabi/include/c++/15.2.0/bits/alloc_traits.h ****     {
 562:/usr/arm-none-eabi/include/c++/15.2.0/bits/alloc_traits.h ****       /// The allocator type
 563:/usr/arm-none-eabi/include/c++/15.2.0/bits/alloc_traits.h ****       using allocator_type = allocator<_Tp>;
 564:/usr/arm-none-eabi/include/c++/15.2.0/bits/alloc_traits.h **** 
 565:/usr/arm-none-eabi/include/c++/15.2.0/bits/alloc_traits.h ****       /// The allocated type
 566:/usr/arm-none-eabi/include/c++/15.2.0/bits/alloc_traits.h ****       using value_type = _Tp;
 567:/usr/arm-none-eabi/include/c++/15.2.0/bits/alloc_traits.h **** 
 568:/usr/arm-none-eabi/include/c++/15.2.0/bits/alloc_traits.h ****       /// The allocator's pointer type.
 569:/usr/arm-none-eabi/include/c++/15.2.0/bits/alloc_traits.h ****       using pointer = _Tp*;
 570:/usr/arm-none-eabi/include/c++/15.2.0/bits/alloc_traits.h **** 
 571:/usr/arm-none-eabi/include/c++/15.2.0/bits/alloc_traits.h ****       /// The allocator's const pointer type.
 572:/usr/arm-none-eabi/include/c++/15.2.0/bits/alloc_traits.h ****       using const_pointer = const _Tp*;
 573:/usr/arm-none-eabi/include/c++/15.2.0/bits/alloc_traits.h **** 
 574:/usr/arm-none-eabi/include/c++/15.2.0/bits/alloc_traits.h ****       /// The allocator's void pointer type.
 575:/usr/arm-none-eabi/include/c++/15.2.0/bits/alloc_traits.h ****       using void_pointer = void*;
 576:/usr/arm-none-eabi/include/c++/15.2.0/bits/alloc_traits.h **** 
 577:/usr/arm-none-eabi/include/c++/15.2.0/bits/alloc_traits.h ****       /// The allocator's const void pointer type.
 578:/usr/arm-none-eabi/include/c++/15.2.0/bits/alloc_traits.h ****       using const_void_pointer = const void*;
 579:/usr/arm-none-eabi/include/c++/15.2.0/bits/alloc_traits.h **** 
 580:/usr/arm-none-eabi/include/c++/15.2.0/bits/alloc_traits.h ****       /// The allocator's difference type
 581:/usr/arm-none-eabi/include/c++/15.2.0/bits/alloc_traits.h ****       using difference_type = std::ptrdiff_t;
 582:/usr/arm-none-eabi/include/c++/15.2.0/bits/alloc_traits.h **** 
ARM GAS  /tmp/ccxXSPX2.s 			page 36


 583:/usr/arm-none-eabi/include/c++/15.2.0/bits/alloc_traits.h ****       /// The allocator's size type
 584:/usr/arm-none-eabi/include/c++/15.2.0/bits/alloc_traits.h ****       using size_type = std::size_t;
 585:/usr/arm-none-eabi/include/c++/15.2.0/bits/alloc_traits.h **** 
 586:/usr/arm-none-eabi/include/c++/15.2.0/bits/alloc_traits.h ****       /// How the allocator is propagated on copy assignment
 587:/usr/arm-none-eabi/include/c++/15.2.0/bits/alloc_traits.h ****       using propagate_on_container_copy_assignment = false_type;
 588:/usr/arm-none-eabi/include/c++/15.2.0/bits/alloc_traits.h **** 
 589:/usr/arm-none-eabi/include/c++/15.2.0/bits/alloc_traits.h ****       /// How the allocator is propagated on move assignment
 590:/usr/arm-none-eabi/include/c++/15.2.0/bits/alloc_traits.h ****       using propagate_on_container_move_assignment = true_type;
 591:/usr/arm-none-eabi/include/c++/15.2.0/bits/alloc_traits.h **** 
 592:/usr/arm-none-eabi/include/c++/15.2.0/bits/alloc_traits.h ****       /// How the allocator is propagated on swap
 593:/usr/arm-none-eabi/include/c++/15.2.0/bits/alloc_traits.h ****       using propagate_on_container_swap = false_type;
 594:/usr/arm-none-eabi/include/c++/15.2.0/bits/alloc_traits.h **** 
 595:/usr/arm-none-eabi/include/c++/15.2.0/bits/alloc_traits.h ****       /// Whether all instances of the allocator type compare equal.
 596:/usr/arm-none-eabi/include/c++/15.2.0/bits/alloc_traits.h ****       using is_always_equal = true_type;
 597:/usr/arm-none-eabi/include/c++/15.2.0/bits/alloc_traits.h **** 
 598:/usr/arm-none-eabi/include/c++/15.2.0/bits/alloc_traits.h ****       template<typename _Up>
 599:/usr/arm-none-eabi/include/c++/15.2.0/bits/alloc_traits.h **** 	using rebind_alloc = allocator<_Up>;
 600:/usr/arm-none-eabi/include/c++/15.2.0/bits/alloc_traits.h **** 
 601:/usr/arm-none-eabi/include/c++/15.2.0/bits/alloc_traits.h ****       template<typename _Up>
 602:/usr/arm-none-eabi/include/c++/15.2.0/bits/alloc_traits.h **** 	using rebind_traits = allocator_traits<allocator<_Up>>;
 603:/usr/arm-none-eabi/include/c++/15.2.0/bits/alloc_traits.h **** 
 604:/usr/arm-none-eabi/include/c++/15.2.0/bits/alloc_traits.h ****       /**
 605:/usr/arm-none-eabi/include/c++/15.2.0/bits/alloc_traits.h ****        *  @brief  Allocate memory.
 606:/usr/arm-none-eabi/include/c++/15.2.0/bits/alloc_traits.h ****        *  @param  __a  An allocator.
 607:/usr/arm-none-eabi/include/c++/15.2.0/bits/alloc_traits.h ****        *  @param  __n  The number of objects to allocate space for.
 608:/usr/arm-none-eabi/include/c++/15.2.0/bits/alloc_traits.h ****        *
 609:/usr/arm-none-eabi/include/c++/15.2.0/bits/alloc_traits.h ****        *  Calls @c a.allocate(n)
 610:/usr/arm-none-eabi/include/c++/15.2.0/bits/alloc_traits.h ****       */
 611:/usr/arm-none-eabi/include/c++/15.2.0/bits/alloc_traits.h ****       [[__nodiscard__,__gnu__::__always_inline__]]
 612:/usr/arm-none-eabi/include/c++/15.2.0/bits/alloc_traits.h ****       static _GLIBCXX20_CONSTEXPR pointer
 613:/usr/arm-none-eabi/include/c++/15.2.0/bits/alloc_traits.h ****       allocate(allocator_type& __a, size_type __n)
 614:/usr/arm-none-eabi/include/c++/15.2.0/bits/alloc_traits.h ****       { return __a.allocate(__n); }
 615:/usr/arm-none-eabi/include/c++/15.2.0/bits/alloc_traits.h **** 
 616:/usr/arm-none-eabi/include/c++/15.2.0/bits/alloc_traits.h ****       /**
 617:/usr/arm-none-eabi/include/c++/15.2.0/bits/alloc_traits.h ****        *  @brief  Allocate memory.
 618:/usr/arm-none-eabi/include/c++/15.2.0/bits/alloc_traits.h ****        *  @param  __a  An allocator.
 619:/usr/arm-none-eabi/include/c++/15.2.0/bits/alloc_traits.h ****        *  @param  __n  The number of objects to allocate space for.
 620:/usr/arm-none-eabi/include/c++/15.2.0/bits/alloc_traits.h ****        *  @param  __hint Aid to locality.
 621:/usr/arm-none-eabi/include/c++/15.2.0/bits/alloc_traits.h ****        *  @return Memory of suitable size and alignment for @a n objects
 622:/usr/arm-none-eabi/include/c++/15.2.0/bits/alloc_traits.h ****        *          of type @c value_type
 623:/usr/arm-none-eabi/include/c++/15.2.0/bits/alloc_traits.h ****        *
 624:/usr/arm-none-eabi/include/c++/15.2.0/bits/alloc_traits.h ****        *  Returns <tt> a.allocate(n, hint) </tt>
 625:/usr/arm-none-eabi/include/c++/15.2.0/bits/alloc_traits.h ****       */
 626:/usr/arm-none-eabi/include/c++/15.2.0/bits/alloc_traits.h ****       [[__nodiscard__,__gnu__::__always_inline__]]
 627:/usr/arm-none-eabi/include/c++/15.2.0/bits/alloc_traits.h ****       static _GLIBCXX20_CONSTEXPR pointer
 628:/usr/arm-none-eabi/include/c++/15.2.0/bits/alloc_traits.h ****       allocate(allocator_type& __a, size_type __n,
 629:/usr/arm-none-eabi/include/c++/15.2.0/bits/alloc_traits.h **** 	       [[maybe_unused]] const_void_pointer __hint)
 630:/usr/arm-none-eabi/include/c++/15.2.0/bits/alloc_traits.h ****       {
 631:/usr/arm-none-eabi/include/c++/15.2.0/bits/alloc_traits.h **** #if __cplusplus <= 201703L
 632:/usr/arm-none-eabi/include/c++/15.2.0/bits/alloc_traits.h **** 	return __a.allocate(__n, __hint);
 633:/usr/arm-none-eabi/include/c++/15.2.0/bits/alloc_traits.h **** #else
 634:/usr/arm-none-eabi/include/c++/15.2.0/bits/alloc_traits.h **** 	return __a.allocate(__n);
 635:/usr/arm-none-eabi/include/c++/15.2.0/bits/alloc_traits.h **** #endif
 636:/usr/arm-none-eabi/include/c++/15.2.0/bits/alloc_traits.h ****       }
 637:/usr/arm-none-eabi/include/c++/15.2.0/bits/alloc_traits.h **** 
 638:/usr/arm-none-eabi/include/c++/15.2.0/bits/alloc_traits.h ****       /**
 639:/usr/arm-none-eabi/include/c++/15.2.0/bits/alloc_traits.h ****        *  @brief  Deallocate memory.
ARM GAS  /tmp/ccxXSPX2.s 			page 37


 640:/usr/arm-none-eabi/include/c++/15.2.0/bits/alloc_traits.h ****        *  @param  __a  An allocator.
 641:/usr/arm-none-eabi/include/c++/15.2.0/bits/alloc_traits.h ****        *  @param  __p  Pointer to the memory to deallocate.
 642:/usr/arm-none-eabi/include/c++/15.2.0/bits/alloc_traits.h ****        *  @param  __n  The number of objects space was allocated for.
 643:/usr/arm-none-eabi/include/c++/15.2.0/bits/alloc_traits.h ****        *
 644:/usr/arm-none-eabi/include/c++/15.2.0/bits/alloc_traits.h ****        *  Calls <tt> a.deallocate(p, n) </tt>
 645:/usr/arm-none-eabi/include/c++/15.2.0/bits/alloc_traits.h ****       */
 646:/usr/arm-none-eabi/include/c++/15.2.0/bits/alloc_traits.h ****       [[__gnu__::__always_inline__]]
 647:/usr/arm-none-eabi/include/c++/15.2.0/bits/alloc_traits.h ****       static _GLIBCXX20_CONSTEXPR void
 648:/usr/arm-none-eabi/include/c++/15.2.0/bits/alloc_traits.h ****       deallocate(allocator_type& __a, pointer __p, size_type __n)
 649:/usr/arm-none-eabi/include/c++/15.2.0/bits/alloc_traits.h ****       { __a.deallocate(__p, __n); }
 650:/usr/arm-none-eabi/include/c++/15.2.0/bits/alloc_traits.h **** 
 651:/usr/arm-none-eabi/include/c++/15.2.0/bits/alloc_traits.h ****       /**
 652:/usr/arm-none-eabi/include/c++/15.2.0/bits/alloc_traits.h ****        *  @brief  Construct an object of type `_Up`
 653:/usr/arm-none-eabi/include/c++/15.2.0/bits/alloc_traits.h ****        *  @param  __a  An allocator.
 654:/usr/arm-none-eabi/include/c++/15.2.0/bits/alloc_traits.h ****        *  @param  __p  Pointer to memory of suitable size and alignment for
 655:/usr/arm-none-eabi/include/c++/15.2.0/bits/alloc_traits.h ****        *	       an object of type `_Up`.
 656:/usr/arm-none-eabi/include/c++/15.2.0/bits/alloc_traits.h ****        *  @param  __args Constructor arguments.
 657:/usr/arm-none-eabi/include/c++/15.2.0/bits/alloc_traits.h ****        *
 658:/usr/arm-none-eabi/include/c++/15.2.0/bits/alloc_traits.h ****        *  Calls `__a.construct(__p, std::forward<_Args>(__args)...)`
 659:/usr/arm-none-eabi/include/c++/15.2.0/bits/alloc_traits.h ****        *  in C++11, C++14 and C++17. Changed in C++20 to call
 660:/usr/arm-none-eabi/include/c++/15.2.0/bits/alloc_traits.h ****        *  `std::construct_at(__p, std::forward<_Args>(__args)...)` instead.
 661:/usr/arm-none-eabi/include/c++/15.2.0/bits/alloc_traits.h ****       */
 662:/usr/arm-none-eabi/include/c++/15.2.0/bits/alloc_traits.h ****       template<typename _Up, typename... _Args>
 663:/usr/arm-none-eabi/include/c++/15.2.0/bits/alloc_traits.h **** 	[[__gnu__::__always_inline__]]
 664:/usr/arm-none-eabi/include/c++/15.2.0/bits/alloc_traits.h **** 	static _GLIBCXX20_CONSTEXPR void
 665:/usr/arm-none-eabi/include/c++/15.2.0/bits/alloc_traits.h **** 	construct(allocator_type& __a __attribute__((__unused__)),
 666:/usr/arm-none-eabi/include/c++/15.2.0/bits/alloc_traits.h **** 		  _Up* __p, _Args&&... __args)
 667:/usr/arm-none-eabi/include/c++/15.2.0/bits/alloc_traits.h **** #if __cplusplus <= 201703L
 668:/usr/arm-none-eabi/include/c++/15.2.0/bits/alloc_traits.h **** 	noexcept(noexcept(__a.construct(__p, std::forward<_Args>(__args)...)))
 669:/usr/arm-none-eabi/include/c++/15.2.0/bits/alloc_traits.h **** #else
 670:/usr/arm-none-eabi/include/c++/15.2.0/bits/alloc_traits.h **** 	noexcept(__is_nothrow_new_constructible<_Up, _Args...>)
 671:/usr/arm-none-eabi/include/c++/15.2.0/bits/alloc_traits.h **** #endif
 672:/usr/arm-none-eabi/include/c++/15.2.0/bits/alloc_traits.h **** 	{
 673:/usr/arm-none-eabi/include/c++/15.2.0/bits/alloc_traits.h **** #if __cplusplus <= 201703L
 674:/usr/arm-none-eabi/include/c++/15.2.0/bits/alloc_traits.h **** 	  __a.construct(__p, std::forward<_Args>(__args)...);
 675:/usr/arm-none-eabi/include/c++/15.2.0/bits/alloc_traits.h **** #elif __cpp_constexpr_dynamic_alloc // >= C++20
 676:/usr/arm-none-eabi/include/c++/15.2.0/bits/alloc_traits.h **** 	  std::construct_at(__p, std::forward<_Args>(__args)...);
 677:/usr/arm-none-eabi/include/c++/15.2.0/bits/alloc_traits.h **** #else
 678:/usr/arm-none-eabi/include/c++/15.2.0/bits/alloc_traits.h **** 	  std::_Construct(__p, std::forward<_Args>(__args)...);
 679:/usr/arm-none-eabi/include/c++/15.2.0/bits/alloc_traits.h **** #endif
 680:/usr/arm-none-eabi/include/c++/15.2.0/bits/alloc_traits.h **** 	}
 681:/usr/arm-none-eabi/include/c++/15.2.0/bits/alloc_traits.h **** 
 682:/usr/arm-none-eabi/include/c++/15.2.0/bits/alloc_traits.h ****       /**
 683:/usr/arm-none-eabi/include/c++/15.2.0/bits/alloc_traits.h ****        *  @brief  Destroy an object of type @a _Up
 684:/usr/arm-none-eabi/include/c++/15.2.0/bits/alloc_traits.h ****        *  @param  __a  An allocator.
 685:/usr/arm-none-eabi/include/c++/15.2.0/bits/alloc_traits.h ****        *  @param  __p  Pointer to the object to destroy
 686:/usr/arm-none-eabi/include/c++/15.2.0/bits/alloc_traits.h ****        *
 687:/usr/arm-none-eabi/include/c++/15.2.0/bits/alloc_traits.h ****        *  Calls @c __a.destroy(__p).
 688:/usr/arm-none-eabi/include/c++/15.2.0/bits/alloc_traits.h ****       */
 689:/usr/arm-none-eabi/include/c++/15.2.0/bits/alloc_traits.h ****       template<typename _Up>
 690:/usr/arm-none-eabi/include/c++/15.2.0/bits/alloc_traits.h **** 	[[__gnu__::__always_inline__]]
 691:/usr/arm-none-eabi/include/c++/15.2.0/bits/alloc_traits.h **** 	static _GLIBCXX20_CONSTEXPR void
 692:/usr/arm-none-eabi/include/c++/15.2.0/bits/alloc_traits.h **** 	destroy(allocator_type& __a __attribute__((__unused__)), _Up* __p)
 693:/usr/arm-none-eabi/include/c++/15.2.0/bits/alloc_traits.h **** 	noexcept(is_nothrow_destructible<_Up>::value)
 694:/usr/arm-none-eabi/include/c++/15.2.0/bits/alloc_traits.h **** 	{
 695:/usr/arm-none-eabi/include/c++/15.2.0/bits/alloc_traits.h **** #if __cplusplus <= 201703L
 696:/usr/arm-none-eabi/include/c++/15.2.0/bits/alloc_traits.h **** 	  __a.destroy(__p);
ARM GAS  /tmp/ccxXSPX2.s 			page 38


 697:/usr/arm-none-eabi/include/c++/15.2.0/bits/alloc_traits.h **** #else
 698:/usr/arm-none-eabi/include/c++/15.2.0/bits/alloc_traits.h **** 	  std::destroy_at(__p);
 699:/usr/arm-none-eabi/include/c++/15.2.0/bits/alloc_traits.h **** #endif
 700:/usr/arm-none-eabi/include/c++/15.2.0/bits/alloc_traits.h **** 	}
 701:/usr/arm-none-eabi/include/c++/15.2.0/bits/alloc_traits.h **** 
 702:/usr/arm-none-eabi/include/c++/15.2.0/bits/alloc_traits.h ****       /**
 703:/usr/arm-none-eabi/include/c++/15.2.0/bits/alloc_traits.h ****        *  @brief  The maximum supported allocation size
 704:/usr/arm-none-eabi/include/c++/15.2.0/bits/alloc_traits.h ****        *  @param  __a  An allocator.
 705:/usr/arm-none-eabi/include/c++/15.2.0/bits/alloc_traits.h ****        *  @return @c __a.max_size()
 706:/usr/arm-none-eabi/include/c++/15.2.0/bits/alloc_traits.h ****       */
 707:/usr/arm-none-eabi/include/c++/15.2.0/bits/alloc_traits.h ****       [[__gnu__::__always_inline__]]
 708:/usr/arm-none-eabi/include/c++/15.2.0/bits/alloc_traits.h ****       static _GLIBCXX20_CONSTEXPR size_type
 709:/usr/arm-none-eabi/include/c++/15.2.0/bits/alloc_traits.h ****       max_size(const allocator_type& __a __attribute__((__unused__))) noexcept
 710:/usr/arm-none-eabi/include/c++/15.2.0/bits/alloc_traits.h ****       {
 711:/usr/arm-none-eabi/include/c++/15.2.0/bits/alloc_traits.h **** #if __cplusplus <= 201703L
 712:/usr/arm-none-eabi/include/c++/15.2.0/bits/alloc_traits.h **** 	return __a.max_size();
 713:/usr/arm-none-eabi/include/c++/15.2.0/bits/alloc_traits.h **** #else
 714:/usr/arm-none-eabi/include/c++/15.2.0/bits/alloc_traits.h **** 	return size_t(-1) / sizeof(value_type);
 715:/usr/arm-none-eabi/include/c++/15.2.0/bits/alloc_traits.h **** #endif
 716:/usr/arm-none-eabi/include/c++/15.2.0/bits/alloc_traits.h ****       }
 717:/usr/arm-none-eabi/include/c++/15.2.0/bits/alloc_traits.h **** 
 718:/usr/arm-none-eabi/include/c++/15.2.0/bits/alloc_traits.h ****       /**
 719:/usr/arm-none-eabi/include/c++/15.2.0/bits/alloc_traits.h ****        *  @brief  Obtain an allocator to use when copying a container.
 720:/usr/arm-none-eabi/include/c++/15.2.0/bits/alloc_traits.h ****        *  @param  __rhs  An allocator.
 721:/usr/arm-none-eabi/include/c++/15.2.0/bits/alloc_traits.h ****        *  @return @c __rhs
 722:/usr/arm-none-eabi/include/c++/15.2.0/bits/alloc_traits.h ****       */
 723:/usr/arm-none-eabi/include/c++/15.2.0/bits/alloc_traits.h ****       [[__gnu__::__always_inline__]]
 724:/usr/arm-none-eabi/include/c++/15.2.0/bits/alloc_traits.h ****       static _GLIBCXX20_CONSTEXPR allocator_type
 725:/usr/arm-none-eabi/include/c++/15.2.0/bits/alloc_traits.h ****       select_on_container_copy_construction(const allocator_type& __rhs)
 726:/usr/arm-none-eabi/include/c++/15.2.0/bits/alloc_traits.h ****       { return __rhs; }
 727:/usr/arm-none-eabi/include/c++/15.2.0/bits/alloc_traits.h ****     };
 728:/usr/arm-none-eabi/include/c++/15.2.0/bits/alloc_traits.h **** 
 729:/usr/arm-none-eabi/include/c++/15.2.0/bits/alloc_traits.h ****   /**
 730:/usr/arm-none-eabi/include/c++/15.2.0/bits/alloc_traits.h ****    * @brief  Explicit specialization for `std::allocator<void>`
 731:/usr/arm-none-eabi/include/c++/15.2.0/bits/alloc_traits.h ****    * @headerfile memory
 732:/usr/arm-none-eabi/include/c++/15.2.0/bits/alloc_traits.h ****    * @ingroup allocators
 733:/usr/arm-none-eabi/include/c++/15.2.0/bits/alloc_traits.h ****    * @since C++11
 734:/usr/arm-none-eabi/include/c++/15.2.0/bits/alloc_traits.h ****    * @see std::allocator_traits
 735:/usr/arm-none-eabi/include/c++/15.2.0/bits/alloc_traits.h ****   */
 736:/usr/arm-none-eabi/include/c++/15.2.0/bits/alloc_traits.h ****   template<>
 737:/usr/arm-none-eabi/include/c++/15.2.0/bits/alloc_traits.h ****     struct allocator_traits<allocator<void>>
 738:/usr/arm-none-eabi/include/c++/15.2.0/bits/alloc_traits.h ****     {
 739:/usr/arm-none-eabi/include/c++/15.2.0/bits/alloc_traits.h ****       /// The allocator type
 740:/usr/arm-none-eabi/include/c++/15.2.0/bits/alloc_traits.h ****       using allocator_type = allocator<void>;
 741:/usr/arm-none-eabi/include/c++/15.2.0/bits/alloc_traits.h **** 
 742:/usr/arm-none-eabi/include/c++/15.2.0/bits/alloc_traits.h ****       /// The allocated type
 743:/usr/arm-none-eabi/include/c++/15.2.0/bits/alloc_traits.h ****       using value_type = void;
 744:/usr/arm-none-eabi/include/c++/15.2.0/bits/alloc_traits.h **** 
 745:/usr/arm-none-eabi/include/c++/15.2.0/bits/alloc_traits.h ****       /// The allocator's pointer type.
 746:/usr/arm-none-eabi/include/c++/15.2.0/bits/alloc_traits.h ****       using pointer = void*;
 747:/usr/arm-none-eabi/include/c++/15.2.0/bits/alloc_traits.h **** 
 748:/usr/arm-none-eabi/include/c++/15.2.0/bits/alloc_traits.h ****       /// The allocator's const pointer type.
 749:/usr/arm-none-eabi/include/c++/15.2.0/bits/alloc_traits.h ****       using const_pointer = const void*;
 750:/usr/arm-none-eabi/include/c++/15.2.0/bits/alloc_traits.h **** 
 751:/usr/arm-none-eabi/include/c++/15.2.0/bits/alloc_traits.h ****       /// The allocator's void pointer type.
 752:/usr/arm-none-eabi/include/c++/15.2.0/bits/alloc_traits.h ****       using void_pointer = void*;
 753:/usr/arm-none-eabi/include/c++/15.2.0/bits/alloc_traits.h **** 
ARM GAS  /tmp/ccxXSPX2.s 			page 39


 754:/usr/arm-none-eabi/include/c++/15.2.0/bits/alloc_traits.h ****       /// The allocator's const void pointer type.
 755:/usr/arm-none-eabi/include/c++/15.2.0/bits/alloc_traits.h ****       using const_void_pointer = const void*;
 756:/usr/arm-none-eabi/include/c++/15.2.0/bits/alloc_traits.h **** 
 757:/usr/arm-none-eabi/include/c++/15.2.0/bits/alloc_traits.h ****       /// The allocator's difference type
 758:/usr/arm-none-eabi/include/c++/15.2.0/bits/alloc_traits.h ****       using difference_type = std::ptrdiff_t;
 759:/usr/arm-none-eabi/include/c++/15.2.0/bits/alloc_traits.h **** 
 760:/usr/arm-none-eabi/include/c++/15.2.0/bits/alloc_traits.h ****       /// The allocator's size type
 761:/usr/arm-none-eabi/include/c++/15.2.0/bits/alloc_traits.h ****       using size_type = std::size_t;
 762:/usr/arm-none-eabi/include/c++/15.2.0/bits/alloc_traits.h **** 
 763:/usr/arm-none-eabi/include/c++/15.2.0/bits/alloc_traits.h ****       /// How the allocator is propagated on copy assignment
 764:/usr/arm-none-eabi/include/c++/15.2.0/bits/alloc_traits.h ****       using propagate_on_container_copy_assignment = false_type;
 765:/usr/arm-none-eabi/include/c++/15.2.0/bits/alloc_traits.h **** 
 766:/usr/arm-none-eabi/include/c++/15.2.0/bits/alloc_traits.h ****       /// How the allocator is propagated on move assignment
 767:/usr/arm-none-eabi/include/c++/15.2.0/bits/alloc_traits.h ****       using propagate_on_container_move_assignment = true_type;
 768:/usr/arm-none-eabi/include/c++/15.2.0/bits/alloc_traits.h **** 
 769:/usr/arm-none-eabi/include/c++/15.2.0/bits/alloc_traits.h ****       /// How the allocator is propagated on swap
 770:/usr/arm-none-eabi/include/c++/15.2.0/bits/alloc_traits.h ****       using propagate_on_container_swap = false_type;
 771:/usr/arm-none-eabi/include/c++/15.2.0/bits/alloc_traits.h **** 
 772:/usr/arm-none-eabi/include/c++/15.2.0/bits/alloc_traits.h ****       /// Whether all instances of the allocator type compare equal.
 773:/usr/arm-none-eabi/include/c++/15.2.0/bits/alloc_traits.h ****       using is_always_equal = true_type;
 774:/usr/arm-none-eabi/include/c++/15.2.0/bits/alloc_traits.h **** 
 775:/usr/arm-none-eabi/include/c++/15.2.0/bits/alloc_traits.h ****       template<typename _Up>
 776:/usr/arm-none-eabi/include/c++/15.2.0/bits/alloc_traits.h **** 	using rebind_alloc = allocator<_Up>;
 777:/usr/arm-none-eabi/include/c++/15.2.0/bits/alloc_traits.h **** 
 778:/usr/arm-none-eabi/include/c++/15.2.0/bits/alloc_traits.h ****       template<typename _Up>
 779:/usr/arm-none-eabi/include/c++/15.2.0/bits/alloc_traits.h **** 	using rebind_traits = allocator_traits<allocator<_Up>>;
 780:/usr/arm-none-eabi/include/c++/15.2.0/bits/alloc_traits.h **** 
 781:/usr/arm-none-eabi/include/c++/15.2.0/bits/alloc_traits.h ****       /// allocate is ill-formed for allocator<void>
 782:/usr/arm-none-eabi/include/c++/15.2.0/bits/alloc_traits.h ****       static void*
 783:/usr/arm-none-eabi/include/c++/15.2.0/bits/alloc_traits.h ****       allocate(allocator_type&, size_type, const void* = nullptr) = delete;
 784:/usr/arm-none-eabi/include/c++/15.2.0/bits/alloc_traits.h **** 
 785:/usr/arm-none-eabi/include/c++/15.2.0/bits/alloc_traits.h ****       /// deallocate is ill-formed for allocator<void>
 786:/usr/arm-none-eabi/include/c++/15.2.0/bits/alloc_traits.h ****       static void
 787:/usr/arm-none-eabi/include/c++/15.2.0/bits/alloc_traits.h ****       deallocate(allocator_type&, void*, size_type) = delete;
 788:/usr/arm-none-eabi/include/c++/15.2.0/bits/alloc_traits.h **** 
 789:/usr/arm-none-eabi/include/c++/15.2.0/bits/alloc_traits.h ****       /**
 790:/usr/arm-none-eabi/include/c++/15.2.0/bits/alloc_traits.h ****        *  @brief  Construct an object of type `_Up`
 791:/usr/arm-none-eabi/include/c++/15.2.0/bits/alloc_traits.h ****        *  @param  __a  An allocator.
 792:/usr/arm-none-eabi/include/c++/15.2.0/bits/alloc_traits.h ****        *  @param  __p  Pointer to memory of suitable size and alignment for
 793:/usr/arm-none-eabi/include/c++/15.2.0/bits/alloc_traits.h ****        *	       an object of type `_Up`.
 794:/usr/arm-none-eabi/include/c++/15.2.0/bits/alloc_traits.h ****        *  @param  __args Constructor arguments.
 795:/usr/arm-none-eabi/include/c++/15.2.0/bits/alloc_traits.h ****        *
 796:/usr/arm-none-eabi/include/c++/15.2.0/bits/alloc_traits.h ****        *  Calls `__a.construct(__p, std::forward<_Args>(__args)...)`
 797:/usr/arm-none-eabi/include/c++/15.2.0/bits/alloc_traits.h ****        *  in C++11, C++14 and C++17. Changed in C++20 to call
 798:/usr/arm-none-eabi/include/c++/15.2.0/bits/alloc_traits.h ****        *  `std::construct_at(__p, std::forward<_Args>(__args)...)` instead.
 799:/usr/arm-none-eabi/include/c++/15.2.0/bits/alloc_traits.h ****       */
 800:/usr/arm-none-eabi/include/c++/15.2.0/bits/alloc_traits.h ****       template<typename _Up, typename... _Args>
 801:/usr/arm-none-eabi/include/c++/15.2.0/bits/alloc_traits.h **** 	[[__gnu__::__always_inline__]]
 802:/usr/arm-none-eabi/include/c++/15.2.0/bits/alloc_traits.h **** 	static _GLIBCXX20_CONSTEXPR void
 803:/usr/arm-none-eabi/include/c++/15.2.0/bits/alloc_traits.h **** 	construct(allocator_type&, _Up* __p, _Args&&... __args)
 804:/usr/arm-none-eabi/include/c++/15.2.0/bits/alloc_traits.h **** 	noexcept(__is_nothrow_new_constructible<_Up, _Args...>)
 805:/usr/arm-none-eabi/include/c++/15.2.0/bits/alloc_traits.h **** 	{ std::_Construct(__p, std::forward<_Args>(__args)...); }
 806:/usr/arm-none-eabi/include/c++/15.2.0/bits/alloc_traits.h **** 
 807:/usr/arm-none-eabi/include/c++/15.2.0/bits/alloc_traits.h ****       /**
 808:/usr/arm-none-eabi/include/c++/15.2.0/bits/alloc_traits.h ****        *  @brief  Destroy an object of type `_Up`
 809:/usr/arm-none-eabi/include/c++/15.2.0/bits/alloc_traits.h ****        *  @param  __a  An allocator.
 810:/usr/arm-none-eabi/include/c++/15.2.0/bits/alloc_traits.h ****        *  @param  __p  Pointer to the object to destroy
ARM GAS  /tmp/ccxXSPX2.s 			page 40


 811:/usr/arm-none-eabi/include/c++/15.2.0/bits/alloc_traits.h ****        *
 812:/usr/arm-none-eabi/include/c++/15.2.0/bits/alloc_traits.h ****        *  Invokes the destructor for `*__p`.
 813:/usr/arm-none-eabi/include/c++/15.2.0/bits/alloc_traits.h ****       */
 814:/usr/arm-none-eabi/include/c++/15.2.0/bits/alloc_traits.h ****       template<typename _Up>
 815:/usr/arm-none-eabi/include/c++/15.2.0/bits/alloc_traits.h **** 	[[__gnu__::__always_inline__]]
 816:/usr/arm-none-eabi/include/c++/15.2.0/bits/alloc_traits.h **** 	static _GLIBCXX20_CONSTEXPR void
 817:/usr/arm-none-eabi/include/c++/15.2.0/bits/alloc_traits.h **** 	destroy(allocator_type&, _Up* __p)
 818:/usr/arm-none-eabi/include/c++/15.2.0/bits/alloc_traits.h **** 	noexcept(is_nothrow_destructible<_Up>::value)
 819:/usr/arm-none-eabi/include/c++/15.2.0/bits/alloc_traits.h **** 	{ std::_Destroy(__p); }
 820:/usr/arm-none-eabi/include/c++/15.2.0/bits/alloc_traits.h **** 
 821:/usr/arm-none-eabi/include/c++/15.2.0/bits/alloc_traits.h ****       /// max_size is ill-formed for allocator<void>
 822:/usr/arm-none-eabi/include/c++/15.2.0/bits/alloc_traits.h ****       static size_type
 823:/usr/arm-none-eabi/include/c++/15.2.0/bits/alloc_traits.h ****       max_size(const allocator_type&) = delete;
 824:/usr/arm-none-eabi/include/c++/15.2.0/bits/alloc_traits.h **** 
 825:/usr/arm-none-eabi/include/c++/15.2.0/bits/alloc_traits.h ****       /**
 826:/usr/arm-none-eabi/include/c++/15.2.0/bits/alloc_traits.h ****        *  @brief  Obtain an allocator to use when copying a container.
 827:/usr/arm-none-eabi/include/c++/15.2.0/bits/alloc_traits.h ****        *  @param  __rhs  An allocator.
 828:/usr/arm-none-eabi/include/c++/15.2.0/bits/alloc_traits.h ****        *  @return `__rhs`
 829:/usr/arm-none-eabi/include/c++/15.2.0/bits/alloc_traits.h ****       */
 830:/usr/arm-none-eabi/include/c++/15.2.0/bits/alloc_traits.h ****       [[__gnu__::__always_inline__]]
 831:/usr/arm-none-eabi/include/c++/15.2.0/bits/alloc_traits.h ****       static _GLIBCXX20_CONSTEXPR allocator_type
 832:/usr/arm-none-eabi/include/c++/15.2.0/bits/alloc_traits.h ****       select_on_container_copy_construction(const allocator_type& __rhs)
 833:/usr/arm-none-eabi/include/c++/15.2.0/bits/alloc_traits.h ****       { return __rhs; }
 834:/usr/arm-none-eabi/include/c++/15.2.0/bits/alloc_traits.h ****     };
 835:/usr/arm-none-eabi/include/c++/15.2.0/bits/alloc_traits.h **** #endif
 836:/usr/arm-none-eabi/include/c++/15.2.0/bits/alloc_traits.h **** 
 837:/usr/arm-none-eabi/include/c++/15.2.0/bits/alloc_traits.h ****   /// @cond undocumented
 838:/usr/arm-none-eabi/include/c++/15.2.0/bits/alloc_traits.h **** #pragma GCC diagnostic push
 839:/usr/arm-none-eabi/include/c++/15.2.0/bits/alloc_traits.h **** #pragma GCC diagnostic ignored "-Wc++17-extensions" // if constexpr
 840:/usr/arm-none-eabi/include/c++/15.2.0/bits/alloc_traits.h ****   template<typename _Alloc>
 841:/usr/arm-none-eabi/include/c++/15.2.0/bits/alloc_traits.h ****     [[__gnu__::__always_inline__]]
 842:/usr/arm-none-eabi/include/c++/15.2.0/bits/alloc_traits.h ****     _GLIBCXX14_CONSTEXPR inline void
 843:/usr/arm-none-eabi/include/c++/15.2.0/bits/alloc_traits.h ****     __alloc_on_copy(_Alloc& __one, const _Alloc& __two)
 844:/usr/arm-none-eabi/include/c++/15.2.0/bits/alloc_traits.h ****     {
 845:/usr/arm-none-eabi/include/c++/15.2.0/bits/alloc_traits.h ****       using __traits = allocator_traits<_Alloc>;
 846:/usr/arm-none-eabi/include/c++/15.2.0/bits/alloc_traits.h ****       using __pocca =
 847:/usr/arm-none-eabi/include/c++/15.2.0/bits/alloc_traits.h **** 	typename __traits::propagate_on_container_copy_assignment::type;
 848:/usr/arm-none-eabi/include/c++/15.2.0/bits/alloc_traits.h ****       if constexpr (__pocca::value)
 849:/usr/arm-none-eabi/include/c++/15.2.0/bits/alloc_traits.h **** 	__one = __two;
 850:/usr/arm-none-eabi/include/c++/15.2.0/bits/alloc_traits.h ****     }
 851:/usr/arm-none-eabi/include/c++/15.2.0/bits/alloc_traits.h **** 
 852:/usr/arm-none-eabi/include/c++/15.2.0/bits/alloc_traits.h ****   template<typename _Alloc>
 853:/usr/arm-none-eabi/include/c++/15.2.0/bits/alloc_traits.h ****     [[__gnu__::__always_inline__]]
 854:/usr/arm-none-eabi/include/c++/15.2.0/bits/alloc_traits.h ****     constexpr _Alloc
 855:/usr/arm-none-eabi/include/c++/15.2.0/bits/alloc_traits.h ****     __alloc_on_copy(const _Alloc& __a)
 856:/usr/arm-none-eabi/include/c++/15.2.0/bits/alloc_traits.h ****     {
 857:/usr/arm-none-eabi/include/c++/15.2.0/bits/alloc_traits.h ****       typedef allocator_traits<_Alloc> __traits;
 858:/usr/arm-none-eabi/include/c++/15.2.0/bits/alloc_traits.h ****       return __traits::select_on_container_copy_construction(__a);
 859:/usr/arm-none-eabi/include/c++/15.2.0/bits/alloc_traits.h ****     }
 860:/usr/arm-none-eabi/include/c++/15.2.0/bits/alloc_traits.h **** 
 861:/usr/arm-none-eabi/include/c++/15.2.0/bits/alloc_traits.h ****   template<typename _Alloc>
 862:/usr/arm-none-eabi/include/c++/15.2.0/bits/alloc_traits.h ****     [[__gnu__::__always_inline__]]
 863:/usr/arm-none-eabi/include/c++/15.2.0/bits/alloc_traits.h ****     _GLIBCXX14_CONSTEXPR inline void
 864:/usr/arm-none-eabi/include/c++/15.2.0/bits/alloc_traits.h ****     __alloc_on_move(_Alloc& __one, _Alloc& __two)
 865:/usr/arm-none-eabi/include/c++/15.2.0/bits/alloc_traits.h ****     {
 866:/usr/arm-none-eabi/include/c++/15.2.0/bits/alloc_traits.h ****       using __traits = allocator_traits<_Alloc>;
 867:/usr/arm-none-eabi/include/c++/15.2.0/bits/alloc_traits.h ****       using __pocma
ARM GAS  /tmp/ccxXSPX2.s 			page 41


 868:/usr/arm-none-eabi/include/c++/15.2.0/bits/alloc_traits.h **** 	= typename __traits::propagate_on_container_move_assignment::type;
 869:/usr/arm-none-eabi/include/c++/15.2.0/bits/alloc_traits.h ****       if constexpr (__pocma::value)
 870:/usr/arm-none-eabi/include/c++/15.2.0/bits/alloc_traits.h **** 	__one = std::move(__two);
 871:/usr/arm-none-eabi/include/c++/15.2.0/bits/alloc_traits.h ****     }
 872:/usr/arm-none-eabi/include/c++/15.2.0/bits/alloc_traits.h **** 
 873:/usr/arm-none-eabi/include/c++/15.2.0/bits/alloc_traits.h ****   template<typename _Alloc>
 874:/usr/arm-none-eabi/include/c++/15.2.0/bits/alloc_traits.h ****     [[__gnu__::__always_inline__]]
 875:/usr/arm-none-eabi/include/c++/15.2.0/bits/alloc_traits.h ****     _GLIBCXX14_CONSTEXPR inline void
 876:/usr/arm-none-eabi/include/c++/15.2.0/bits/alloc_traits.h ****     __alloc_on_swap(_Alloc& __one, _Alloc& __two)
 877:/usr/arm-none-eabi/include/c++/15.2.0/bits/alloc_traits.h ****     {
 878:/usr/arm-none-eabi/include/c++/15.2.0/bits/alloc_traits.h ****       using __traits = allocator_traits<_Alloc>;
 879:/usr/arm-none-eabi/include/c++/15.2.0/bits/alloc_traits.h ****       using __pocs = typename __traits::propagate_on_container_swap::type;
 880:/usr/arm-none-eabi/include/c++/15.2.0/bits/alloc_traits.h ****       if constexpr (__pocs::value)
 881:/usr/arm-none-eabi/include/c++/15.2.0/bits/alloc_traits.h **** 	{
 882:/usr/arm-none-eabi/include/c++/15.2.0/bits/alloc_traits.h **** 	  using std::swap;
 883:/usr/arm-none-eabi/include/c++/15.2.0/bits/alloc_traits.h **** 	  swap(__one, __two);
 884:/usr/arm-none-eabi/include/c++/15.2.0/bits/alloc_traits.h **** 	}
 885:/usr/arm-none-eabi/include/c++/15.2.0/bits/alloc_traits.h ****     }
 886:/usr/arm-none-eabi/include/c++/15.2.0/bits/alloc_traits.h **** #pragma GCC diagnostic pop
 887:/usr/arm-none-eabi/include/c++/15.2.0/bits/alloc_traits.h **** 
 888:/usr/arm-none-eabi/include/c++/15.2.0/bits/alloc_traits.h ****   template<typename _Alloc, typename _Tp,
 889:/usr/arm-none-eabi/include/c++/15.2.0/bits/alloc_traits.h **** 	   typename _ValueT = __remove_cvref_t<typename _Alloc::value_type>,
 890:/usr/arm-none-eabi/include/c++/15.2.0/bits/alloc_traits.h **** 	   typename = void>
 891:/usr/arm-none-eabi/include/c++/15.2.0/bits/alloc_traits.h ****     struct __is_alloc_insertable_impl
 892:/usr/arm-none-eabi/include/c++/15.2.0/bits/alloc_traits.h ****     : false_type
 893:/usr/arm-none-eabi/include/c++/15.2.0/bits/alloc_traits.h ****     { };
 894:/usr/arm-none-eabi/include/c++/15.2.0/bits/alloc_traits.h **** 
 895:/usr/arm-none-eabi/include/c++/15.2.0/bits/alloc_traits.h ****   template<typename _Alloc, typename _Tp, typename _ValueT>
 896:/usr/arm-none-eabi/include/c++/15.2.0/bits/alloc_traits.h ****     struct __is_alloc_insertable_impl<_Alloc, _Tp, _ValueT,
 897:/usr/arm-none-eabi/include/c++/15.2.0/bits/alloc_traits.h ****       __void_t<decltype(allocator_traits<_Alloc>::construct(
 898:/usr/arm-none-eabi/include/c++/15.2.0/bits/alloc_traits.h **** 		   std::declval<_Alloc&>(), std::declval<_ValueT*>(),
 899:/usr/arm-none-eabi/include/c++/15.2.0/bits/alloc_traits.h **** 		   std::declval<_Tp>()))>>
 900:/usr/arm-none-eabi/include/c++/15.2.0/bits/alloc_traits.h ****     : true_type
 901:/usr/arm-none-eabi/include/c++/15.2.0/bits/alloc_traits.h ****     { };
 902:/usr/arm-none-eabi/include/c++/15.2.0/bits/alloc_traits.h **** 
 903:/usr/arm-none-eabi/include/c++/15.2.0/bits/alloc_traits.h ****   // true if _Alloc::value_type is CopyInsertable into containers using _Alloc
 904:/usr/arm-none-eabi/include/c++/15.2.0/bits/alloc_traits.h ****   // (might be wrong if _Alloc::construct exists but is not constrained,
 905:/usr/arm-none-eabi/include/c++/15.2.0/bits/alloc_traits.h ****   // i.e. actually trying to use it would still be invalid. Use with caution.)
 906:/usr/arm-none-eabi/include/c++/15.2.0/bits/alloc_traits.h ****   template<typename _Alloc>
 907:/usr/arm-none-eabi/include/c++/15.2.0/bits/alloc_traits.h ****     struct __is_copy_insertable
 908:/usr/arm-none-eabi/include/c++/15.2.0/bits/alloc_traits.h ****     : __is_alloc_insertable_impl<_Alloc,
 909:/usr/arm-none-eabi/include/c++/15.2.0/bits/alloc_traits.h **** 				 typename _Alloc::value_type const&>::type
 910:/usr/arm-none-eabi/include/c++/15.2.0/bits/alloc_traits.h ****     { };
 911:/usr/arm-none-eabi/include/c++/15.2.0/bits/alloc_traits.h **** 
 912:/usr/arm-none-eabi/include/c++/15.2.0/bits/alloc_traits.h **** #if _GLIBCXX_HOSTED
 913:/usr/arm-none-eabi/include/c++/15.2.0/bits/alloc_traits.h ****   // std::allocator<_Tp> just requires CopyConstructible
 914:/usr/arm-none-eabi/include/c++/15.2.0/bits/alloc_traits.h ****   template<typename _Tp>
 915:/usr/arm-none-eabi/include/c++/15.2.0/bits/alloc_traits.h ****     struct __is_copy_insertable<allocator<_Tp>>
 916:/usr/arm-none-eabi/include/c++/15.2.0/bits/alloc_traits.h ****     : is_copy_constructible<_Tp>
 917:/usr/arm-none-eabi/include/c++/15.2.0/bits/alloc_traits.h ****     { };
 918:/usr/arm-none-eabi/include/c++/15.2.0/bits/alloc_traits.h **** #endif
 919:/usr/arm-none-eabi/include/c++/15.2.0/bits/alloc_traits.h **** 
 920:/usr/arm-none-eabi/include/c++/15.2.0/bits/alloc_traits.h ****   // true if _Alloc::value_type is MoveInsertable into containers using _Alloc
 921:/usr/arm-none-eabi/include/c++/15.2.0/bits/alloc_traits.h ****   // (might be wrong if _Alloc::construct exists but is not constrained,
 922:/usr/arm-none-eabi/include/c++/15.2.0/bits/alloc_traits.h ****   // i.e. actually trying to use it would still be invalid. Use with caution.)
 923:/usr/arm-none-eabi/include/c++/15.2.0/bits/alloc_traits.h ****   template<typename _Alloc>
 924:/usr/arm-none-eabi/include/c++/15.2.0/bits/alloc_traits.h ****     struct __is_move_insertable
ARM GAS  /tmp/ccxXSPX2.s 			page 42


 925:/usr/arm-none-eabi/include/c++/15.2.0/bits/alloc_traits.h ****     : __is_alloc_insertable_impl<_Alloc, typename _Alloc::value_type>::type
 926:/usr/arm-none-eabi/include/c++/15.2.0/bits/alloc_traits.h ****     { };
 927:/usr/arm-none-eabi/include/c++/15.2.0/bits/alloc_traits.h **** 
 928:/usr/arm-none-eabi/include/c++/15.2.0/bits/alloc_traits.h **** #if _GLIBCXX_HOSTED
 929:/usr/arm-none-eabi/include/c++/15.2.0/bits/alloc_traits.h ****   // std::allocator<_Tp> just requires MoveConstructible
 930:/usr/arm-none-eabi/include/c++/15.2.0/bits/alloc_traits.h ****   template<typename _Tp>
 931:/usr/arm-none-eabi/include/c++/15.2.0/bits/alloc_traits.h ****     struct __is_move_insertable<allocator<_Tp>>
 932:/usr/arm-none-eabi/include/c++/15.2.0/bits/alloc_traits.h ****     : is_move_constructible<_Tp>
 933:/usr/arm-none-eabi/include/c++/15.2.0/bits/alloc_traits.h ****     { };
 934:/usr/arm-none-eabi/include/c++/15.2.0/bits/alloc_traits.h **** #endif
 935:/usr/arm-none-eabi/include/c++/15.2.0/bits/alloc_traits.h **** 
 936:/usr/arm-none-eabi/include/c++/15.2.0/bits/alloc_traits.h ****   // Trait to detect Allocator-like types.
 937:/usr/arm-none-eabi/include/c++/15.2.0/bits/alloc_traits.h ****   template<typename _Alloc, typename = void>
 938:/usr/arm-none-eabi/include/c++/15.2.0/bits/alloc_traits.h ****     struct __is_allocator : false_type { };
 939:/usr/arm-none-eabi/include/c++/15.2.0/bits/alloc_traits.h **** 
 940:/usr/arm-none-eabi/include/c++/15.2.0/bits/alloc_traits.h ****   template<typename _Alloc>
 941:/usr/arm-none-eabi/include/c++/15.2.0/bits/alloc_traits.h ****     struct __is_allocator<_Alloc,
 942:/usr/arm-none-eabi/include/c++/15.2.0/bits/alloc_traits.h ****       __void_t<typename _Alloc::value_type,
 943:/usr/arm-none-eabi/include/c++/15.2.0/bits/alloc_traits.h **** 	       decltype(std::declval<_Alloc&>().allocate(size_t{}))>>
 944:/usr/arm-none-eabi/include/c++/15.2.0/bits/alloc_traits.h ****     : true_type { };
 945:/usr/arm-none-eabi/include/c++/15.2.0/bits/alloc_traits.h **** 
 946:/usr/arm-none-eabi/include/c++/15.2.0/bits/alloc_traits.h ****   template<typename _Alloc>
 947:/usr/arm-none-eabi/include/c++/15.2.0/bits/alloc_traits.h ****     using _RequireAllocator
 948:/usr/arm-none-eabi/include/c++/15.2.0/bits/alloc_traits.h ****       = typename enable_if<__is_allocator<_Alloc>::value, _Alloc>::type;
 949:/usr/arm-none-eabi/include/c++/15.2.0/bits/alloc_traits.h **** 
 950:/usr/arm-none-eabi/include/c++/15.2.0/bits/alloc_traits.h ****   template<typename _Alloc>
 951:/usr/arm-none-eabi/include/c++/15.2.0/bits/alloc_traits.h ****     using _RequireNotAllocator
 952:/usr/arm-none-eabi/include/c++/15.2.0/bits/alloc_traits.h ****       = typename enable_if<!__is_allocator<_Alloc>::value, _Alloc>::type;
 953:/usr/arm-none-eabi/include/c++/15.2.0/bits/alloc_traits.h **** 
 954:/usr/arm-none-eabi/include/c++/15.2.0/bits/alloc_traits.h **** #if __cpp_concepts >= 201907L
 955:/usr/arm-none-eabi/include/c++/15.2.0/bits/alloc_traits.h ****   template<typename _Alloc>
 956:/usr/arm-none-eabi/include/c++/15.2.0/bits/alloc_traits.h ****     concept __allocator_like = requires (_Alloc& __a) {
 957:/usr/arm-none-eabi/include/c++/15.2.0/bits/alloc_traits.h ****       typename _Alloc::value_type;
 958:/usr/arm-none-eabi/include/c++/15.2.0/bits/alloc_traits.h ****       __a.deallocate(__a.allocate(1u), 1u);
 959:/usr/arm-none-eabi/include/c++/15.2.0/bits/alloc_traits.h ****     };
 960:/usr/arm-none-eabi/include/c++/15.2.0/bits/alloc_traits.h **** 
 961:/usr/arm-none-eabi/include/c++/15.2.0/bits/alloc_traits.h ****   template<typename _Alloc>
 962:/usr/arm-none-eabi/include/c++/15.2.0/bits/alloc_traits.h ****     concept __not_allocator_like = !__allocator_like<_Alloc>;
 963:/usr/arm-none-eabi/include/c++/15.2.0/bits/alloc_traits.h **** #endif
 964:/usr/arm-none-eabi/include/c++/15.2.0/bits/alloc_traits.h ****   /// @endcond
 965:/usr/arm-none-eabi/include/c++/15.2.0/bits/alloc_traits.h **** #endif // C++11
 966:/usr/arm-none-eabi/include/c++/15.2.0/bits/alloc_traits.h **** 
 967:/usr/arm-none-eabi/include/c++/15.2.0/bits/alloc_traits.h ****   /// @cond undocumented
 968:/usr/arm-none-eabi/include/c++/15.2.0/bits/alloc_traits.h **** 
 969:/usr/arm-none-eabi/include/c++/15.2.0/bits/alloc_traits.h ****   // To implement Option 3 of DR 431.
 970:/usr/arm-none-eabi/include/c++/15.2.0/bits/alloc_traits.h ****   template<typename _Alloc, bool = __is_empty(_Alloc)>
 971:/usr/arm-none-eabi/include/c++/15.2.0/bits/alloc_traits.h ****     struct __alloc_swap
 972:/usr/arm-none-eabi/include/c++/15.2.0/bits/alloc_traits.h ****     { static void _S_do_it(_Alloc&, _Alloc&) _GLIBCXX_NOEXCEPT { } };
 973:/usr/arm-none-eabi/include/c++/15.2.0/bits/alloc_traits.h **** 
 974:/usr/arm-none-eabi/include/c++/15.2.0/bits/alloc_traits.h ****   template<typename _Alloc>
 975:/usr/arm-none-eabi/include/c++/15.2.0/bits/alloc_traits.h ****     struct __alloc_swap<_Alloc, false>
 976:/usr/arm-none-eabi/include/c++/15.2.0/bits/alloc_traits.h ****     {
 977:/usr/arm-none-eabi/include/c++/15.2.0/bits/alloc_traits.h ****       static void
 978:/usr/arm-none-eabi/include/c++/15.2.0/bits/alloc_traits.h ****       _S_do_it(_Alloc& __one, _Alloc& __two) _GLIBCXX_NOEXCEPT
 979:/usr/arm-none-eabi/include/c++/15.2.0/bits/alloc_traits.h ****       {
 980:/usr/arm-none-eabi/include/c++/15.2.0/bits/alloc_traits.h **** 	// Precondition: swappable allocators.
 981:/usr/arm-none-eabi/include/c++/15.2.0/bits/alloc_traits.h **** 	if (__one != __two)
ARM GAS  /tmp/ccxXSPX2.s 			page 43


 982:/usr/arm-none-eabi/include/c++/15.2.0/bits/alloc_traits.h **** 	  swap(__one, __two);
 983:/usr/arm-none-eabi/include/c++/15.2.0/bits/alloc_traits.h ****       }
 984:/usr/arm-none-eabi/include/c++/15.2.0/bits/alloc_traits.h ****     };
 985:/usr/arm-none-eabi/include/c++/15.2.0/bits/alloc_traits.h **** 
 986:/usr/arm-none-eabi/include/c++/15.2.0/bits/alloc_traits.h **** #if __cplusplus >= 201103L
 987:/usr/arm-none-eabi/include/c++/15.2.0/bits/alloc_traits.h ****   template<typename _Tp, bool
 988:/usr/arm-none-eabi/include/c++/15.2.0/bits/alloc_traits.h ****     = __or_<is_copy_constructible<typename _Tp::value_type>,
 989:/usr/arm-none-eabi/include/c++/15.2.0/bits/alloc_traits.h ****             is_nothrow_move_constructible<typename _Tp::value_type>>::value>
 990:/usr/arm-none-eabi/include/c++/15.2.0/bits/alloc_traits.h ****     struct __shrink_to_fit_aux
 991:/usr/arm-none-eabi/include/c++/15.2.0/bits/alloc_traits.h ****     { static bool _S_do_it(_Tp&) noexcept { return false; } };
 992:/usr/arm-none-eabi/include/c++/15.2.0/bits/alloc_traits.h **** 
 993:/usr/arm-none-eabi/include/c++/15.2.0/bits/alloc_traits.h ****   template<typename _Tp>
 994:/usr/arm-none-eabi/include/c++/15.2.0/bits/alloc_traits.h ****     struct __shrink_to_fit_aux<_Tp, true>
 995:/usr/arm-none-eabi/include/c++/15.2.0/bits/alloc_traits.h ****     {
 996:/usr/arm-none-eabi/include/c++/15.2.0/bits/alloc_traits.h ****       _GLIBCXX20_CONSTEXPR
 997:/usr/arm-none-eabi/include/c++/15.2.0/bits/alloc_traits.h ****       static bool
 998:/usr/arm-none-eabi/include/c++/15.2.0/bits/alloc_traits.h ****       _S_do_it(_Tp& __c) noexcept
 999:/usr/arm-none-eabi/include/c++/15.2.0/bits/alloc_traits.h ****       {
1000:/usr/arm-none-eabi/include/c++/15.2.0/bits/alloc_traits.h **** #if __cpp_exceptions
1001:/usr/arm-none-eabi/include/c++/15.2.0/bits/alloc_traits.h **** 	try
1002:/usr/arm-none-eabi/include/c++/15.2.0/bits/alloc_traits.h **** 	  {
1003:/usr/arm-none-eabi/include/c++/15.2.0/bits/alloc_traits.h **** 	    _Tp(__make_move_if_noexcept_iterator(__c.begin()),
1004:/usr/arm-none-eabi/include/c++/15.2.0/bits/alloc_traits.h **** 		__make_move_if_noexcept_iterator(__c.end()),
1005:/usr/arm-none-eabi/include/c++/15.2.0/bits/alloc_traits.h **** 		__c.get_allocator()).swap(__c);
1006:/usr/arm-none-eabi/include/c++/15.2.0/bits/alloc_traits.h **** 	    return true;
1007:/usr/arm-none-eabi/include/c++/15.2.0/bits/alloc_traits.h **** 	  }
1008:/usr/arm-none-eabi/include/c++/15.2.0/bits/alloc_traits.h **** 	catch(...)
1009:/usr/arm-none-eabi/include/c++/15.2.0/bits/alloc_traits.h **** 	  { return false; }
1010:/usr/arm-none-eabi/include/c++/15.2.0/bits/alloc_traits.h **** #else
1011:/usr/arm-none-eabi/include/c++/15.2.0/bits/alloc_traits.h **** 	return false;
1012:/usr/arm-none-eabi/include/c++/15.2.0/bits/alloc_traits.h **** #endif
1013:/usr/arm-none-eabi/include/c++/15.2.0/bits/alloc_traits.h ****       }
1014:/usr/arm-none-eabi/include/c++/15.2.0/bits/alloc_traits.h ****     };
1015:/usr/arm-none-eabi/include/c++/15.2.0/bits/alloc_traits.h **** #endif
1016:/usr/arm-none-eabi/include/c++/15.2.0/bits/alloc_traits.h **** 
1017:/usr/arm-none-eabi/include/c++/15.2.0/bits/alloc_traits.h ****   /**
1018:/usr/arm-none-eabi/include/c++/15.2.0/bits/alloc_traits.h ****    * Destroy a range of objects using the supplied allocator.  For
1019:/usr/arm-none-eabi/include/c++/15.2.0/bits/alloc_traits.h ****    * non-default allocators we do not optimize away invocation of
1020:/usr/arm-none-eabi/include/c++/15.2.0/bits/alloc_traits.h ****    * destroy() even if _Tp has a trivial destructor.
1021:/usr/arm-none-eabi/include/c++/15.2.0/bits/alloc_traits.h ****    */
1022:/usr/arm-none-eabi/include/c++/15.2.0/bits/alloc_traits.h **** 
1023:/usr/arm-none-eabi/include/c++/15.2.0/bits/alloc_traits.h ****   template<typename _ForwardIterator, typename _Allocator>
1024:/usr/arm-none-eabi/include/c++/15.2.0/bits/alloc_traits.h ****     _GLIBCXX20_CONSTEXPR
1025:/usr/arm-none-eabi/include/c++/15.2.0/bits/alloc_traits.h ****     void
1026:/usr/arm-none-eabi/include/c++/15.2.0/bits/alloc_traits.h ****     _Destroy(_ForwardIterator __first, _ForwardIterator __last,
1027:/usr/arm-none-eabi/include/c++/15.2.0/bits/alloc_traits.h **** 	     _Allocator& __alloc)
1028:/usr/arm-none-eabi/include/c++/15.2.0/bits/alloc_traits.h ****     {
1029:/usr/arm-none-eabi/include/c++/15.2.0/bits/alloc_traits.h ****       for (; __first != __last; ++__first)
1030:/usr/arm-none-eabi/include/c++/15.2.0/bits/alloc_traits.h **** #if __cplusplus < 201103L
1031:/usr/arm-none-eabi/include/c++/15.2.0/bits/alloc_traits.h **** 	__alloc.destroy(std::__addressof(*__first));
1032:/usr/arm-none-eabi/include/c++/15.2.0/bits/alloc_traits.h **** #else
1033:/usr/arm-none-eabi/include/c++/15.2.0/bits/alloc_traits.h **** 	allocator_traits<_Allocator>::destroy(__alloc,
1034:/usr/arm-none-eabi/include/c++/15.2.0/bits/alloc_traits.h **** 					      std::__addressof(*__first));
1035:/usr/arm-none-eabi/include/c++/15.2.0/bits/alloc_traits.h **** #endif
1036:/usr/arm-none-eabi/include/c++/15.2.0/bits/alloc_traits.h ****     }
1037:/usr/arm-none-eabi/include/c++/15.2.0/bits/alloc_traits.h **** 
1038:/usr/arm-none-eabi/include/c++/15.2.0/bits/alloc_traits.h **** #if _GLIBCXX_HOSTED
ARM GAS  /tmp/ccxXSPX2.s 			page 44


1039:/usr/arm-none-eabi/include/c++/15.2.0/bits/alloc_traits.h ****   template<typename _ForwardIterator, typename _Tp>
1040:/usr/arm-none-eabi/include/c++/15.2.0/bits/alloc_traits.h ****     __attribute__((__always_inline__)) _GLIBCXX20_CONSTEXPR
1041:/usr/arm-none-eabi/include/c++/15.2.0/bits/alloc_traits.h ****     inline void
1042:/usr/arm-none-eabi/include/c++/15.2.0/bits/alloc_traits.h ****     _Destroy(_ForwardIterator __first, _ForwardIterator __last,
 277              		.loc 7 1042 5 is_stmt 1 view .LVU65
 278              		.loc 7 1042 5 is_stmt 0 view .LVU66
 279              	.LBE972:
 280              	.LBB973:
 281              	.LBI973:
 373:/usr/arm-none-eabi/include/c++/15.2.0/bits/stl_vector.h ****       {
 282              		.loc 6 373 7 is_stmt 1 view .LVU67
 283              	.LBB974:
 375:/usr/arm-none-eabi/include/c++/15.2.0/bits/stl_vector.h **** 		      _M_impl._M_end_of_storage - _M_impl._M_start);
 284              		.loc 6 375 15 is_stmt 0 view .LVU68
 285 0004 D0F8A801 		ldr	r0, [r0, #424]
 286              	.LVL17:
 287              	.LBB975:
 288              	.LBI975:
 392:/usr/arm-none-eabi/include/c++/15.2.0/bits/stl_vector.h ****       {
 289              		.loc 6 392 7 is_stmt 1 view .LVU69
 290              	.LBB976:
 395:/usr/arm-none-eabi/include/c++/15.2.0/bits/stl_vector.h **** 	  _Tr::deallocate(_M_impl, __p, __n);
 291              		.loc 6 395 2 is_stmt 0 view .LVU70
 292 0008 20B1     		cbz	r0, .L22
 293              	.LVL18:
 294              	.LBB977:
 295              	.LBI977:
 392:/usr/arm-none-eabi/include/c++/15.2.0/bits/stl_vector.h ****       {
 296              		.loc 6 392 7 is_stmt 1 view .LVU71
 297              	.LBB978:
 298              	.LBB979:
 299              	.LBI979:
 648:/usr/arm-none-eabi/include/c++/15.2.0/bits/alloc_traits.h ****       { __a.deallocate(__p, __n); }
 300              		.loc 7 648 7 view .LVU72
 301              	.LBB980:
 302              	.LBI980:
 303              		.file 8 "/usr/arm-none-eabi/include/c++/15.2.0/bits/allocator.h"
   1:/usr/arm-none-eabi/include/c++/15.2.0/bits/allocator.h **** // Allocators -*- C++ -*-
   2:/usr/arm-none-eabi/include/c++/15.2.0/bits/allocator.h **** 
   3:/usr/arm-none-eabi/include/c++/15.2.0/bits/allocator.h **** // Copyright (C) 2001-2025 Free Software Foundation, Inc.
   4:/usr/arm-none-eabi/include/c++/15.2.0/bits/allocator.h **** //
   5:/usr/arm-none-eabi/include/c++/15.2.0/bits/allocator.h **** // This file is part of the GNU ISO C++ Library.  This library is free
   6:/usr/arm-none-eabi/include/c++/15.2.0/bits/allocator.h **** // software; you can redistribute it and/or modify it under the
   7:/usr/arm-none-eabi/include/c++/15.2.0/bits/allocator.h **** // terms of the GNU General Public License as published by the
   8:/usr/arm-none-eabi/include/c++/15.2.0/bits/allocator.h **** // Free Software Foundation; either version 3, or (at your option)
   9:/usr/arm-none-eabi/include/c++/15.2.0/bits/allocator.h **** // any later version.
  10:/usr/arm-none-eabi/include/c++/15.2.0/bits/allocator.h **** 
  11:/usr/arm-none-eabi/include/c++/15.2.0/bits/allocator.h **** // This library is distributed in the hope that it will be useful,
  12:/usr/arm-none-eabi/include/c++/15.2.0/bits/allocator.h **** // but WITHOUT ANY WARRANTY; without even the implied warranty of
  13:/usr/arm-none-eabi/include/c++/15.2.0/bits/allocator.h **** // MERCHANTABILITY or FITNESS FOR A PARTICULAR PURPOSE.  See the
  14:/usr/arm-none-eabi/include/c++/15.2.0/bits/allocator.h **** // GNU General Public License for more details.
  15:/usr/arm-none-eabi/include/c++/15.2.0/bits/allocator.h **** 
  16:/usr/arm-none-eabi/include/c++/15.2.0/bits/allocator.h **** // Under Section 7 of GPL version 3, you are granted additional
  17:/usr/arm-none-eabi/include/c++/15.2.0/bits/allocator.h **** // permissions described in the GCC Runtime Library Exception, version
  18:/usr/arm-none-eabi/include/c++/15.2.0/bits/allocator.h **** // 3.1, as published by the Free Software Foundation.
  19:/usr/arm-none-eabi/include/c++/15.2.0/bits/allocator.h **** 
  20:/usr/arm-none-eabi/include/c++/15.2.0/bits/allocator.h **** // You should have received a copy of the GNU General Public License and
ARM GAS  /tmp/ccxXSPX2.s 			page 45


  21:/usr/arm-none-eabi/include/c++/15.2.0/bits/allocator.h **** // a copy of the GCC Runtime Library Exception along with this program;
  22:/usr/arm-none-eabi/include/c++/15.2.0/bits/allocator.h **** // see the files COPYING3 and COPYING.RUNTIME respectively.  If not, see
  23:/usr/arm-none-eabi/include/c++/15.2.0/bits/allocator.h **** // <http://www.gnu.org/licenses/>.
  24:/usr/arm-none-eabi/include/c++/15.2.0/bits/allocator.h **** 
  25:/usr/arm-none-eabi/include/c++/15.2.0/bits/allocator.h **** /*
  26:/usr/arm-none-eabi/include/c++/15.2.0/bits/allocator.h ****  * Copyright (c) 1996-1997
  27:/usr/arm-none-eabi/include/c++/15.2.0/bits/allocator.h ****  * Silicon Graphics Computer Systems, Inc.
  28:/usr/arm-none-eabi/include/c++/15.2.0/bits/allocator.h ****  *
  29:/usr/arm-none-eabi/include/c++/15.2.0/bits/allocator.h ****  * Permission to use, copy, modify, distribute and sell this software
  30:/usr/arm-none-eabi/include/c++/15.2.0/bits/allocator.h ****  * and its documentation for any purpose is hereby granted without fee,
  31:/usr/arm-none-eabi/include/c++/15.2.0/bits/allocator.h ****  * provided that the above copyright notice appear in all copies and
  32:/usr/arm-none-eabi/include/c++/15.2.0/bits/allocator.h ****  * that both that copyright notice and this permission notice appear
  33:/usr/arm-none-eabi/include/c++/15.2.0/bits/allocator.h ****  * in supporting documentation.  Silicon Graphics makes no
  34:/usr/arm-none-eabi/include/c++/15.2.0/bits/allocator.h ****  * representations about the suitability of this software for any
  35:/usr/arm-none-eabi/include/c++/15.2.0/bits/allocator.h ****  * purpose.  It is provided "as is" without express or implied warranty.
  36:/usr/arm-none-eabi/include/c++/15.2.0/bits/allocator.h ****  */
  37:/usr/arm-none-eabi/include/c++/15.2.0/bits/allocator.h **** 
  38:/usr/arm-none-eabi/include/c++/15.2.0/bits/allocator.h **** /** @file bits/allocator.h
  39:/usr/arm-none-eabi/include/c++/15.2.0/bits/allocator.h ****  *  This is an internal header file, included by other library headers.
  40:/usr/arm-none-eabi/include/c++/15.2.0/bits/allocator.h ****  *  Do not attempt to use it directly. @headername{memory}
  41:/usr/arm-none-eabi/include/c++/15.2.0/bits/allocator.h ****  */
  42:/usr/arm-none-eabi/include/c++/15.2.0/bits/allocator.h **** 
  43:/usr/arm-none-eabi/include/c++/15.2.0/bits/allocator.h **** #ifndef _ALLOCATOR_H
  44:/usr/arm-none-eabi/include/c++/15.2.0/bits/allocator.h **** #define _ALLOCATOR_H 1
  45:/usr/arm-none-eabi/include/c++/15.2.0/bits/allocator.h **** 
  46:/usr/arm-none-eabi/include/c++/15.2.0/bits/allocator.h **** #include <bits/c++allocator.h> // Define the base class to std::allocator.
  47:/usr/arm-none-eabi/include/c++/15.2.0/bits/allocator.h **** #include <bits/memoryfwd.h>
  48:/usr/arm-none-eabi/include/c++/15.2.0/bits/allocator.h **** #if __cplusplus >= 201103L
  49:/usr/arm-none-eabi/include/c++/15.2.0/bits/allocator.h **** #include <type_traits>
  50:/usr/arm-none-eabi/include/c++/15.2.0/bits/allocator.h **** #endif
  51:/usr/arm-none-eabi/include/c++/15.2.0/bits/allocator.h **** 
  52:/usr/arm-none-eabi/include/c++/15.2.0/bits/allocator.h **** #pragma GCC diagnostic push
  53:/usr/arm-none-eabi/include/c++/15.2.0/bits/allocator.h **** #pragma GCC diagnostic ignored "-Wc++11-extensions"
  54:/usr/arm-none-eabi/include/c++/15.2.0/bits/allocator.h **** 
  55:/usr/arm-none-eabi/include/c++/15.2.0/bits/allocator.h **** namespace std _GLIBCXX_VISIBILITY(default)
  56:/usr/arm-none-eabi/include/c++/15.2.0/bits/allocator.h **** {
  57:/usr/arm-none-eabi/include/c++/15.2.0/bits/allocator.h **** _GLIBCXX_BEGIN_NAMESPACE_VERSION
  58:/usr/arm-none-eabi/include/c++/15.2.0/bits/allocator.h **** 
  59:/usr/arm-none-eabi/include/c++/15.2.0/bits/allocator.h ****   /**
  60:/usr/arm-none-eabi/include/c++/15.2.0/bits/allocator.h ****    *  @addtogroup allocators
  61:/usr/arm-none-eabi/include/c++/15.2.0/bits/allocator.h ****    *  @{
  62:/usr/arm-none-eabi/include/c++/15.2.0/bits/allocator.h ****    */
  63:/usr/arm-none-eabi/include/c++/15.2.0/bits/allocator.h **** 
  64:/usr/arm-none-eabi/include/c++/15.2.0/bits/allocator.h ****   // Since C++20 the primary template should be used for allocator<void>,
  65:/usr/arm-none-eabi/include/c++/15.2.0/bits/allocator.h ****   // but then it would have a non-trivial default ctor and dtor for C++20,
  66:/usr/arm-none-eabi/include/c++/15.2.0/bits/allocator.h ****   // but trivial for C++98-17, which would be an ABI incompatibility between
  67:/usr/arm-none-eabi/include/c++/15.2.0/bits/allocator.h ****   // different standard dialects. So C++20 still uses the allocator<void>
  68:/usr/arm-none-eabi/include/c++/15.2.0/bits/allocator.h ****   // explicit specialization, with the historical ABI properties, but with
  69:/usr/arm-none-eabi/include/c++/15.2.0/bits/allocator.h ****   // the same members that are present in the primary template.
  70:/usr/arm-none-eabi/include/c++/15.2.0/bits/allocator.h **** 
  71:/usr/arm-none-eabi/include/c++/15.2.0/bits/allocator.h ****   /** std::allocator<void> specialization.
  72:/usr/arm-none-eabi/include/c++/15.2.0/bits/allocator.h ****    *
  73:/usr/arm-none-eabi/include/c++/15.2.0/bits/allocator.h ****    * @headerfile memory
  74:/usr/arm-none-eabi/include/c++/15.2.0/bits/allocator.h ****    */
  75:/usr/arm-none-eabi/include/c++/15.2.0/bits/allocator.h ****   template<>
  76:/usr/arm-none-eabi/include/c++/15.2.0/bits/allocator.h ****     class allocator<void>
  77:/usr/arm-none-eabi/include/c++/15.2.0/bits/allocator.h ****     {
ARM GAS  /tmp/ccxXSPX2.s 			page 46


  78:/usr/arm-none-eabi/include/c++/15.2.0/bits/allocator.h ****     public:
  79:/usr/arm-none-eabi/include/c++/15.2.0/bits/allocator.h ****       typedef void        value_type;
  80:/usr/arm-none-eabi/include/c++/15.2.0/bits/allocator.h ****       typedef size_t      size_type;
  81:/usr/arm-none-eabi/include/c++/15.2.0/bits/allocator.h ****       typedef ptrdiff_t   difference_type;
  82:/usr/arm-none-eabi/include/c++/15.2.0/bits/allocator.h **** 
  83:/usr/arm-none-eabi/include/c++/15.2.0/bits/allocator.h **** #if __cplusplus <= 201703L
  84:/usr/arm-none-eabi/include/c++/15.2.0/bits/allocator.h ****       // These were removed for C++20, allocator_traits does the right thing.
  85:/usr/arm-none-eabi/include/c++/15.2.0/bits/allocator.h ****       typedef void*       pointer;
  86:/usr/arm-none-eabi/include/c++/15.2.0/bits/allocator.h ****       typedef const void* const_pointer;
  87:/usr/arm-none-eabi/include/c++/15.2.0/bits/allocator.h **** 
  88:/usr/arm-none-eabi/include/c++/15.2.0/bits/allocator.h ****       template<typename _Tp1>
  89:/usr/arm-none-eabi/include/c++/15.2.0/bits/allocator.h **** 	struct rebind
  90:/usr/arm-none-eabi/include/c++/15.2.0/bits/allocator.h **** 	{ typedef allocator<_Tp1> other; };
  91:/usr/arm-none-eabi/include/c++/15.2.0/bits/allocator.h **** #endif
  92:/usr/arm-none-eabi/include/c++/15.2.0/bits/allocator.h **** 
  93:/usr/arm-none-eabi/include/c++/15.2.0/bits/allocator.h **** #if __cplusplus >= 201103L
  94:/usr/arm-none-eabi/include/c++/15.2.0/bits/allocator.h ****       // _GLIBCXX_RESOLVE_LIB_DEFECTS
  95:/usr/arm-none-eabi/include/c++/15.2.0/bits/allocator.h ****       // 2103. std::allocator propagate_on_container_move_assignment
  96:/usr/arm-none-eabi/include/c++/15.2.0/bits/allocator.h ****       using propagate_on_container_move_assignment = true_type;
  97:/usr/arm-none-eabi/include/c++/15.2.0/bits/allocator.h **** 
  98:/usr/arm-none-eabi/include/c++/15.2.0/bits/allocator.h **** #if __cplusplus <= 202302L
  99:/usr/arm-none-eabi/include/c++/15.2.0/bits/allocator.h ****       using is_always_equal
 100:/usr/arm-none-eabi/include/c++/15.2.0/bits/allocator.h **** 	_GLIBCXX20_DEPRECATED_SUGGEST("std::allocator_traits::is_always_equal")
 101:/usr/arm-none-eabi/include/c++/15.2.0/bits/allocator.h **** 	= true_type;
 102:/usr/arm-none-eabi/include/c++/15.2.0/bits/allocator.h **** #endif
 103:/usr/arm-none-eabi/include/c++/15.2.0/bits/allocator.h **** 
 104:/usr/arm-none-eabi/include/c++/15.2.0/bits/allocator.h **** #if __cplusplus >= 202002L
 105:/usr/arm-none-eabi/include/c++/15.2.0/bits/allocator.h ****       // As noted above, these members are present for C++20 to provide the
 106:/usr/arm-none-eabi/include/c++/15.2.0/bits/allocator.h ****       // same API as the primary template, but still trivial as in pre-C++20.
 107:/usr/arm-none-eabi/include/c++/15.2.0/bits/allocator.h ****       allocator() = default;
 108:/usr/arm-none-eabi/include/c++/15.2.0/bits/allocator.h ****       ~allocator() = default;
 109:/usr/arm-none-eabi/include/c++/15.2.0/bits/allocator.h **** 
 110:/usr/arm-none-eabi/include/c++/15.2.0/bits/allocator.h ****       template<typename _Up>
 111:/usr/arm-none-eabi/include/c++/15.2.0/bits/allocator.h **** 	__attribute__((__always_inline__))
 112:/usr/arm-none-eabi/include/c++/15.2.0/bits/allocator.h **** 	constexpr
 113:/usr/arm-none-eabi/include/c++/15.2.0/bits/allocator.h **** 	allocator(const allocator<_Up>&) noexcept { }
 114:/usr/arm-none-eabi/include/c++/15.2.0/bits/allocator.h **** 
 115:/usr/arm-none-eabi/include/c++/15.2.0/bits/allocator.h ****       // No allocate member because it's ill-formed by LWG 3307.
 116:/usr/arm-none-eabi/include/c++/15.2.0/bits/allocator.h ****       // No deallocate member because it would be undefined to call it
 117:/usr/arm-none-eabi/include/c++/15.2.0/bits/allocator.h ****       // with any pointer which wasn't obtained from allocate.
 118:/usr/arm-none-eabi/include/c++/15.2.0/bits/allocator.h **** #endif // C++20
 119:/usr/arm-none-eabi/include/c++/15.2.0/bits/allocator.h **** #endif // C++11
 120:/usr/arm-none-eabi/include/c++/15.2.0/bits/allocator.h ****     };
 121:/usr/arm-none-eabi/include/c++/15.2.0/bits/allocator.h **** 
 122:/usr/arm-none-eabi/include/c++/15.2.0/bits/allocator.h ****   /**
 123:/usr/arm-none-eabi/include/c++/15.2.0/bits/allocator.h ****    * @brief  The @a standard allocator, as per C++03 [20.4.1].
 124:/usr/arm-none-eabi/include/c++/15.2.0/bits/allocator.h ****    *
 125:/usr/arm-none-eabi/include/c++/15.2.0/bits/allocator.h ****    *  See https://gcc.gnu.org/onlinedocs/libstdc++/manual/memory.html#std.util.memory.allocator
 126:/usr/arm-none-eabi/include/c++/15.2.0/bits/allocator.h ****    *  for further details.
 127:/usr/arm-none-eabi/include/c++/15.2.0/bits/allocator.h ****    *
 128:/usr/arm-none-eabi/include/c++/15.2.0/bits/allocator.h ****    *  @tparam  _Tp  Type of allocated object.
 129:/usr/arm-none-eabi/include/c++/15.2.0/bits/allocator.h ****    *
 130:/usr/arm-none-eabi/include/c++/15.2.0/bits/allocator.h ****    *  @headerfile memory
 131:/usr/arm-none-eabi/include/c++/15.2.0/bits/allocator.h ****    */
 132:/usr/arm-none-eabi/include/c++/15.2.0/bits/allocator.h ****   template<typename _Tp>
 133:/usr/arm-none-eabi/include/c++/15.2.0/bits/allocator.h ****     class allocator : public __allocator_base<_Tp>
 134:/usr/arm-none-eabi/include/c++/15.2.0/bits/allocator.h ****     {
ARM GAS  /tmp/ccxXSPX2.s 			page 47


 135:/usr/arm-none-eabi/include/c++/15.2.0/bits/allocator.h ****     public:
 136:/usr/arm-none-eabi/include/c++/15.2.0/bits/allocator.h ****       typedef _Tp        value_type;
 137:/usr/arm-none-eabi/include/c++/15.2.0/bits/allocator.h ****       typedef size_t     size_type;
 138:/usr/arm-none-eabi/include/c++/15.2.0/bits/allocator.h ****       typedef ptrdiff_t  difference_type;
 139:/usr/arm-none-eabi/include/c++/15.2.0/bits/allocator.h **** 
 140:/usr/arm-none-eabi/include/c++/15.2.0/bits/allocator.h **** #if __cplusplus <= 201703L
 141:/usr/arm-none-eabi/include/c++/15.2.0/bits/allocator.h ****       // These were removed for C++20.
 142:/usr/arm-none-eabi/include/c++/15.2.0/bits/allocator.h ****       typedef _Tp*       pointer;
 143:/usr/arm-none-eabi/include/c++/15.2.0/bits/allocator.h ****       typedef const _Tp* const_pointer;
 144:/usr/arm-none-eabi/include/c++/15.2.0/bits/allocator.h ****       typedef _Tp&       reference;
 145:/usr/arm-none-eabi/include/c++/15.2.0/bits/allocator.h ****       typedef const _Tp& const_reference;
 146:/usr/arm-none-eabi/include/c++/15.2.0/bits/allocator.h **** 
 147:/usr/arm-none-eabi/include/c++/15.2.0/bits/allocator.h ****       template<typename _Tp1>
 148:/usr/arm-none-eabi/include/c++/15.2.0/bits/allocator.h **** 	struct rebind
 149:/usr/arm-none-eabi/include/c++/15.2.0/bits/allocator.h **** 	{ typedef allocator<_Tp1> other; };
 150:/usr/arm-none-eabi/include/c++/15.2.0/bits/allocator.h **** #endif
 151:/usr/arm-none-eabi/include/c++/15.2.0/bits/allocator.h **** 
 152:/usr/arm-none-eabi/include/c++/15.2.0/bits/allocator.h **** #if __cplusplus >= 201103L
 153:/usr/arm-none-eabi/include/c++/15.2.0/bits/allocator.h ****       // _GLIBCXX_RESOLVE_LIB_DEFECTS
 154:/usr/arm-none-eabi/include/c++/15.2.0/bits/allocator.h ****       // 2103. std::allocator propagate_on_container_move_assignment
 155:/usr/arm-none-eabi/include/c++/15.2.0/bits/allocator.h ****       using propagate_on_container_move_assignment = true_type;
 156:/usr/arm-none-eabi/include/c++/15.2.0/bits/allocator.h **** 
 157:/usr/arm-none-eabi/include/c++/15.2.0/bits/allocator.h **** #if __cplusplus <= 202302L
 158:/usr/arm-none-eabi/include/c++/15.2.0/bits/allocator.h ****       using is_always_equal
 159:/usr/arm-none-eabi/include/c++/15.2.0/bits/allocator.h **** 	_GLIBCXX20_DEPRECATED_SUGGEST("std::allocator_traits::is_always_equal")
 160:/usr/arm-none-eabi/include/c++/15.2.0/bits/allocator.h **** 	= true_type;
 161:/usr/arm-none-eabi/include/c++/15.2.0/bits/allocator.h **** #endif
 162:/usr/arm-none-eabi/include/c++/15.2.0/bits/allocator.h **** #endif
 163:/usr/arm-none-eabi/include/c++/15.2.0/bits/allocator.h **** 
 164:/usr/arm-none-eabi/include/c++/15.2.0/bits/allocator.h ****       // _GLIBCXX_RESOLVE_LIB_DEFECTS
 165:/usr/arm-none-eabi/include/c++/15.2.0/bits/allocator.h ****       // 3035. std::allocator's constructors should be constexpr
 166:/usr/arm-none-eabi/include/c++/15.2.0/bits/allocator.h ****       __attribute__((__always_inline__))
 167:/usr/arm-none-eabi/include/c++/15.2.0/bits/allocator.h ****       _GLIBCXX20_CONSTEXPR
 168:/usr/arm-none-eabi/include/c++/15.2.0/bits/allocator.h ****       allocator() _GLIBCXX_NOTHROW { }
 169:/usr/arm-none-eabi/include/c++/15.2.0/bits/allocator.h **** 
 170:/usr/arm-none-eabi/include/c++/15.2.0/bits/allocator.h ****       __attribute__((__always_inline__))
 171:/usr/arm-none-eabi/include/c++/15.2.0/bits/allocator.h ****       _GLIBCXX20_CONSTEXPR
 172:/usr/arm-none-eabi/include/c++/15.2.0/bits/allocator.h ****       allocator(const allocator& __a) _GLIBCXX_NOTHROW
 173:/usr/arm-none-eabi/include/c++/15.2.0/bits/allocator.h ****       : __allocator_base<_Tp>(__a) { }
 174:/usr/arm-none-eabi/include/c++/15.2.0/bits/allocator.h **** 
 175:/usr/arm-none-eabi/include/c++/15.2.0/bits/allocator.h **** #if __cplusplus >= 201103L
 176:/usr/arm-none-eabi/include/c++/15.2.0/bits/allocator.h ****       // Avoid implicit deprecation.
 177:/usr/arm-none-eabi/include/c++/15.2.0/bits/allocator.h ****       allocator& operator=(const allocator&) = default;
 178:/usr/arm-none-eabi/include/c++/15.2.0/bits/allocator.h **** #endif
 179:/usr/arm-none-eabi/include/c++/15.2.0/bits/allocator.h **** 
 180:/usr/arm-none-eabi/include/c++/15.2.0/bits/allocator.h ****       template<typename _Tp1>
 181:/usr/arm-none-eabi/include/c++/15.2.0/bits/allocator.h **** 	__attribute__((__always_inline__))
 182:/usr/arm-none-eabi/include/c++/15.2.0/bits/allocator.h **** 	_GLIBCXX20_CONSTEXPR
 183:/usr/arm-none-eabi/include/c++/15.2.0/bits/allocator.h **** 	allocator(const allocator<_Tp1>&) _GLIBCXX_NOTHROW { }
 184:/usr/arm-none-eabi/include/c++/15.2.0/bits/allocator.h **** 
 185:/usr/arm-none-eabi/include/c++/15.2.0/bits/allocator.h ****       __attribute__((__always_inline__))
 186:/usr/arm-none-eabi/include/c++/15.2.0/bits/allocator.h **** #if __cpp_constexpr_dynamic_alloc
 187:/usr/arm-none-eabi/include/c++/15.2.0/bits/allocator.h ****       constexpr
 188:/usr/arm-none-eabi/include/c++/15.2.0/bits/allocator.h **** #endif
 189:/usr/arm-none-eabi/include/c++/15.2.0/bits/allocator.h ****       ~allocator() _GLIBCXX_NOTHROW { }
 190:/usr/arm-none-eabi/include/c++/15.2.0/bits/allocator.h **** 
 191:/usr/arm-none-eabi/include/c++/15.2.0/bits/allocator.h **** #if __cplusplus > 201703L
ARM GAS  /tmp/ccxXSPX2.s 			page 48


 192:/usr/arm-none-eabi/include/c++/15.2.0/bits/allocator.h ****       [[nodiscard,__gnu__::__always_inline__]]
 193:/usr/arm-none-eabi/include/c++/15.2.0/bits/allocator.h ****       constexpr _Tp*
 194:/usr/arm-none-eabi/include/c++/15.2.0/bits/allocator.h ****       allocate(size_t __n)
 195:/usr/arm-none-eabi/include/c++/15.2.0/bits/allocator.h ****       {
 196:/usr/arm-none-eabi/include/c++/15.2.0/bits/allocator.h **** 	if (std::__is_constant_evaluated())
 197:/usr/arm-none-eabi/include/c++/15.2.0/bits/allocator.h **** 	  {
 198:/usr/arm-none-eabi/include/c++/15.2.0/bits/allocator.h **** 	    if (__builtin_mul_overflow(__n, sizeof(_Tp), &__n))
 199:/usr/arm-none-eabi/include/c++/15.2.0/bits/allocator.h **** 	      std::__throw_bad_array_new_length();
 200:/usr/arm-none-eabi/include/c++/15.2.0/bits/allocator.h **** 	    return static_cast<_Tp*>(::operator new(__n));
 201:/usr/arm-none-eabi/include/c++/15.2.0/bits/allocator.h **** 	  }
 202:/usr/arm-none-eabi/include/c++/15.2.0/bits/allocator.h **** 
 203:/usr/arm-none-eabi/include/c++/15.2.0/bits/allocator.h **** 	return __allocator_base<_Tp>::allocate(__n, 0);
 204:/usr/arm-none-eabi/include/c++/15.2.0/bits/allocator.h ****       }
 205:/usr/arm-none-eabi/include/c++/15.2.0/bits/allocator.h **** 
 206:/usr/arm-none-eabi/include/c++/15.2.0/bits/allocator.h ****       [[__gnu__::__always_inline__]]
 207:/usr/arm-none-eabi/include/c++/15.2.0/bits/allocator.h ****       constexpr void
 208:/usr/arm-none-eabi/include/c++/15.2.0/bits/allocator.h ****       deallocate(_Tp* __p, size_t __n)
 304              		.loc 8 208 7 view .LVU73
 305              	.LBB981:
 306              	.LBI981:
 307              		.file 9 "/usr/arm-none-eabi/include/c++/15.2.0/bits/new_allocator.h"
   1:/usr/arm-none-eabi/include/c++/15.2.0/bits/new_allocator.h **** // Allocator that wraps operator new -*- C++ -*-
   2:/usr/arm-none-eabi/include/c++/15.2.0/bits/new_allocator.h **** 
   3:/usr/arm-none-eabi/include/c++/15.2.0/bits/new_allocator.h **** // Copyright (C) 2001-2025 Free Software Foundation, Inc.
   4:/usr/arm-none-eabi/include/c++/15.2.0/bits/new_allocator.h **** //
   5:/usr/arm-none-eabi/include/c++/15.2.0/bits/new_allocator.h **** // This file is part of the GNU ISO C++ Library.  This library is free
   6:/usr/arm-none-eabi/include/c++/15.2.0/bits/new_allocator.h **** // software; you can redistribute it and/or modify it under the
   7:/usr/arm-none-eabi/include/c++/15.2.0/bits/new_allocator.h **** // terms of the GNU General Public License as published by the
   8:/usr/arm-none-eabi/include/c++/15.2.0/bits/new_allocator.h **** // Free Software Foundation; either version 3, or (at your option)
   9:/usr/arm-none-eabi/include/c++/15.2.0/bits/new_allocator.h **** // any later version.
  10:/usr/arm-none-eabi/include/c++/15.2.0/bits/new_allocator.h **** 
  11:/usr/arm-none-eabi/include/c++/15.2.0/bits/new_allocator.h **** // This library is distributed in the hope that it will be useful,
  12:/usr/arm-none-eabi/include/c++/15.2.0/bits/new_allocator.h **** // but WITHOUT ANY WARRANTY; without even the implied warranty of
  13:/usr/arm-none-eabi/include/c++/15.2.0/bits/new_allocator.h **** // MERCHANTABILITY or FITNESS FOR A PARTICULAR PURPOSE.  See the
  14:/usr/arm-none-eabi/include/c++/15.2.0/bits/new_allocator.h **** // GNU General Public License for more details.
  15:/usr/arm-none-eabi/include/c++/15.2.0/bits/new_allocator.h **** 
  16:/usr/arm-none-eabi/include/c++/15.2.0/bits/new_allocator.h **** // Under Section 7 of GPL version 3, you are granted additional
  17:/usr/arm-none-eabi/include/c++/15.2.0/bits/new_allocator.h **** // permissions described in the GCC Runtime Library Exception, version
  18:/usr/arm-none-eabi/include/c++/15.2.0/bits/new_allocator.h **** // 3.1, as published by the Free Software Foundation.
  19:/usr/arm-none-eabi/include/c++/15.2.0/bits/new_allocator.h **** 
  20:/usr/arm-none-eabi/include/c++/15.2.0/bits/new_allocator.h **** // You should have received a copy of the GNU General Public License and
  21:/usr/arm-none-eabi/include/c++/15.2.0/bits/new_allocator.h **** // a copy of the GCC Runtime Library Exception along with this program;
  22:/usr/arm-none-eabi/include/c++/15.2.0/bits/new_allocator.h **** // see the files COPYING3 and COPYING.RUNTIME respectively.  If not, see
  23:/usr/arm-none-eabi/include/c++/15.2.0/bits/new_allocator.h **** // <http://www.gnu.org/licenses/>.
  24:/usr/arm-none-eabi/include/c++/15.2.0/bits/new_allocator.h **** 
  25:/usr/arm-none-eabi/include/c++/15.2.0/bits/new_allocator.h **** /** @file bits/new_allocator.h
  26:/usr/arm-none-eabi/include/c++/15.2.0/bits/new_allocator.h ****  *  This is an internal header file, included by other library headers.
  27:/usr/arm-none-eabi/include/c++/15.2.0/bits/new_allocator.h ****  *  Do not attempt to use it directly. @headername{memory}
  28:/usr/arm-none-eabi/include/c++/15.2.0/bits/new_allocator.h ****  */
  29:/usr/arm-none-eabi/include/c++/15.2.0/bits/new_allocator.h **** 
  30:/usr/arm-none-eabi/include/c++/15.2.0/bits/new_allocator.h **** #ifndef _STD_NEW_ALLOCATOR_H
  31:/usr/arm-none-eabi/include/c++/15.2.0/bits/new_allocator.h **** #define _STD_NEW_ALLOCATOR_H 1
  32:/usr/arm-none-eabi/include/c++/15.2.0/bits/new_allocator.h **** 
  33:/usr/arm-none-eabi/include/c++/15.2.0/bits/new_allocator.h **** #include <bits/c++config.h>
  34:/usr/arm-none-eabi/include/c++/15.2.0/bits/new_allocator.h **** #include <new>
  35:/usr/arm-none-eabi/include/c++/15.2.0/bits/new_allocator.h **** #include <bits/functexcept.h>
  36:/usr/arm-none-eabi/include/c++/15.2.0/bits/new_allocator.h **** #include <bits/move.h>
ARM GAS  /tmp/ccxXSPX2.s 			page 49


  37:/usr/arm-none-eabi/include/c++/15.2.0/bits/new_allocator.h **** #if __cplusplus >= 201103L
  38:/usr/arm-none-eabi/include/c++/15.2.0/bits/new_allocator.h **** #include <type_traits>
  39:/usr/arm-none-eabi/include/c++/15.2.0/bits/new_allocator.h **** #endif
  40:/usr/arm-none-eabi/include/c++/15.2.0/bits/new_allocator.h **** 
  41:/usr/arm-none-eabi/include/c++/15.2.0/bits/new_allocator.h **** namespace std _GLIBCXX_VISIBILITY(default)
  42:/usr/arm-none-eabi/include/c++/15.2.0/bits/new_allocator.h **** {
  43:/usr/arm-none-eabi/include/c++/15.2.0/bits/new_allocator.h **** _GLIBCXX_BEGIN_NAMESPACE_VERSION
  44:/usr/arm-none-eabi/include/c++/15.2.0/bits/new_allocator.h **** 
  45:/usr/arm-none-eabi/include/c++/15.2.0/bits/new_allocator.h ****   /**
  46:/usr/arm-none-eabi/include/c++/15.2.0/bits/new_allocator.h ****    * @brief  An allocator that uses global `new`, as per C++03 [20.4.1].
  47:/usr/arm-none-eabi/include/c++/15.2.0/bits/new_allocator.h ****    * @ingroup allocators
  48:/usr/arm-none-eabi/include/c++/15.2.0/bits/new_allocator.h ****    *
  49:/usr/arm-none-eabi/include/c++/15.2.0/bits/new_allocator.h ****    * This is precisely the allocator defined in the C++ Standard.
  50:/usr/arm-none-eabi/include/c++/15.2.0/bits/new_allocator.h ****    *   - all allocation calls `operator new`
  51:/usr/arm-none-eabi/include/c++/15.2.0/bits/new_allocator.h ****    *   - all deallocation calls `operator delete`
  52:/usr/arm-none-eabi/include/c++/15.2.0/bits/new_allocator.h ****    *
  53:/usr/arm-none-eabi/include/c++/15.2.0/bits/new_allocator.h ****    * This is the default base-class implementation of `std::allocator`,
  54:/usr/arm-none-eabi/include/c++/15.2.0/bits/new_allocator.h ****    * and is also the base-class of the `__gnu_cxx::new_allocator` extension.
  55:/usr/arm-none-eabi/include/c++/15.2.0/bits/new_allocator.h ****    * You should use either `std::allocator` or `__gnu_cxx::new_allocator`
  56:/usr/arm-none-eabi/include/c++/15.2.0/bits/new_allocator.h ****    * instead of using this directly.
  57:/usr/arm-none-eabi/include/c++/15.2.0/bits/new_allocator.h ****    *
  58:/usr/arm-none-eabi/include/c++/15.2.0/bits/new_allocator.h ****    * @tparam  _Tp  Type of allocated object.
  59:/usr/arm-none-eabi/include/c++/15.2.0/bits/new_allocator.h ****    *
  60:/usr/arm-none-eabi/include/c++/15.2.0/bits/new_allocator.h ****    * @headerfile memory
  61:/usr/arm-none-eabi/include/c++/15.2.0/bits/new_allocator.h ****    */
  62:/usr/arm-none-eabi/include/c++/15.2.0/bits/new_allocator.h ****   template<typename _Tp>
  63:/usr/arm-none-eabi/include/c++/15.2.0/bits/new_allocator.h ****     class __new_allocator
  64:/usr/arm-none-eabi/include/c++/15.2.0/bits/new_allocator.h ****     {
  65:/usr/arm-none-eabi/include/c++/15.2.0/bits/new_allocator.h ****     public:
  66:/usr/arm-none-eabi/include/c++/15.2.0/bits/new_allocator.h ****       typedef _Tp        value_type;
  67:/usr/arm-none-eabi/include/c++/15.2.0/bits/new_allocator.h ****       typedef std::size_t     size_type;
  68:/usr/arm-none-eabi/include/c++/15.2.0/bits/new_allocator.h ****       typedef std::ptrdiff_t  difference_type;
  69:/usr/arm-none-eabi/include/c++/15.2.0/bits/new_allocator.h **** #if __cplusplus <= 201703L
  70:/usr/arm-none-eabi/include/c++/15.2.0/bits/new_allocator.h ****       typedef _Tp*       pointer;
  71:/usr/arm-none-eabi/include/c++/15.2.0/bits/new_allocator.h ****       typedef const _Tp* const_pointer;
  72:/usr/arm-none-eabi/include/c++/15.2.0/bits/new_allocator.h ****       typedef _Tp&       reference;
  73:/usr/arm-none-eabi/include/c++/15.2.0/bits/new_allocator.h ****       typedef const _Tp& const_reference;
  74:/usr/arm-none-eabi/include/c++/15.2.0/bits/new_allocator.h **** 
  75:/usr/arm-none-eabi/include/c++/15.2.0/bits/new_allocator.h ****       template<typename _Tp1>
  76:/usr/arm-none-eabi/include/c++/15.2.0/bits/new_allocator.h **** 	struct rebind
  77:/usr/arm-none-eabi/include/c++/15.2.0/bits/new_allocator.h **** 	{ typedef __new_allocator<_Tp1> other; };
  78:/usr/arm-none-eabi/include/c++/15.2.0/bits/new_allocator.h **** #endif
  79:/usr/arm-none-eabi/include/c++/15.2.0/bits/new_allocator.h **** 
  80:/usr/arm-none-eabi/include/c++/15.2.0/bits/new_allocator.h **** #if __cplusplus >= 201103L
  81:/usr/arm-none-eabi/include/c++/15.2.0/bits/new_allocator.h ****       // _GLIBCXX_RESOLVE_LIB_DEFECTS
  82:/usr/arm-none-eabi/include/c++/15.2.0/bits/new_allocator.h ****       // 2103. propagate_on_container_move_assignment
  83:/usr/arm-none-eabi/include/c++/15.2.0/bits/new_allocator.h ****       typedef std::true_type propagate_on_container_move_assignment;
  84:/usr/arm-none-eabi/include/c++/15.2.0/bits/new_allocator.h **** #endif
  85:/usr/arm-none-eabi/include/c++/15.2.0/bits/new_allocator.h **** 
  86:/usr/arm-none-eabi/include/c++/15.2.0/bits/new_allocator.h ****       __attribute__((__always_inline__))
  87:/usr/arm-none-eabi/include/c++/15.2.0/bits/new_allocator.h ****       _GLIBCXX20_CONSTEXPR
  88:/usr/arm-none-eabi/include/c++/15.2.0/bits/new_allocator.h ****       __new_allocator() _GLIBCXX_USE_NOEXCEPT { }
  89:/usr/arm-none-eabi/include/c++/15.2.0/bits/new_allocator.h **** 
  90:/usr/arm-none-eabi/include/c++/15.2.0/bits/new_allocator.h ****       __attribute__((__always_inline__))
  91:/usr/arm-none-eabi/include/c++/15.2.0/bits/new_allocator.h ****       _GLIBCXX20_CONSTEXPR
  92:/usr/arm-none-eabi/include/c++/15.2.0/bits/new_allocator.h ****       __new_allocator(const __new_allocator&) _GLIBCXX_USE_NOEXCEPT { }
  93:/usr/arm-none-eabi/include/c++/15.2.0/bits/new_allocator.h **** 
ARM GAS  /tmp/ccxXSPX2.s 			page 50


  94:/usr/arm-none-eabi/include/c++/15.2.0/bits/new_allocator.h ****       template<typename _Tp1>
  95:/usr/arm-none-eabi/include/c++/15.2.0/bits/new_allocator.h **** 	__attribute__((__always_inline__))
  96:/usr/arm-none-eabi/include/c++/15.2.0/bits/new_allocator.h **** 	_GLIBCXX20_CONSTEXPR
  97:/usr/arm-none-eabi/include/c++/15.2.0/bits/new_allocator.h **** 	__new_allocator(const __new_allocator<_Tp1>&) _GLIBCXX_USE_NOEXCEPT { }
  98:/usr/arm-none-eabi/include/c++/15.2.0/bits/new_allocator.h **** 
  99:/usr/arm-none-eabi/include/c++/15.2.0/bits/new_allocator.h **** #if __cplusplus >= 201103L
 100:/usr/arm-none-eabi/include/c++/15.2.0/bits/new_allocator.h ****       __new_allocator& operator=(const __new_allocator&) = default;
 101:/usr/arm-none-eabi/include/c++/15.2.0/bits/new_allocator.h **** #endif
 102:/usr/arm-none-eabi/include/c++/15.2.0/bits/new_allocator.h **** 
 103:/usr/arm-none-eabi/include/c++/15.2.0/bits/new_allocator.h **** #if __cplusplus <= 201703L
 104:/usr/arm-none-eabi/include/c++/15.2.0/bits/new_allocator.h ****       ~__new_allocator() _GLIBCXX_USE_NOEXCEPT { }
 105:/usr/arm-none-eabi/include/c++/15.2.0/bits/new_allocator.h **** 
 106:/usr/arm-none-eabi/include/c++/15.2.0/bits/new_allocator.h ****       pointer
 107:/usr/arm-none-eabi/include/c++/15.2.0/bits/new_allocator.h ****       address(reference __x) const _GLIBCXX_NOEXCEPT
 108:/usr/arm-none-eabi/include/c++/15.2.0/bits/new_allocator.h ****       { return std::__addressof(__x); }
 109:/usr/arm-none-eabi/include/c++/15.2.0/bits/new_allocator.h **** 
 110:/usr/arm-none-eabi/include/c++/15.2.0/bits/new_allocator.h ****       const_pointer
 111:/usr/arm-none-eabi/include/c++/15.2.0/bits/new_allocator.h ****       address(const_reference __x) const _GLIBCXX_NOEXCEPT
 112:/usr/arm-none-eabi/include/c++/15.2.0/bits/new_allocator.h ****       { return std::__addressof(__x); }
 113:/usr/arm-none-eabi/include/c++/15.2.0/bits/new_allocator.h **** #endif
 114:/usr/arm-none-eabi/include/c++/15.2.0/bits/new_allocator.h **** 
 115:/usr/arm-none-eabi/include/c++/15.2.0/bits/new_allocator.h **** #if __has_builtin(__builtin_operator_new) >= 201802L
 116:/usr/arm-none-eabi/include/c++/15.2.0/bits/new_allocator.h **** # define _GLIBCXX_OPERATOR_NEW __builtin_operator_new
 117:/usr/arm-none-eabi/include/c++/15.2.0/bits/new_allocator.h **** # define _GLIBCXX_OPERATOR_DELETE __builtin_operator_delete
 118:/usr/arm-none-eabi/include/c++/15.2.0/bits/new_allocator.h **** #else
 119:/usr/arm-none-eabi/include/c++/15.2.0/bits/new_allocator.h **** # define _GLIBCXX_OPERATOR_NEW ::operator new
 120:/usr/arm-none-eabi/include/c++/15.2.0/bits/new_allocator.h **** # define _GLIBCXX_OPERATOR_DELETE ::operator delete
 121:/usr/arm-none-eabi/include/c++/15.2.0/bits/new_allocator.h **** #endif
 122:/usr/arm-none-eabi/include/c++/15.2.0/bits/new_allocator.h **** 
 123:/usr/arm-none-eabi/include/c++/15.2.0/bits/new_allocator.h ****       // NB: __n is permitted to be 0.  The C++ standard says nothing
 124:/usr/arm-none-eabi/include/c++/15.2.0/bits/new_allocator.h ****       // about what the return value is when __n == 0.
 125:/usr/arm-none-eabi/include/c++/15.2.0/bits/new_allocator.h ****       _GLIBCXX_NODISCARD _Tp*
 126:/usr/arm-none-eabi/include/c++/15.2.0/bits/new_allocator.h ****       allocate(size_type __n, const void* = static_cast<const void*>(0))
 127:/usr/arm-none-eabi/include/c++/15.2.0/bits/new_allocator.h ****       {
 128:/usr/arm-none-eabi/include/c++/15.2.0/bits/new_allocator.h **** #if __cplusplus >= 201103L
 129:/usr/arm-none-eabi/include/c++/15.2.0/bits/new_allocator.h **** 	// _GLIBCXX_RESOLVE_LIB_DEFECTS
 130:/usr/arm-none-eabi/include/c++/15.2.0/bits/new_allocator.h **** 	// 3308. std::allocator<void>().allocate(n)
 131:/usr/arm-none-eabi/include/c++/15.2.0/bits/new_allocator.h **** 	static_assert(sizeof(_Tp) != 0, "cannot allocate incomplete types");
 132:/usr/arm-none-eabi/include/c++/15.2.0/bits/new_allocator.h **** #endif
 133:/usr/arm-none-eabi/include/c++/15.2.0/bits/new_allocator.h **** 
 134:/usr/arm-none-eabi/include/c++/15.2.0/bits/new_allocator.h **** 	if (__builtin_expect(__n > this->_M_max_size(), false))
 135:/usr/arm-none-eabi/include/c++/15.2.0/bits/new_allocator.h **** 	  {
 136:/usr/arm-none-eabi/include/c++/15.2.0/bits/new_allocator.h **** 	    // _GLIBCXX_RESOLVE_LIB_DEFECTS
 137:/usr/arm-none-eabi/include/c++/15.2.0/bits/new_allocator.h **** 	    // 3190. allocator::allocate sometimes returns too little storage
 138:/usr/arm-none-eabi/include/c++/15.2.0/bits/new_allocator.h **** 	    if (__n > (std::size_t(-1) / sizeof(_Tp)))
 139:/usr/arm-none-eabi/include/c++/15.2.0/bits/new_allocator.h **** 	      std::__throw_bad_array_new_length();
